
IMU_Headtracker.elf:     file format elf32-avr

Sections:
Idx Name          Size      VMA       LMA       File off  Algn
  0 .data         0000024c  00800100  000061b8  0000624c  2**0
                  CONTENTS, ALLOC, LOAD, DATA
  1 .text         000061b8  00000000  00000000  00000094  2**1
                  CONTENTS, ALLOC, LOAD, READONLY, CODE
  2 .bss          00000107  0080034c  0080034c  00006498  2**0
                  ALLOC
  3 .comment      0000005c  00000000  00000000  00006498  2**0
                  CONTENTS, READONLY
  4 .note.gnu.avr.deviceinfo 00000040  00000000  00000000  000064f4  2**2
                  CONTENTS, READONLY
  5 .debug_aranges 00000180  00000000  00000000  00006534  2**0
                  CONTENTS, READONLY, DEBUGGING
  6 .debug_info   0000292d  00000000  00000000  000066b4  2**0
                  CONTENTS, READONLY, DEBUGGING
  7 .debug_abbrev 00000d2c  00000000  00000000  00008fe1  2**0
                  CONTENTS, READONLY, DEBUGGING
  8 .debug_line   00001776  00000000  00000000  00009d0d  2**0
                  CONTENTS, READONLY, DEBUGGING
  9 .debug_frame  00000730  00000000  00000000  0000b484  2**2
                  CONTENTS, READONLY, DEBUGGING
 10 .debug_str    000009b9  00000000  00000000  0000bbb4  2**0
                  CONTENTS, READONLY, DEBUGGING
 11 .debug_loc    00002b06  00000000  00000000  0000c56d  2**0
                  CONTENTS, READONLY, DEBUGGING
 12 .debug_ranges 00000158  00000000  00000000  0000f073  2**0
                  CONTENTS, READONLY, DEBUGGING

Disassembly of section .text:

00000000 <__vectors>:
       0:	0c 94 37 01 	jmp	0x26e	; 0x26e <__ctors_end>
       4:	0c 94 54 01 	jmp	0x2a8	; 0x2a8 <__bad_interrupt>
       8:	0c 94 54 01 	jmp	0x2a8	; 0x2a8 <__bad_interrupt>
       c:	0c 94 54 01 	jmp	0x2a8	; 0x2a8 <__bad_interrupt>
      10:	0c 94 54 01 	jmp	0x2a8	; 0x2a8 <__bad_interrupt>
      14:	0c 94 54 01 	jmp	0x2a8	; 0x2a8 <__bad_interrupt>
      18:	0c 94 54 01 	jmp	0x2a8	; 0x2a8 <__bad_interrupt>
      1c:	0c 94 54 01 	jmp	0x2a8	; 0x2a8 <__bad_interrupt>
      20:	0c 94 54 01 	jmp	0x2a8	; 0x2a8 <__bad_interrupt>
      24:	0c 94 54 01 	jmp	0x2a8	; 0x2a8 <__bad_interrupt>
      28:	0c 94 54 01 	jmp	0x2a8	; 0x2a8 <__bad_interrupt>
      2c:	0c 94 54 01 	jmp	0x2a8	; 0x2a8 <__bad_interrupt>
      30:	0c 94 54 01 	jmp	0x2a8	; 0x2a8 <__bad_interrupt>
      34:	0c 94 54 01 	jmp	0x2a8	; 0x2a8 <__bad_interrupt>
      38:	0c 94 54 01 	jmp	0x2a8	; 0x2a8 <__bad_interrupt>
      3c:	0c 94 54 01 	jmp	0x2a8	; 0x2a8 <__bad_interrupt>
      40:	0c 94 54 01 	jmp	0x2a8	; 0x2a8 <__bad_interrupt>
      44:	0c 94 54 01 	jmp	0x2a8	; 0x2a8 <__bad_interrupt>
      48:	0c 94 31 27 	jmp	0x4e62	; 0x4e62 <__vector_18>
      4c:	0c 94 b5 27 	jmp	0x4f6a	; 0x4f6a <__vector_19>
      50:	0c 94 0f 28 	jmp	0x501e	; 0x501e <__vector_20>
      54:	0c 94 54 01 	jmp	0x2a8	; 0x2a8 <__bad_interrupt>
      58:	0c 94 54 01 	jmp	0x2a8	; 0x2a8 <__bad_interrupt>
      5c:	0c 94 54 01 	jmp	0x2a8	; 0x2a8 <__bad_interrupt>
      60:	0c 94 5b 26 	jmp	0x4cb6	; 0x4cb6 <__vector_24>
      64:	0c 94 54 01 	jmp	0x2a8	; 0x2a8 <__bad_interrupt>
      68:	76 26       	eor	r7, r22
      6a:	c8 26       	eor	r12, r24
      6c:	c8 26       	eor	r12, r24
      6e:	c8 26       	eor	r12, r24
      70:	c8 26       	eor	r12, r24
      72:	c8 26       	eor	r12, r24
      74:	c8 26       	eor	r12, r24
      76:	c8 26       	eor	r12, r24
      78:	76 26       	eor	r7, r22
      7a:	c8 26       	eor	r12, r24
      7c:	c8 26       	eor	r12, r24
      7e:	c8 26       	eor	r12, r24
      80:	c8 26       	eor	r12, r24
      82:	c8 26       	eor	r12, r24
      84:	c8 26       	eor	r12, r24
      86:	c8 26       	eor	r12, r24
      88:	78 26       	eor	r7, r24
      8a:	c8 26       	eor	r12, r24
      8c:	c8 26       	eor	r12, r24
      8e:	c8 26       	eor	r12, r24
      90:	c8 26       	eor	r12, r24
      92:	c8 26       	eor	r12, r24
      94:	c8 26       	eor	r12, r24
      96:	c8 26       	eor	r12, r24
      98:	c8 26       	eor	r12, r24
      9a:	c8 26       	eor	r12, r24
      9c:	c8 26       	eor	r12, r24
      9e:	c8 26       	eor	r12, r24
      a0:	c8 26       	eor	r12, r24
      a2:	c8 26       	eor	r12, r24
      a4:	c8 26       	eor	r12, r24
      a6:	c8 26       	eor	r12, r24
      a8:	78 26       	eor	r7, r24
      aa:	c8 26       	eor	r12, r24
      ac:	c8 26       	eor	r12, r24
      ae:	c8 26       	eor	r12, r24
      b0:	c8 26       	eor	r12, r24
      b2:	c8 26       	eor	r12, r24
      b4:	c8 26       	eor	r12, r24
      b6:	c8 26       	eor	r12, r24
      b8:	c8 26       	eor	r12, r24
      ba:	c8 26       	eor	r12, r24
      bc:	c8 26       	eor	r12, r24
      be:	c8 26       	eor	r12, r24
      c0:	c8 26       	eor	r12, r24
      c2:	c8 26       	eor	r12, r24
      c4:	c8 26       	eor	r12, r24
      c6:	c8 26       	eor	r12, r24
      c8:	c4 26       	eor	r12, r20
      ca:	c8 26       	eor	r12, r24
      cc:	c8 26       	eor	r12, r24
      ce:	c8 26       	eor	r12, r24
      d0:	c8 26       	eor	r12, r24
      d2:	c8 26       	eor	r12, r24
      d4:	c8 26       	eor	r12, r24
      d6:	c8 26       	eor	r12, r24
      d8:	a1 26       	eor	r10, r17
      da:	c8 26       	eor	r12, r24
      dc:	c8 26       	eor	r12, r24
      de:	c8 26       	eor	r12, r24
      e0:	c8 26       	eor	r12, r24
      e2:	c8 26       	eor	r12, r24
      e4:	c8 26       	eor	r12, r24
      e6:	c8 26       	eor	r12, r24
      e8:	c8 26       	eor	r12, r24
      ea:	c8 26       	eor	r12, r24
      ec:	c8 26       	eor	r12, r24
      ee:	c8 26       	eor	r12, r24
      f0:	c8 26       	eor	r12, r24
      f2:	c8 26       	eor	r12, r24
      f4:	c8 26       	eor	r12, r24
      f6:	c8 26       	eor	r12, r24
      f8:	95 26       	eor	r9, r21
      fa:	c8 26       	eor	r12, r24
      fc:	c8 26       	eor	r12, r24
      fe:	c8 26       	eor	r12, r24
     100:	c8 26       	eor	r12, r24
     102:	c8 26       	eor	r12, r24
     104:	c8 26       	eor	r12, r24
     106:	c8 26       	eor	r12, r24
     108:	b3 26       	eor	r11, r19
     10a:	03 6e       	ori	r16, 0xE3	; 227
     10c:	db 36       	cpi	r29, 0x6B	; 107
     10e:	3d 9a       	sbi	0x07, 5	; 7
     110:	99 99       	sbic	0x13, 1	; 19
     112:	99 3d       	cpi	r25, 0xD9	; 217
     114:	ab aa       	std	Y+51, r10	; 0x33
     116:	aa 2a       	or	r10, r26
     118:	3e 00       	.word	0x003e	; ????
     11a:	00 00       	nop
     11c:	80 3f       	cpi	r24, 0xF0	; 240
     11e:	08 4a       	sbci	r16, 0xA8	; 168
     120:	d7 3b       	cpi	r29, 0xB7	; 183
     122:	3b ce       	rjmp	.-906    	; 0xfffffd9a <__eeprom_end+0xff7efd9a>
     124:	01 6e       	ori	r16, 0xE1	; 225
     126:	84 bc       	out	0x24, r8	; 36
     128:	bf fd       	.word	0xfdbf	; ????
     12a:	c1 2f       	mov	r28, r17
     12c:	3d 6c       	ori	r19, 0xCD	; 205
     12e:	74 31       	cpi	r23, 0x14	; 20
     130:	9a bd       	out	0x2a, r25	; 42
     132:	56 83       	std	Z+6, r21	; 0x06
     134:	3d da       	rcall	.-2950   	; 0xfffff5b0 <__eeprom_end+0xff7ef5b0>
     136:	3d 00       	.word	0x003d	; ????
     138:	c7 7f       	andi	r28, 0xF7	; 247
     13a:	11 be       	out	0x31, r1	; 49
     13c:	d9 e4       	ldi	r29, 0x49	; 73
     13e:	bb 4c       	sbci	r27, 0xCB	; 203
     140:	3e 91       	ld	r19, -X
     142:	6b aa       	std	Y+51, r6	; 0x33
     144:	aa be       	out	0x3a, r10	; 58
     146:	00 00       	nop
     148:	00 80       	ld	r0, Z
     14a:	3f 07       	cpc	r19, r31
     14c:	2c 7a       	andi	r18, 0xAC	; 172
     14e:	a5 ba       	out	0x15, r10	; 21
     150:	6c c5       	rjmp	.+2776   	; 0xc2a <__stack+0x32b>
     152:	90 da       	rcall	.-2784   	; 0xfffff674 <__eeprom_end+0xff7ef674>
     154:	3b 93       	.word	0x933b	; ????
     156:	65 fc       	sbrc	r6, 5
     158:	8b bc       	out	0x2b, r8	; 43
     15a:	53 f8       	bld	r5, 3
     15c:	10 fd       	sbrc	r17, 0
     15e:	3c 56       	subi	r19, 0x6C	; 108
     160:	92 83       	std	Z+2, r25	; 0x02
     162:	4d bd       	out	0x2d, r20	; 45
     164:	87 9d       	mul	r24, r7
     166:	3a b6       	in	r3, 0x3a	; 58
     168:	3d cb       	rjmp	.-2438   	; 0xfffff7e4 <__eeprom_end+0xff7ef7e4>
     16a:	c9 bf       	out	0x39, r28	; 57
     16c:	5b be       	out	0x3b, r5	; 59
     16e:	73 da       	rcall	.-2842   	; 0xfffff656 <__eeprom_end+0xff7ef656>
     170:	0f c9       	rjmp	.-3554   	; 0xfffff390 <__eeprom_end+0xff7ef390>
     172:	3f 00       	.word	0x003f	; ????

00000174 <__trampolines_end>:
     174:	00 40       	sbci	r16, 0x00	; 0
     176:	7a 10       	cpse	r7, r10
     178:	f3 5a       	subi	r31, 0xA3	; 163
     17a:	00 a0       	ldd	r0, Z+32	; 0x20
     17c:	72 4e       	sbci	r23, 0xE2	; 226
     17e:	18 09       	sbc	r17, r8
     180:	00 10       	cpse	r0, r0
     182:	a5 d4       	rcall	.+2378   	; 0xace <__stack+0x1cf>
     184:	e8 00       	.word	0x00e8	; ????
     186:	00 e8       	ldi	r16, 0x80	; 128
     188:	76 48       	sbci	r23, 0x86	; 134
     18a:	17 00       	.word	0x0017	; ????
     18c:	00 e4       	ldi	r16, 0x40	; 64
     18e:	0b 54       	subi	r16, 0x4B	; 75
     190:	02 00       	.word	0x0002	; ????
     192:	00 ca       	rjmp	.-3072   	; 0xfffff594 <__eeprom_end+0xff7ef594>
     194:	9a 3b       	cpi	r25, 0xBA	; 186
     196:	00 00       	nop
     198:	00 e1       	ldi	r16, 0x10	; 16
     19a:	f5 05       	cpc	r31, r5
     19c:	00 00       	nop
     19e:	80 96       	adiw	r24, 0x20	; 32
     1a0:	98 00       	.word	0x0098	; ????
     1a2:	00 00       	nop
     1a4:	40 42       	sbci	r20, 0x20	; 32
     1a6:	0f 00       	.word	0x000f	; ????
     1a8:	00 00       	nop
     1aa:	a0 86       	std	Z+8, r10	; 0x08
     1ac:	01 00       	.word	0x0001	; ????
     1ae:	00 00       	nop
     1b0:	10 27       	eor	r17, r16
     1b2:	00 00       	nop
     1b4:	00 00       	nop
     1b6:	e8 03       	fmulsu	r22, r16
     1b8:	00 00       	nop
     1ba:	00 00       	nop
     1bc:	64 00       	.word	0x0064	; ????
     1be:	00 00       	nop
     1c0:	00 00       	nop
     1c2:	0a 00       	.word	0x000a	; ????
     1c4:	00 00       	nop
     1c6:	00 00       	nop
     1c8:	01 00       	.word	0x0001	; ????
     1ca:	00 00       	nop
     1cc:	00 00       	nop
     1ce:	2c 76       	andi	r18, 0x6C	; 108
     1d0:	d8 88       	ldd	r13, Y+16	; 0x10
     1d2:	dc 67       	ori	r29, 0x7C	; 124
     1d4:	4f 08       	sbc	r4, r15
     1d6:	23 df       	rcall	.-442    	; 0x1e <__FUSE_REGION_LENGTH__+0x1b>
     1d8:	c1 df       	rcall	.-126    	; 0x15c <__SREG__+0x11d>
     1da:	ae 59       	subi	r26, 0x9E	; 158
     1dc:	e1 b1       	in	r30, 0x01	; 1
     1de:	b7 96       	adiw	r30, 0x27	; 39
     1e0:	e5 e3       	ldi	r30, 0x35	; 53
     1e2:	e4 53       	subi	r30, 0x34	; 52
     1e4:	c6 3a       	cpi	r28, 0xA6	; 166
     1e6:	e6 51       	subi	r30, 0x16	; 22
     1e8:	99 76       	andi	r25, 0x69	; 105
     1ea:	96 e8       	ldi	r25, 0x86	; 134
     1ec:	e6 c2       	rjmp	.+1484   	; 0x7ba <__LOCK_REGION_LENGTH__+0x3ba>
     1ee:	84 26       	eor	r8, r20
     1f0:	eb 89       	ldd	r30, Y+19	; 0x13
     1f2:	8c 9b       	sbis	0x11, 4	; 17
     1f4:	62 ed       	ldi	r22, 0xD2	; 210
     1f6:	40 7c       	andi	r20, 0xC0	; 192
     1f8:	6f fc       	.word	0xfc6f	; ????
     1fa:	ef bc       	out	0x2f, r14	; 47
     1fc:	9c 9f       	mul	r25, r28
     1fe:	40 f2       	brcs	.-112    	; 0x190 <__trampolines_end+0x1c>
     200:	ba a5       	ldd	r27, Y+42	; 0x2a
     202:	6f a5       	ldd	r22, Y+47	; 0x2f
     204:	f4 90       	lpm	r15, Z
     206:	05 5a       	subi	r16, 0xA5	; 165
     208:	2a f7       	brpl	.-54     	; 0x1d4 <__trampolines_end+0x60>
     20a:	5c 93       	st	X, r21
     20c:	6b 6c       	ori	r22, 0xCB	; 203
     20e:	f9 67       	ori	r31, 0x79	; 121
     210:	6d c1       	rjmp	.+730    	; 0x4ec <__LOCK_REGION_LENGTH__+0xec>
     212:	1b fc       	.word	0xfc1b	; ????
     214:	e0 e4       	ldi	r30, 0x40	; 64
     216:	0d 47       	sbci	r16, 0x7D	; 125
     218:	fe f5       	brtc	.+126    	; 0x298 <.do_clear_bss_loop>
     21a:	20 e6       	ldi	r18, 0x60	; 96
     21c:	b5 00       	.word	0x00b5	; ????
     21e:	d0 ed       	ldi	r29, 0xD0	; 208
     220:	90 2e       	mov	r9, r16
     222:	03 00       	.word	0x0003	; ????
     224:	94 35       	cpi	r25, 0x54	; 84
     226:	77 05       	cpc	r23, r7
     228:	00 80       	ld	r0, Z
     22a:	84 1e       	adc	r8, r20
     22c:	08 00       	.word	0x0008	; ????
     22e:	00 20       	and	r0, r0
     230:	4e 0a       	sbc	r4, r30
     232:	00 00       	nop
     234:	00 c8       	rjmp	.-4096   	; 0xfffff236 <__eeprom_end+0xff7ef236>
     236:	0c 33       	cpi	r16, 0x3C	; 60
     238:	33 33       	cpi	r19, 0x33	; 51
     23a:	33 0f       	add	r19, r19
     23c:	98 6e       	ori	r25, 0xE8	; 232
     23e:	12 83       	std	Z+2, r17	; 0x02
     240:	11 41       	sbci	r17, 0x11	; 17
     242:	ef 8d       	ldd	r30, Y+31	; 0x1f
     244:	21 14       	cp	r2, r1
     246:	89 3b       	cpi	r24, 0xB9	; 185
     248:	e6 55       	subi	r30, 0x56	; 86
     24a:	16 cf       	rjmp	.-468    	; 0x78 <__SREG__+0x39>
     24c:	fe e6       	ldi	r31, 0x6E	; 110
     24e:	db 18       	sub	r13, r11
     250:	d1 84       	ldd	r13, Z+9	; 0x09
     252:	4b 38       	cpi	r20, 0x8B	; 139
     254:	1b f7       	brvc	.-58     	; 0x21c <__trampolines_end+0xa8>
     256:	7c 1d       	adc	r23, r12
     258:	90 1d       	adc	r25, r0
     25a:	a4 bb       	out	0x14, r26	; 20
     25c:	e4 24       	eor	r14, r4
     25e:	20 32       	cpi	r18, 0x20	; 32
     260:	84 72       	andi	r24, 0x24	; 36
     262:	5e 22       	and	r5, r30
     264:	81 00       	.word	0x0081	; ????
     266:	c9 f1       	breq	.+114    	; 0x2da <invSqrt+0x2e>
     268:	24 ec       	ldi	r18, 0xC4	; 196
     26a:	a1 e5       	ldi	r26, 0x51	; 81
     26c:	3d 27       	eor	r19, r29

0000026e <__ctors_end>:
     26e:	11 24       	eor	r1, r1
     270:	1f be       	out	0x3f, r1	; 63
     272:	cf ef       	ldi	r28, 0xFF	; 255
     274:	d8 e0       	ldi	r29, 0x08	; 8
     276:	de bf       	out	0x3e, r29	; 62
     278:	cd bf       	out	0x3d, r28	; 61

0000027a <__do_copy_data>:
     27a:	13 e0       	ldi	r17, 0x03	; 3
     27c:	a0 e0       	ldi	r26, 0x00	; 0
     27e:	b1 e0       	ldi	r27, 0x01	; 1
     280:	e8 eb       	ldi	r30, 0xB8	; 184
     282:	f1 e6       	ldi	r31, 0x61	; 97
     284:	02 c0       	rjmp	.+4      	; 0x28a <__do_copy_data+0x10>
     286:	05 90       	lpm	r0, Z+
     288:	0d 92       	st	X+, r0
     28a:	ac 34       	cpi	r26, 0x4C	; 76
     28c:	b1 07       	cpc	r27, r17
     28e:	d9 f7       	brne	.-10     	; 0x286 <__do_copy_data+0xc>

00000290 <__do_clear_bss>:
     290:	24 e0       	ldi	r18, 0x04	; 4
     292:	ac e4       	ldi	r26, 0x4C	; 76
     294:	b3 e0       	ldi	r27, 0x03	; 3
     296:	01 c0       	rjmp	.+2      	; 0x29a <.do_clear_bss_start>

00000298 <.do_clear_bss_loop>:
     298:	1d 92       	st	X+, r1

0000029a <.do_clear_bss_start>:
     29a:	a3 35       	cpi	r26, 0x53	; 83
     29c:	b2 07       	cpc	r27, r18
     29e:	e1 f7       	brne	.-8      	; 0x298 <.do_clear_bss_loop>
     2a0:	0e 94 c4 23 	call	0x4788	; 0x4788 <main>
     2a4:	0c 94 da 30 	jmp	0x61b4	; 0x61b4 <_exit>

000002a8 <__bad_interrupt>:
     2a8:	0c 94 00 00 	jmp	0	; 0x0 <__vectors>

000002ac <invSqrt>:

//---------------------------------------------------------------------------------------------------
// Fast inverse square-root
// See: http://en.wikipedia.org/wiki/Fast_inverse_square_root

float invSqrt(float x) {
     2ac:	cf 92       	push	r12
     2ae:	df 92       	push	r13
     2b0:	ef 92       	push	r14
     2b2:	ff 92       	push	r15
     2b4:	0f 93       	push	r16
     2b6:	1f 93       	push	r17
	float halfx = 0.5f * x;
	float y = x;
	long i = *(long*)&y;
	i = 0x5f3759df - (i>>1);
	y = *(float*)&i;
     2b8:	8b 01       	movw	r16, r22
     2ba:	9c 01       	movw	r18, r24
     2bc:	35 95       	asr	r19
     2be:	27 95       	ror	r18
     2c0:	17 95       	ror	r17
     2c2:	07 95       	ror	r16
     2c4:	0f 2e       	mov	r0, r31
     2c6:	ff ed       	ldi	r31, 0xDF	; 223
     2c8:	cf 2e       	mov	r12, r31
     2ca:	f9 e5       	ldi	r31, 0x59	; 89
     2cc:	df 2e       	mov	r13, r31
     2ce:	f7 e3       	ldi	r31, 0x37	; 55
     2d0:	ef 2e       	mov	r14, r31
     2d2:	ff e5       	ldi	r31, 0x5F	; 95
     2d4:	ff 2e       	mov	r15, r31
     2d6:	f0 2d       	mov	r31, r0
     2d8:	c0 1a       	sub	r12, r16
     2da:	d1 0a       	sbc	r13, r17
     2dc:	e2 0a       	sbc	r14, r18
     2de:	f3 0a       	sbc	r15, r19
	y = y * (1.5f - (halfx * y * y));
	return y;
     2e0:	20 e0       	ldi	r18, 0x00	; 0
     2e2:	30 e0       	ldi	r19, 0x00	; 0
     2e4:	40 e0       	ldi	r20, 0x00	; 0
     2e6:	5f e3       	ldi	r21, 0x3F	; 63
     2e8:	0e 94 b1 2a 	call	0x5562	; 0x5562 <__mulsf3>
     2ec:	a7 01       	movw	r20, r14
     2ee:	96 01       	movw	r18, r12
     2f0:	0e 94 b1 2a 	call	0x5562	; 0x5562 <__mulsf3>
     2f4:	a7 01       	movw	r20, r14
     2f6:	96 01       	movw	r18, r12
     2f8:	0e 94 b1 2a 	call	0x5562	; 0x5562 <__mulsf3>
     2fc:	9b 01       	movw	r18, r22
     2fe:	ac 01       	movw	r20, r24
     300:	60 e0       	ldi	r22, 0x00	; 0
     302:	70 e0       	ldi	r23, 0x00	; 0
     304:	80 ec       	ldi	r24, 0xC0	; 192
     306:	9f e3       	ldi	r25, 0x3F	; 63
     308:	0e 94 2b 28 	call	0x5056	; 0x5056 <__subsf3>
     30c:	a7 01       	movw	r20, r14
     30e:	96 01       	movw	r18, r12
     310:	0e 94 b1 2a 	call	0x5562	; 0x5562 <__mulsf3>
}
     314:	1f 91       	pop	r17
     316:	0f 91       	pop	r16
     318:	ff 90       	pop	r15
     31a:	ef 90       	pop	r14
     31c:	df 90       	pop	r13
     31e:	cf 90       	pop	r12
     320:	08 95       	ret

00000322 <MadgwickAHRSupdateIMU>:
}

//---------------------------------------------------------------------------------------------------
// IMU algorithm update

void MadgwickAHRSupdateIMU(float gx, float gy, float gz, float ax, float ay, float az) {
     322:	4f 92       	push	r4
     324:	5f 92       	push	r5
     326:	6f 92       	push	r6
     328:	7f 92       	push	r7
     32a:	8f 92       	push	r8
     32c:	9f 92       	push	r9
     32e:	af 92       	push	r10
     330:	bf 92       	push	r11
     332:	cf 92       	push	r12
     334:	df 92       	push	r13
     336:	ef 92       	push	r14
     338:	ff 92       	push	r15
     33a:	0f 93       	push	r16
     33c:	1f 93       	push	r17
     33e:	cf 93       	push	r28
     340:	df 93       	push	r29
     342:	cd b7       	in	r28, 0x3d	; 61
     344:	de b7       	in	r29, 0x3e	; 62
     346:	cc 54       	subi	r28, 0x4C	; 76
     348:	d1 09       	sbc	r29, r1
     34a:	0f b6       	in	r0, 0x3f	; 63
     34c:	f8 94       	cli
     34e:	de bf       	out	0x3e, r29	; 62
     350:	0f be       	out	0x3f, r0	; 63
     352:	cd bf       	out	0x3d, r28	; 61
     354:	6d 83       	std	Y+5, r22	; 0x05
     356:	7e 83       	std	Y+6, r23	; 0x06
     358:	8f 83       	std	Y+7, r24	; 0x07
     35a:	98 87       	std	Y+8, r25	; 0x08
     35c:	29 87       	std	Y+9, r18	; 0x09
     35e:	3a 87       	std	Y+10, r19	; 0x0a
     360:	4b 87       	std	Y+11, r20	; 0x0b
     362:	5c 87       	std	Y+12, r21	; 0x0c
     364:	e9 82       	std	Y+1, r14	; 0x01
     366:	fa 82       	std	Y+2, r15	; 0x02
     368:	0b 83       	std	Y+3, r16	; 0x03
     36a:	1c 83       	std	Y+4, r17	; 0x04
	float s0, s1, s2, s3;
	float qDot1, qDot2, qDot3, qDot4;
	float _2q0, _2q1, _2q2, _2q3, _4q0, _4q1, _4q2 ,_8q1, _8q2, q0q0, q1q1, q2q2, q3q3;

	// Rate of change of quaternion from gyroscope
	qDot1 = 0.5f * (-q1 * gx - q2 * gy - q3 * gz);
     36c:	80 91 64 03 	lds	r24, 0x0364	; 0x800364 <q1>
     370:	90 91 65 03 	lds	r25, 0x0365	; 0x800365 <q1+0x1>
     374:	a0 91 66 03 	lds	r26, 0x0366	; 0x800366 <q1+0x2>
     378:	b0 91 67 03 	lds	r27, 0x0367	; 0x800367 <q1+0x3>
     37c:	40 90 60 03 	lds	r4, 0x0360	; 0x800360 <q2>
     380:	50 90 61 03 	lds	r5, 0x0361	; 0x800361 <q2+0x1>
     384:	60 90 62 03 	lds	r6, 0x0362	; 0x800362 <q2+0x2>
     388:	70 90 63 03 	lds	r7, 0x0363	; 0x800363 <q2+0x3>
     38c:	e0 90 5c 03 	lds	r14, 0x035C	; 0x80035c <q3>
     390:	f0 90 5d 03 	lds	r15, 0x035D	; 0x80035d <q3+0x1>
     394:	00 91 5e 03 	lds	r16, 0x035E	; 0x80035e <q3+0x2>
     398:	10 91 5f 03 	lds	r17, 0x035F	; 0x80035f <q3+0x3>
     39c:	e9 a6       	std	Y+41, r14	; 0x29
     39e:	fa a6       	std	Y+42, r15	; 0x2a
     3a0:	0b a7       	std	Y+43, r16	; 0x2b
     3a2:	1c a7       	std	Y+44, r17	; 0x2c
     3a4:	bc 01       	movw	r22, r24
     3a6:	cd 01       	movw	r24, r26
     3a8:	90 58       	subi	r25, 0x80	; 128
     3aa:	2d 81       	ldd	r18, Y+5	; 0x05
     3ac:	3e 81       	ldd	r19, Y+6	; 0x06
     3ae:	4f 81       	ldd	r20, Y+7	; 0x07
     3b0:	58 85       	ldd	r21, Y+8	; 0x08
     3b2:	0e 94 b1 2a 	call	0x5562	; 0x5562 <__mulsf3>
     3b6:	6d 8b       	std	Y+21, r22	; 0x15
     3b8:	7e 8b       	std	Y+22, r23	; 0x16
     3ba:	8f 8b       	std	Y+23, r24	; 0x17
     3bc:	98 8f       	std	Y+24, r25	; 0x18
     3be:	29 85       	ldd	r18, Y+9	; 0x09
     3c0:	3a 85       	ldd	r19, Y+10	; 0x0a
     3c2:	4b 85       	ldd	r20, Y+11	; 0x0b
     3c4:	5c 85       	ldd	r21, Y+12	; 0x0c
     3c6:	c3 01       	movw	r24, r6
     3c8:	b2 01       	movw	r22, r4
     3ca:	0e 94 b1 2a 	call	0x5562	; 0x5562 <__mulsf3>
     3ce:	9b 01       	movw	r18, r22
     3d0:	ac 01       	movw	r20, r24
     3d2:	6d 89       	ldd	r22, Y+21	; 0x15
     3d4:	7e 89       	ldd	r23, Y+22	; 0x16
     3d6:	8f 89       	ldd	r24, Y+23	; 0x17
     3d8:	98 8d       	ldd	r25, Y+24	; 0x18
     3da:	0e 94 2b 28 	call	0x5056	; 0x5056 <__subsf3>
     3de:	2b 01       	movw	r4, r22
     3e0:	3c 01       	movw	r6, r24
     3e2:	29 81       	ldd	r18, Y+1	; 0x01
     3e4:	3a 81       	ldd	r19, Y+2	; 0x02
     3e6:	4b 81       	ldd	r20, Y+3	; 0x03
     3e8:	5c 81       	ldd	r21, Y+4	; 0x04
     3ea:	c8 01       	movw	r24, r16
     3ec:	b7 01       	movw	r22, r14
     3ee:	0e 94 b1 2a 	call	0x5562	; 0x5562 <__mulsf3>
     3f2:	9b 01       	movw	r18, r22
     3f4:	ac 01       	movw	r20, r24
     3f6:	c3 01       	movw	r24, r6
     3f8:	b2 01       	movw	r22, r4
     3fa:	0e 94 2b 28 	call	0x5056	; 0x5056 <__subsf3>
     3fe:	20 e0       	ldi	r18, 0x00	; 0
     400:	30 e0       	ldi	r19, 0x00	; 0
     402:	40 e0       	ldi	r20, 0x00	; 0
     404:	5f e3       	ldi	r21, 0x3F	; 63
     406:	0e 94 b1 2a 	call	0x5562	; 0x5562 <__mulsf3>
     40a:	69 a7       	std	Y+41, r22	; 0x29
     40c:	7a a7       	std	Y+42, r23	; 0x2a
     40e:	8b a7       	std	Y+43, r24	; 0x2b
     410:	9c a7       	std	Y+44, r25	; 0x2c
	qDot2 = 0.5f * (q0 * gx + q2 * gz - q3 * gy);
     412:	20 91 00 01 	lds	r18, 0x0100	; 0x800100 <__data_start>
     416:	30 91 01 01 	lds	r19, 0x0101	; 0x800101 <__data_start+0x1>
     41a:	40 91 02 01 	lds	r20, 0x0102	; 0x800102 <__data_start+0x2>
     41e:	50 91 03 01 	lds	r21, 0x0103	; 0x800103 <__data_start+0x3>
     422:	40 90 60 03 	lds	r4, 0x0360	; 0x800360 <q2>
     426:	50 90 61 03 	lds	r5, 0x0361	; 0x800361 <q2+0x1>
     42a:	60 90 62 03 	lds	r6, 0x0362	; 0x800362 <q2+0x2>
     42e:	70 90 63 03 	lds	r7, 0x0363	; 0x800363 <q2+0x3>
     432:	e0 90 5c 03 	lds	r14, 0x035C	; 0x80035c <q3>
     436:	f0 90 5d 03 	lds	r15, 0x035D	; 0x80035d <q3+0x1>
     43a:	00 91 5e 03 	lds	r16, 0x035E	; 0x80035e <q3+0x2>
     43e:	10 91 5f 03 	lds	r17, 0x035F	; 0x80035f <q3+0x3>
     442:	ed 8a       	std	Y+21, r14	; 0x15
     444:	fe 8a       	std	Y+22, r15	; 0x16
     446:	0f 8b       	std	Y+23, r16	; 0x17
     448:	18 8f       	std	Y+24, r17	; 0x18
     44a:	6d 81       	ldd	r22, Y+5	; 0x05
     44c:	7e 81       	ldd	r23, Y+6	; 0x06
     44e:	8f 81       	ldd	r24, Y+7	; 0x07
     450:	98 85       	ldd	r25, Y+8	; 0x08
     452:	0e 94 b1 2a 	call	0x5562	; 0x5562 <__mulsf3>
     456:	69 8f       	std	Y+25, r22	; 0x19
     458:	7a 8f       	std	Y+26, r23	; 0x1a
     45a:	8b 8f       	std	Y+27, r24	; 0x1b
     45c:	9c 8f       	std	Y+28, r25	; 0x1c
     45e:	a3 01       	movw	r20, r6
     460:	92 01       	movw	r18, r4
     462:	69 81       	ldd	r22, Y+1	; 0x01
     464:	7a 81       	ldd	r23, Y+2	; 0x02
     466:	8b 81       	ldd	r24, Y+3	; 0x03
     468:	9c 81       	ldd	r25, Y+4	; 0x04
     46a:	0e 94 b1 2a 	call	0x5562	; 0x5562 <__mulsf3>
     46e:	9b 01       	movw	r18, r22
     470:	ac 01       	movw	r20, r24
     472:	69 8d       	ldd	r22, Y+25	; 0x19
     474:	7a 8d       	ldd	r23, Y+26	; 0x1a
     476:	8b 8d       	ldd	r24, Y+27	; 0x1b
     478:	9c 8d       	ldd	r25, Y+28	; 0x1c
     47a:	0e 94 2c 28 	call	0x5058	; 0x5058 <__addsf3>
     47e:	2b 01       	movw	r4, r22
     480:	3c 01       	movw	r6, r24
     482:	a8 01       	movw	r20, r16
     484:	97 01       	movw	r18, r14
     486:	69 85       	ldd	r22, Y+9	; 0x09
     488:	7a 85       	ldd	r23, Y+10	; 0x0a
     48a:	8b 85       	ldd	r24, Y+11	; 0x0b
     48c:	9c 85       	ldd	r25, Y+12	; 0x0c
     48e:	0e 94 b1 2a 	call	0x5562	; 0x5562 <__mulsf3>
     492:	9b 01       	movw	r18, r22
     494:	ac 01       	movw	r20, r24
     496:	c3 01       	movw	r24, r6
     498:	b2 01       	movw	r22, r4
     49a:	0e 94 2b 28 	call	0x5056	; 0x5056 <__subsf3>
     49e:	20 e0       	ldi	r18, 0x00	; 0
     4a0:	30 e0       	ldi	r19, 0x00	; 0
     4a2:	40 e0       	ldi	r20, 0x00	; 0
     4a4:	5f e3       	ldi	r21, 0x3F	; 63
     4a6:	0e 94 b1 2a 	call	0x5562	; 0x5562 <__mulsf3>
     4aa:	6d 8b       	std	Y+21, r22	; 0x15
     4ac:	7e 8b       	std	Y+22, r23	; 0x16
     4ae:	8f 8b       	std	Y+23, r24	; 0x17
     4b0:	98 8f       	std	Y+24, r25	; 0x18
	qDot3 = 0.5f * (q0 * gy - q1 * gz + q3 * gx);
     4b2:	20 91 00 01 	lds	r18, 0x0100	; 0x800100 <__data_start>
     4b6:	30 91 01 01 	lds	r19, 0x0101	; 0x800101 <__data_start+0x1>
     4ba:	40 91 02 01 	lds	r20, 0x0102	; 0x800102 <__data_start+0x2>
     4be:	50 91 03 01 	lds	r21, 0x0103	; 0x800103 <__data_start+0x3>
     4c2:	40 90 64 03 	lds	r4, 0x0364	; 0x800364 <q1>
     4c6:	50 90 65 03 	lds	r5, 0x0365	; 0x800365 <q1+0x1>
     4ca:	60 90 66 03 	lds	r6, 0x0366	; 0x800366 <q1+0x2>
     4ce:	70 90 67 03 	lds	r7, 0x0367	; 0x800367 <q1+0x3>
     4d2:	e0 90 5c 03 	lds	r14, 0x035C	; 0x80035c <q3>
     4d6:	f0 90 5d 03 	lds	r15, 0x035D	; 0x80035d <q3+0x1>
     4da:	00 91 5e 03 	lds	r16, 0x035E	; 0x80035e <q3+0x2>
     4de:	10 91 5f 03 	lds	r17, 0x035F	; 0x80035f <q3+0x3>
     4e2:	e9 8e       	std	Y+25, r14	; 0x19
     4e4:	fa 8e       	std	Y+26, r15	; 0x1a
     4e6:	0b 8f       	std	Y+27, r16	; 0x1b
     4e8:	1c 8f       	std	Y+28, r17	; 0x1c
     4ea:	69 85       	ldd	r22, Y+9	; 0x09
     4ec:	7a 85       	ldd	r23, Y+10	; 0x0a
     4ee:	8b 85       	ldd	r24, Y+11	; 0x0b
     4f0:	9c 85       	ldd	r25, Y+12	; 0x0c
     4f2:	0e 94 b1 2a 	call	0x5562	; 0x5562 <__mulsf3>
     4f6:	6d 8f       	std	Y+29, r22	; 0x1d
     4f8:	7e 8f       	std	Y+30, r23	; 0x1e
     4fa:	8f 8f       	std	Y+31, r24	; 0x1f
     4fc:	98 a3       	std	Y+32, r25	; 0x20
     4fe:	a3 01       	movw	r20, r6
     500:	92 01       	movw	r18, r4
     502:	69 81       	ldd	r22, Y+1	; 0x01
     504:	7a 81       	ldd	r23, Y+2	; 0x02
     506:	8b 81       	ldd	r24, Y+3	; 0x03
     508:	9c 81       	ldd	r25, Y+4	; 0x04
     50a:	0e 94 b1 2a 	call	0x5562	; 0x5562 <__mulsf3>
     50e:	9b 01       	movw	r18, r22
     510:	ac 01       	movw	r20, r24
     512:	6d 8d       	ldd	r22, Y+29	; 0x1d
     514:	7e 8d       	ldd	r23, Y+30	; 0x1e
     516:	8f 8d       	ldd	r24, Y+31	; 0x1f
     518:	98 a1       	ldd	r25, Y+32	; 0x20
     51a:	0e 94 2b 28 	call	0x5056	; 0x5056 <__subsf3>
     51e:	2b 01       	movw	r4, r22
     520:	3c 01       	movw	r6, r24
     522:	a8 01       	movw	r20, r16
     524:	97 01       	movw	r18, r14
     526:	6d 81       	ldd	r22, Y+5	; 0x05
     528:	7e 81       	ldd	r23, Y+6	; 0x06
     52a:	8f 81       	ldd	r24, Y+7	; 0x07
     52c:	98 85       	ldd	r25, Y+8	; 0x08
     52e:	0e 94 b1 2a 	call	0x5562	; 0x5562 <__mulsf3>
     532:	9b 01       	movw	r18, r22
     534:	ac 01       	movw	r20, r24
     536:	c3 01       	movw	r24, r6
     538:	b2 01       	movw	r22, r4
     53a:	0e 94 2c 28 	call	0x5058	; 0x5058 <__addsf3>
     53e:	20 e0       	ldi	r18, 0x00	; 0
     540:	30 e0       	ldi	r19, 0x00	; 0
     542:	40 e0       	ldi	r20, 0x00	; 0
     544:	5f e3       	ldi	r21, 0x3F	; 63
     546:	0e 94 b1 2a 	call	0x5562	; 0x5562 <__mulsf3>
     54a:	69 8f       	std	Y+25, r22	; 0x19
     54c:	7a 8f       	std	Y+26, r23	; 0x1a
     54e:	8b 8f       	std	Y+27, r24	; 0x1b
     550:	9c 8f       	std	Y+28, r25	; 0x1c
	qDot4 = 0.5f * (q0 * gz + q1 * gy - q2 * gx);
     552:	20 91 00 01 	lds	r18, 0x0100	; 0x800100 <__data_start>
     556:	30 91 01 01 	lds	r19, 0x0101	; 0x800101 <__data_start+0x1>
     55a:	40 91 02 01 	lds	r20, 0x0102	; 0x800102 <__data_start+0x2>
     55e:	50 91 03 01 	lds	r21, 0x0103	; 0x800103 <__data_start+0x3>
     562:	40 90 64 03 	lds	r4, 0x0364	; 0x800364 <q1>
     566:	50 90 65 03 	lds	r5, 0x0365	; 0x800365 <q1+0x1>
     56a:	60 90 66 03 	lds	r6, 0x0366	; 0x800366 <q1+0x2>
     56e:	70 90 67 03 	lds	r7, 0x0367	; 0x800367 <q1+0x3>
     572:	e0 90 60 03 	lds	r14, 0x0360	; 0x800360 <q2>
     576:	f0 90 61 03 	lds	r15, 0x0361	; 0x800361 <q2+0x1>
     57a:	00 91 62 03 	lds	r16, 0x0362	; 0x800362 <q2+0x2>
     57e:	10 91 63 03 	lds	r17, 0x0363	; 0x800363 <q2+0x3>
     582:	ed 8e       	std	Y+29, r14	; 0x1d
     584:	fe 8e       	std	Y+30, r15	; 0x1e
     586:	0f 8f       	std	Y+31, r16	; 0x1f
     588:	18 a3       	std	Y+32, r17	; 0x20
     58a:	69 81       	ldd	r22, Y+1	; 0x01
     58c:	7a 81       	ldd	r23, Y+2	; 0x02
     58e:	8b 81       	ldd	r24, Y+3	; 0x03
     590:	9c 81       	ldd	r25, Y+4	; 0x04
     592:	0e 94 b1 2a 	call	0x5562	; 0x5562 <__mulsf3>
     596:	69 83       	std	Y+1, r22	; 0x01
     598:	7a 83       	std	Y+2, r23	; 0x02
     59a:	8b 83       	std	Y+3, r24	; 0x03
     59c:	9c 83       	std	Y+4, r25	; 0x04
     59e:	a3 01       	movw	r20, r6
     5a0:	92 01       	movw	r18, r4
     5a2:	69 85       	ldd	r22, Y+9	; 0x09
     5a4:	7a 85       	ldd	r23, Y+10	; 0x0a
     5a6:	8b 85       	ldd	r24, Y+11	; 0x0b
     5a8:	9c 85       	ldd	r25, Y+12	; 0x0c
     5aa:	0e 94 b1 2a 	call	0x5562	; 0x5562 <__mulsf3>
     5ae:	9b 01       	movw	r18, r22
     5b0:	ac 01       	movw	r20, r24
     5b2:	69 81       	ldd	r22, Y+1	; 0x01
     5b4:	7a 81       	ldd	r23, Y+2	; 0x02
     5b6:	8b 81       	ldd	r24, Y+3	; 0x03
     5b8:	9c 81       	ldd	r25, Y+4	; 0x04
     5ba:	0e 94 2c 28 	call	0x5058	; 0x5058 <__addsf3>
     5be:	2b 01       	movw	r4, r22
     5c0:	3c 01       	movw	r6, r24
     5c2:	a8 01       	movw	r20, r16
     5c4:	97 01       	movw	r18, r14
     5c6:	6d 81       	ldd	r22, Y+5	; 0x05
     5c8:	7e 81       	ldd	r23, Y+6	; 0x06
     5ca:	8f 81       	ldd	r24, Y+7	; 0x07
     5cc:	98 85       	ldd	r25, Y+8	; 0x08
     5ce:	0e 94 b1 2a 	call	0x5562	; 0x5562 <__mulsf3>
     5d2:	9b 01       	movw	r18, r22
     5d4:	ac 01       	movw	r20, r24
     5d6:	c3 01       	movw	r24, r6
     5d8:	b2 01       	movw	r22, r4
     5da:	0e 94 2b 28 	call	0x5056	; 0x5056 <__subsf3>
     5de:	20 e0       	ldi	r18, 0x00	; 0
     5e0:	30 e0       	ldi	r19, 0x00	; 0
     5e2:	40 e0       	ldi	r20, 0x00	; 0
     5e4:	5f e3       	ldi	r21, 0x3F	; 63
     5e6:	0e 94 b1 2a 	call	0x5562	; 0x5562 <__mulsf3>
     5ea:	6d 8f       	std	Y+29, r22	; 0x1d
     5ec:	7e 8f       	std	Y+30, r23	; 0x1e
     5ee:	8f 8f       	std	Y+31, r24	; 0x1f
     5f0:	98 a3       	std	Y+32, r25	; 0x20

	// Compute feedback only if accelerometer measurement valid (avoids NaN in accelerometer normalisation)
	if(!((ax == 0.0f) && (ay == 0.0f) && (az == 0.0f))) {
     5f2:	20 e0       	ldi	r18, 0x00	; 0
     5f4:	30 e0       	ldi	r19, 0x00	; 0
     5f6:	a9 01       	movw	r20, r18
     5f8:	c6 01       	movw	r24, r12
     5fa:	b5 01       	movw	r22, r10
     5fc:	0e 94 25 29 	call	0x524a	; 0x524a <__cmpsf2>
     600:	81 11       	cpse	r24, r1
     602:	1b c0       	rjmp	.+54     	; 0x63a <__LOCK_REGION_LENGTH__+0x23a>
     604:	20 e0       	ldi	r18, 0x00	; 0
     606:	30 e0       	ldi	r19, 0x00	; 0
     608:	a9 01       	movw	r20, r18
     60a:	a3 96       	adiw	r28, 0x23	; 35
     60c:	6c ad       	ldd	r22, Y+60	; 0x3c
     60e:	7d ad       	ldd	r23, Y+61	; 0x3d
     610:	8e ad       	ldd	r24, Y+62	; 0x3e
     612:	9f ad       	ldd	r25, Y+63	; 0x3f
     614:	a3 97       	sbiw	r28, 0x23	; 35
     616:	0e 94 25 29 	call	0x524a	; 0x524a <__cmpsf2>
     61a:	81 11       	cpse	r24, r1
     61c:	0e c0       	rjmp	.+28     	; 0x63a <__LOCK_REGION_LENGTH__+0x23a>
     61e:	20 e0       	ldi	r18, 0x00	; 0
     620:	30 e0       	ldi	r19, 0x00	; 0
     622:	a9 01       	movw	r20, r18
     624:	a7 96       	adiw	r28, 0x27	; 39
     626:	6c ad       	ldd	r22, Y+60	; 0x3c
     628:	7d ad       	ldd	r23, Y+61	; 0x3d
     62a:	8e ad       	ldd	r24, Y+62	; 0x3e
     62c:	9f ad       	ldd	r25, Y+63	; 0x3f
     62e:	a7 97       	sbiw	r28, 0x27	; 39
     630:	0e 94 25 29 	call	0x524a	; 0x524a <__cmpsf2>
     634:	88 23       	and	r24, r24
     636:	09 f4       	brne	.+2      	; 0x63a <__LOCK_REGION_LENGTH__+0x23a>
     638:	c4 c3       	rjmp	.+1928   	; 0xdc2 <__stack+0x4c3>

		// Normalise accelerometer measurement
		recipNorm = invSqrt(ax * ax + ay * ay + az * az);
     63a:	a6 01       	movw	r20, r12
     63c:	95 01       	movw	r18, r10
     63e:	c6 01       	movw	r24, r12
     640:	b5 01       	movw	r22, r10
     642:	0e 94 b1 2a 	call	0x5562	; 0x5562 <__mulsf3>
     646:	2b 01       	movw	r4, r22
     648:	3c 01       	movw	r6, r24
     64a:	a3 96       	adiw	r28, 0x23	; 35
     64c:	2c ad       	ldd	r18, Y+60	; 0x3c
     64e:	3d ad       	ldd	r19, Y+61	; 0x3d
     650:	4e ad       	ldd	r20, Y+62	; 0x3e
     652:	5f ad       	ldd	r21, Y+63	; 0x3f
     654:	a3 97       	sbiw	r28, 0x23	; 35
     656:	ca 01       	movw	r24, r20
     658:	b9 01       	movw	r22, r18
     65a:	0e 94 b1 2a 	call	0x5562	; 0x5562 <__mulsf3>
     65e:	9b 01       	movw	r18, r22
     660:	ac 01       	movw	r20, r24
     662:	c3 01       	movw	r24, r6
     664:	b2 01       	movw	r22, r4
     666:	0e 94 2c 28 	call	0x5058	; 0x5058 <__addsf3>
     66a:	2b 01       	movw	r4, r22
     66c:	3c 01       	movw	r6, r24
     66e:	a7 96       	adiw	r28, 0x27	; 39
     670:	2c ad       	ldd	r18, Y+60	; 0x3c
     672:	3d ad       	ldd	r19, Y+61	; 0x3d
     674:	4e ad       	ldd	r20, Y+62	; 0x3e
     676:	5f ad       	ldd	r21, Y+63	; 0x3f
     678:	a7 97       	sbiw	r28, 0x27	; 39
     67a:	ca 01       	movw	r24, r20
     67c:	b9 01       	movw	r22, r18
     67e:	0e 94 b1 2a 	call	0x5562	; 0x5562 <__mulsf3>
     682:	9b 01       	movw	r18, r22
     684:	ac 01       	movw	r20, r24
     686:	c3 01       	movw	r24, r6
     688:	b2 01       	movw	r22, r4
     68a:	0e 94 2c 28 	call	0x5058	; 0x5058 <__addsf3>
     68e:	0e 94 56 01 	call	0x2ac	; 0x2ac <invSqrt>
     692:	2b 01       	movw	r4, r22
     694:	3c 01       	movw	r6, r24
		ax *= recipNorm;
     696:	9b 01       	movw	r18, r22
     698:	ac 01       	movw	r20, r24
     69a:	c6 01       	movw	r24, r12
     69c:	b5 01       	movw	r22, r10
     69e:	0e 94 b1 2a 	call	0x5562	; 0x5562 <__mulsf3>
     6a2:	6d 83       	std	Y+5, r22	; 0x05
     6a4:	7e 83       	std	Y+6, r23	; 0x06
     6a6:	8f 83       	std	Y+7, r24	; 0x07
     6a8:	98 87       	std	Y+8, r25	; 0x08
		ay *= recipNorm;
     6aa:	a3 01       	movw	r20, r6
     6ac:	92 01       	movw	r18, r4
     6ae:	a3 96       	adiw	r28, 0x23	; 35
     6b0:	6c ad       	ldd	r22, Y+60	; 0x3c
     6b2:	7d ad       	ldd	r23, Y+61	; 0x3d
     6b4:	8e ad       	ldd	r24, Y+62	; 0x3e
     6b6:	9f ad       	ldd	r25, Y+63	; 0x3f
     6b8:	a3 97       	sbiw	r28, 0x23	; 35
     6ba:	0e 94 b1 2a 	call	0x5562	; 0x5562 <__mulsf3>
     6be:	69 87       	std	Y+9, r22	; 0x09
     6c0:	7a 87       	std	Y+10, r23	; 0x0a
     6c2:	8b 87       	std	Y+11, r24	; 0x0b
     6c4:	9c 87       	std	Y+12, r25	; 0x0c
		az *= recipNorm;   
     6c6:	a3 01       	movw	r20, r6
     6c8:	92 01       	movw	r18, r4
     6ca:	a7 96       	adiw	r28, 0x27	; 39
     6cc:	6c ad       	ldd	r22, Y+60	; 0x3c
     6ce:	7d ad       	ldd	r23, Y+61	; 0x3d
     6d0:	8e ad       	ldd	r24, Y+62	; 0x3e
     6d2:	9f ad       	ldd	r25, Y+63	; 0x3f
     6d4:	a7 97       	sbiw	r28, 0x27	; 39
     6d6:	0e 94 b1 2a 	call	0x5562	; 0x5562 <__mulsf3>
     6da:	6d a7       	std	Y+45, r22	; 0x2d
     6dc:	7e a7       	std	Y+46, r23	; 0x2e
     6de:	8f a7       	std	Y+47, r24	; 0x2f
     6e0:	98 ab       	std	Y+48, r25	; 0x30

		// Auxiliary variables to avoid repeated arithmetic
		_2q0 = 2.0f * q0;
     6e2:	60 91 00 01 	lds	r22, 0x0100	; 0x800100 <__data_start>
     6e6:	70 91 01 01 	lds	r23, 0x0101	; 0x800101 <__data_start+0x1>
     6ea:	80 91 02 01 	lds	r24, 0x0102	; 0x800102 <__data_start+0x2>
     6ee:	90 91 03 01 	lds	r25, 0x0103	; 0x800103 <__data_start+0x3>
     6f2:	9b 01       	movw	r18, r22
     6f4:	ac 01       	movw	r20, r24
     6f6:	0e 94 2c 28 	call	0x5058	; 0x5058 <__addsf3>
     6fa:	69 ab       	std	Y+49, r22	; 0x31
     6fc:	7a ab       	std	Y+50, r23	; 0x32
     6fe:	8b ab       	std	Y+51, r24	; 0x33
     700:	9c ab       	std	Y+52, r25	; 0x34
		_2q1 = 2.0f * q1;
     702:	60 91 64 03 	lds	r22, 0x0364	; 0x800364 <q1>
     706:	70 91 65 03 	lds	r23, 0x0365	; 0x800365 <q1+0x1>
     70a:	80 91 66 03 	lds	r24, 0x0366	; 0x800366 <q1+0x2>
     70e:	90 91 67 03 	lds	r25, 0x0367	; 0x800367 <q1+0x3>
     712:	9b 01       	movw	r18, r22
     714:	ac 01       	movw	r20, r24
     716:	0e 94 2c 28 	call	0x5058	; 0x5058 <__addsf3>
     71a:	6d ab       	std	Y+53, r22	; 0x35
     71c:	7e ab       	std	Y+54, r23	; 0x36
     71e:	8f ab       	std	Y+55, r24	; 0x37
     720:	98 af       	std	Y+56, r25	; 0x38
		_2q2 = 2.0f * q2;
     722:	60 91 60 03 	lds	r22, 0x0360	; 0x800360 <q2>
     726:	70 91 61 03 	lds	r23, 0x0361	; 0x800361 <q2+0x1>
     72a:	80 91 62 03 	lds	r24, 0x0362	; 0x800362 <q2+0x2>
     72e:	90 91 63 03 	lds	r25, 0x0363	; 0x800363 <q2+0x3>
     732:	9b 01       	movw	r18, r22
     734:	ac 01       	movw	r20, r24
     736:	0e 94 2c 28 	call	0x5058	; 0x5058 <__addsf3>
     73a:	69 af       	std	Y+57, r22	; 0x39
     73c:	7a af       	std	Y+58, r23	; 0x3a
     73e:	8b af       	std	Y+59, r24	; 0x3b
     740:	9c af       	std	Y+60, r25	; 0x3c
		_2q3 = 2.0f * q3;
     742:	60 91 5c 03 	lds	r22, 0x035C	; 0x80035c <q3>
     746:	70 91 5d 03 	lds	r23, 0x035D	; 0x80035d <q3+0x1>
     74a:	80 91 5e 03 	lds	r24, 0x035E	; 0x80035e <q3+0x2>
     74e:	90 91 5f 03 	lds	r25, 0x035F	; 0x80035f <q3+0x3>
     752:	9b 01       	movw	r18, r22
     754:	ac 01       	movw	r20, r24
     756:	0e 94 2c 28 	call	0x5058	; 0x5058 <__addsf3>
     75a:	21 96       	adiw	r28, 0x01	; 1
     75c:	6c af       	std	Y+60, r22	; 0x3c
     75e:	7d af       	std	Y+61, r23	; 0x3d
     760:	8e af       	std	Y+62, r24	; 0x3e
     762:	9f af       	std	Y+63, r25	; 0x3f
     764:	21 97       	sbiw	r28, 0x01	; 1
		_4q0 = 4.0f * q0;
     766:	60 91 00 01 	lds	r22, 0x0100	; 0x800100 <__data_start>
     76a:	70 91 01 01 	lds	r23, 0x0101	; 0x800101 <__data_start+0x1>
     76e:	80 91 02 01 	lds	r24, 0x0102	; 0x800102 <__data_start+0x2>
     772:	90 91 03 01 	lds	r25, 0x0103	; 0x800103 <__data_start+0x3>
     776:	20 e0       	ldi	r18, 0x00	; 0
     778:	30 e0       	ldi	r19, 0x00	; 0
     77a:	40 e8       	ldi	r20, 0x80	; 128
     77c:	50 e4       	ldi	r21, 0x40	; 64
     77e:	0e 94 b1 2a 	call	0x5562	; 0x5562 <__mulsf3>
     782:	6b 01       	movw	r12, r22
     784:	7c 01       	movw	r14, r24
		_4q1 = 4.0f * q1;
     786:	60 91 64 03 	lds	r22, 0x0364	; 0x800364 <q1>
     78a:	70 91 65 03 	lds	r23, 0x0365	; 0x800365 <q1+0x1>
     78e:	80 91 66 03 	lds	r24, 0x0366	; 0x800366 <q1+0x2>
     792:	90 91 67 03 	lds	r25, 0x0367	; 0x800367 <q1+0x3>
     796:	20 e0       	ldi	r18, 0x00	; 0
     798:	30 e0       	ldi	r19, 0x00	; 0
     79a:	40 e8       	ldi	r20, 0x80	; 128
     79c:	50 e4       	ldi	r21, 0x40	; 64
     79e:	0e 94 b1 2a 	call	0x5562	; 0x5562 <__mulsf3>
     7a2:	6d 87       	std	Y+13, r22	; 0x0d
     7a4:	7e 87       	std	Y+14, r23	; 0x0e
     7a6:	8f 87       	std	Y+15, r24	; 0x0f
     7a8:	98 8b       	std	Y+16, r25	; 0x10
		_4q2 = 4.0f * q2;
     7aa:	60 91 60 03 	lds	r22, 0x0360	; 0x800360 <q2>
     7ae:	70 91 61 03 	lds	r23, 0x0361	; 0x800361 <q2+0x1>
     7b2:	80 91 62 03 	lds	r24, 0x0362	; 0x800362 <q2+0x2>
     7b6:	90 91 63 03 	lds	r25, 0x0363	; 0x800363 <q2+0x3>
     7ba:	20 e0       	ldi	r18, 0x00	; 0
     7bc:	30 e0       	ldi	r19, 0x00	; 0
     7be:	40 e8       	ldi	r20, 0x80	; 128
     7c0:	50 e4       	ldi	r21, 0x40	; 64
     7c2:	0e 94 b1 2a 	call	0x5562	; 0x5562 <__mulsf3>
     7c6:	69 a3       	std	Y+33, r22	; 0x21
     7c8:	7a a3       	std	Y+34, r23	; 0x22
     7ca:	8b a3       	std	Y+35, r24	; 0x23
     7cc:	9c a3       	std	Y+36, r25	; 0x24
		_8q1 = 8.0f * q1;
     7ce:	60 91 64 03 	lds	r22, 0x0364	; 0x800364 <q1>
     7d2:	70 91 65 03 	lds	r23, 0x0365	; 0x800365 <q1+0x1>
     7d6:	80 91 66 03 	lds	r24, 0x0366	; 0x800366 <q1+0x2>
     7da:	90 91 67 03 	lds	r25, 0x0367	; 0x800367 <q1+0x3>
     7de:	20 e0       	ldi	r18, 0x00	; 0
     7e0:	30 e0       	ldi	r19, 0x00	; 0
     7e2:	40 e0       	ldi	r20, 0x00	; 0
     7e4:	51 e4       	ldi	r21, 0x41	; 65
     7e6:	0e 94 b1 2a 	call	0x5562	; 0x5562 <__mulsf3>
     7ea:	25 96       	adiw	r28, 0x05	; 5
     7ec:	6c af       	std	Y+60, r22	; 0x3c
     7ee:	7d af       	std	Y+61, r23	; 0x3d
     7f0:	8e af       	std	Y+62, r24	; 0x3e
     7f2:	9f af       	std	Y+63, r25	; 0x3f
     7f4:	25 97       	sbiw	r28, 0x05	; 5
		_8q2 = 8.0f * q2;
     7f6:	60 91 60 03 	lds	r22, 0x0360	; 0x800360 <q2>
     7fa:	70 91 61 03 	lds	r23, 0x0361	; 0x800361 <q2+0x1>
     7fe:	80 91 62 03 	lds	r24, 0x0362	; 0x800362 <q2+0x2>
     802:	90 91 63 03 	lds	r25, 0x0363	; 0x800363 <q2+0x3>
     806:	20 e0       	ldi	r18, 0x00	; 0
     808:	30 e0       	ldi	r19, 0x00	; 0
     80a:	40 e0       	ldi	r20, 0x00	; 0
     80c:	51 e4       	ldi	r21, 0x41	; 65
     80e:	0e 94 b1 2a 	call	0x5562	; 0x5562 <__mulsf3>
     812:	29 96       	adiw	r28, 0x09	; 9
     814:	6c af       	std	Y+60, r22	; 0x3c
     816:	7d af       	std	Y+61, r23	; 0x3d
     818:	8e af       	std	Y+62, r24	; 0x3e
     81a:	9f af       	std	Y+63, r25	; 0x3f
     81c:	29 97       	sbiw	r28, 0x09	; 9
		q0q0 = q0 * q0;
     81e:	80 90 00 01 	lds	r8, 0x0100	; 0x800100 <__data_start>
     822:	90 90 01 01 	lds	r9, 0x0101	; 0x800101 <__data_start+0x1>
     826:	a0 90 02 01 	lds	r10, 0x0102	; 0x800102 <__data_start+0x2>
     82a:	b0 90 03 01 	lds	r11, 0x0103	; 0x800103 <__data_start+0x3>
     82e:	40 90 00 01 	lds	r4, 0x0100	; 0x800100 <__data_start>
     832:	50 90 01 01 	lds	r5, 0x0101	; 0x800101 <__data_start+0x1>
     836:	60 90 02 01 	lds	r6, 0x0102	; 0x800102 <__data_start+0x2>
     83a:	70 90 03 01 	lds	r7, 0x0103	; 0x800103 <__data_start+0x3>
		q1q1 = q1 * q1;
     83e:	60 91 64 03 	lds	r22, 0x0364	; 0x800364 <q1>
     842:	70 91 65 03 	lds	r23, 0x0365	; 0x800365 <q1+0x1>
     846:	80 91 66 03 	lds	r24, 0x0366	; 0x800366 <q1+0x2>
     84a:	90 91 67 03 	lds	r25, 0x0367	; 0x800367 <q1+0x3>
     84e:	20 91 64 03 	lds	r18, 0x0364	; 0x800364 <q1>
     852:	30 91 65 03 	lds	r19, 0x0365	; 0x800365 <q1+0x1>
     856:	40 91 66 03 	lds	r20, 0x0366	; 0x800366 <q1+0x2>
     85a:	50 91 67 03 	lds	r21, 0x0367	; 0x800367 <q1+0x3>
     85e:	0e 94 b1 2a 	call	0x5562	; 0x5562 <__mulsf3>
     862:	69 83       	std	Y+1, r22	; 0x01
     864:	7a 83       	std	Y+2, r23	; 0x02
     866:	8b 83       	std	Y+3, r24	; 0x03
     868:	9c 83       	std	Y+4, r25	; 0x04
		q2q2 = q2 * q2;
     86a:	60 91 60 03 	lds	r22, 0x0360	; 0x800360 <q2>
     86e:	70 91 61 03 	lds	r23, 0x0361	; 0x800361 <q2+0x1>
     872:	80 91 62 03 	lds	r24, 0x0362	; 0x800362 <q2+0x2>
     876:	90 91 63 03 	lds	r25, 0x0363	; 0x800363 <q2+0x3>
     87a:	20 91 60 03 	lds	r18, 0x0360	; 0x800360 <q2>
     87e:	30 91 61 03 	lds	r19, 0x0361	; 0x800361 <q2+0x1>
     882:	40 91 62 03 	lds	r20, 0x0362	; 0x800362 <q2+0x2>
     886:	50 91 63 03 	lds	r21, 0x0363	; 0x800363 <q2+0x3>
     88a:	0e 94 b1 2a 	call	0x5562	; 0x5562 <__mulsf3>
     88e:	69 8b       	std	Y+17, r22	; 0x11
     890:	7a 8b       	std	Y+18, r23	; 0x12
     892:	8b 8b       	std	Y+19, r24	; 0x13
     894:	9c 8b       	std	Y+20, r25	; 0x14
		q3q3 = q3 * q3;
     896:	60 91 5c 03 	lds	r22, 0x035C	; 0x80035c <q3>
     89a:	70 91 5d 03 	lds	r23, 0x035D	; 0x80035d <q3+0x1>
     89e:	80 91 5e 03 	lds	r24, 0x035E	; 0x80035e <q3+0x2>
     8a2:	90 91 5f 03 	lds	r25, 0x035F	; 0x80035f <q3+0x3>
     8a6:	20 91 5c 03 	lds	r18, 0x035C	; 0x80035c <q3>
     8aa:	30 91 5d 03 	lds	r19, 0x035D	; 0x80035d <q3+0x1>
     8ae:	40 91 5e 03 	lds	r20, 0x035E	; 0x80035e <q3+0x2>
     8b2:	50 91 5f 03 	lds	r21, 0x035F	; 0x80035f <q3+0x3>
     8b6:	0e 94 b1 2a 	call	0x5562	; 0x5562 <__mulsf3>
     8ba:	2d 96       	adiw	r28, 0x0d	; 13
     8bc:	6c af       	std	Y+60, r22	; 0x3c
     8be:	7d af       	std	Y+61, r23	; 0x3d
     8c0:	8e af       	std	Y+62, r24	; 0x3e
     8c2:	9f af       	std	Y+63, r25	; 0x3f
     8c4:	2d 97       	sbiw	r28, 0x0d	; 13

		// Gradient decent algorithm corrective step
		s0 = _4q0 * q2q2 + _2q2 * ax + _4q0 * q1q1 - _2q1 * ay;
     8c6:	29 89       	ldd	r18, Y+17	; 0x11
     8c8:	3a 89       	ldd	r19, Y+18	; 0x12
     8ca:	4b 89       	ldd	r20, Y+19	; 0x13
     8cc:	5c 89       	ldd	r21, Y+20	; 0x14
     8ce:	c7 01       	movw	r24, r14
     8d0:	b6 01       	movw	r22, r12
     8d2:	0e 94 b1 2a 	call	0x5562	; 0x5562 <__mulsf3>
     8d6:	6d a3       	std	Y+37, r22	; 0x25
     8d8:	7e a3       	std	Y+38, r23	; 0x26
     8da:	8f a3       	std	Y+39, r24	; 0x27
     8dc:	98 a7       	std	Y+40, r25	; 0x28
     8de:	29 ad       	ldd	r18, Y+57	; 0x39
     8e0:	3a ad       	ldd	r19, Y+58	; 0x3a
     8e2:	4b ad       	ldd	r20, Y+59	; 0x3b
     8e4:	5c ad       	ldd	r21, Y+60	; 0x3c
     8e6:	6d 81       	ldd	r22, Y+5	; 0x05
     8e8:	7e 81       	ldd	r23, Y+6	; 0x06
     8ea:	8f 81       	ldd	r24, Y+7	; 0x07
     8ec:	98 85       	ldd	r25, Y+8	; 0x08
     8ee:	0e 94 b1 2a 	call	0x5562	; 0x5562 <__mulsf3>
     8f2:	9b 01       	movw	r18, r22
     8f4:	ac 01       	movw	r20, r24
     8f6:	6d a1       	ldd	r22, Y+37	; 0x25
     8f8:	7e a1       	ldd	r23, Y+38	; 0x26
     8fa:	8f a1       	ldd	r24, Y+39	; 0x27
     8fc:	98 a5       	ldd	r25, Y+40	; 0x28
     8fe:	0e 94 2c 28 	call	0x5058	; 0x5058 <__addsf3>
     902:	6d a3       	std	Y+37, r22	; 0x25
     904:	7e a3       	std	Y+38, r23	; 0x26
     906:	8f a3       	std	Y+39, r24	; 0x27
     908:	98 a7       	std	Y+40, r25	; 0x28
     90a:	29 81       	ldd	r18, Y+1	; 0x01
     90c:	3a 81       	ldd	r19, Y+2	; 0x02
     90e:	4b 81       	ldd	r20, Y+3	; 0x03
     910:	5c 81       	ldd	r21, Y+4	; 0x04
     912:	c7 01       	movw	r24, r14
     914:	b6 01       	movw	r22, r12
     916:	0e 94 b1 2a 	call	0x5562	; 0x5562 <__mulsf3>
     91a:	9b 01       	movw	r18, r22
     91c:	ac 01       	movw	r20, r24
     91e:	6d a1       	ldd	r22, Y+37	; 0x25
     920:	7e a1       	ldd	r23, Y+38	; 0x26
     922:	8f a1       	ldd	r24, Y+39	; 0x27
     924:	98 a5       	ldd	r25, Y+40	; 0x28
     926:	0e 94 2c 28 	call	0x5058	; 0x5058 <__addsf3>
     92a:	6b 01       	movw	r12, r22
     92c:	7c 01       	movw	r14, r24
     92e:	2d a9       	ldd	r18, Y+53	; 0x35
     930:	3e a9       	ldd	r19, Y+54	; 0x36
     932:	4f a9       	ldd	r20, Y+55	; 0x37
     934:	58 ad       	ldd	r21, Y+56	; 0x38
     936:	69 85       	ldd	r22, Y+9	; 0x09
     938:	7a 85       	ldd	r23, Y+10	; 0x0a
     93a:	8b 85       	ldd	r24, Y+11	; 0x0b
     93c:	9c 85       	ldd	r25, Y+12	; 0x0c
     93e:	0e 94 b1 2a 	call	0x5562	; 0x5562 <__mulsf3>
     942:	9b 01       	movw	r18, r22
     944:	ac 01       	movw	r20, r24
     946:	c7 01       	movw	r24, r14
     948:	b6 01       	movw	r22, r12
     94a:	0e 94 2b 28 	call	0x5056	; 0x5056 <__subsf3>
     94e:	6d a3       	std	Y+37, r22	; 0x25
     950:	7e a3       	std	Y+38, r23	; 0x26
     952:	8f a3       	std	Y+39, r24	; 0x27
     954:	98 a7       	std	Y+40, r25	; 0x28
		s1 = _4q1 * q3q3 - _2q3 * ax + 4.0f * q0q0 * q1 - _2q0 * ay - _4q1 + _8q1 * q1q1 + _8q1 * q2q2 + _4q1 * az;
     956:	a3 01       	movw	r20, r6
     958:	92 01       	movw	r18, r4
     95a:	c5 01       	movw	r24, r10
     95c:	b4 01       	movw	r22, r8
     95e:	0e 94 b1 2a 	call	0x5562	; 0x5562 <__mulsf3>
     962:	20 e0       	ldi	r18, 0x00	; 0
     964:	30 e0       	ldi	r19, 0x00	; 0
     966:	40 e8       	ldi	r20, 0x80	; 128
     968:	50 e4       	ldi	r21, 0x40	; 64
     96a:	0e 94 b1 2a 	call	0x5562	; 0x5562 <__mulsf3>
     96e:	6b 01       	movw	r12, r22
     970:	7c 01       	movw	r14, r24
     972:	40 90 64 03 	lds	r4, 0x0364	; 0x800364 <q1>
     976:	50 90 65 03 	lds	r5, 0x0365	; 0x800365 <q1+0x1>
     97a:	60 90 66 03 	lds	r6, 0x0366	; 0x800366 <q1+0x2>
     97e:	70 90 67 03 	lds	r7, 0x0367	; 0x800367 <q1+0x3>
     982:	2d 96       	adiw	r28, 0x0d	; 13
     984:	2c ad       	ldd	r18, Y+60	; 0x3c
     986:	3d ad       	ldd	r19, Y+61	; 0x3d
     988:	4e ad       	ldd	r20, Y+62	; 0x3e
     98a:	5f ad       	ldd	r21, Y+63	; 0x3f
     98c:	2d 97       	sbiw	r28, 0x0d	; 13
     98e:	6d 85       	ldd	r22, Y+13	; 0x0d
     990:	7e 85       	ldd	r23, Y+14	; 0x0e
     992:	8f 85       	ldd	r24, Y+15	; 0x0f
     994:	98 89       	ldd	r25, Y+16	; 0x10
     996:	0e 94 b1 2a 	call	0x5562	; 0x5562 <__mulsf3>
     99a:	4b 01       	movw	r8, r22
     99c:	5c 01       	movw	r10, r24
     99e:	21 96       	adiw	r28, 0x01	; 1
     9a0:	2c ad       	ldd	r18, Y+60	; 0x3c
     9a2:	3d ad       	ldd	r19, Y+61	; 0x3d
     9a4:	4e ad       	ldd	r20, Y+62	; 0x3e
     9a6:	5f ad       	ldd	r21, Y+63	; 0x3f
     9a8:	21 97       	sbiw	r28, 0x01	; 1
     9aa:	6d 81       	ldd	r22, Y+5	; 0x05
     9ac:	7e 81       	ldd	r23, Y+6	; 0x06
     9ae:	8f 81       	ldd	r24, Y+7	; 0x07
     9b0:	98 85       	ldd	r25, Y+8	; 0x08
     9b2:	0e 94 b1 2a 	call	0x5562	; 0x5562 <__mulsf3>
     9b6:	9b 01       	movw	r18, r22
     9b8:	ac 01       	movw	r20, r24
     9ba:	c5 01       	movw	r24, r10
     9bc:	b4 01       	movw	r22, r8
     9be:	0e 94 2b 28 	call	0x5056	; 0x5056 <__subsf3>
     9c2:	4b 01       	movw	r8, r22
     9c4:	5c 01       	movw	r10, r24
     9c6:	a3 01       	movw	r20, r6
     9c8:	92 01       	movw	r18, r4
     9ca:	c7 01       	movw	r24, r14
     9cc:	b6 01       	movw	r22, r12
     9ce:	0e 94 b1 2a 	call	0x5562	; 0x5562 <__mulsf3>
     9d2:	9b 01       	movw	r18, r22
     9d4:	ac 01       	movw	r20, r24
     9d6:	c5 01       	movw	r24, r10
     9d8:	b4 01       	movw	r22, r8
     9da:	0e 94 2c 28 	call	0x5058	; 0x5058 <__addsf3>
     9de:	4b 01       	movw	r8, r22
     9e0:	5c 01       	movw	r10, r24
     9e2:	29 a9       	ldd	r18, Y+49	; 0x31
     9e4:	3a a9       	ldd	r19, Y+50	; 0x32
     9e6:	4b a9       	ldd	r20, Y+51	; 0x33
     9e8:	5c a9       	ldd	r21, Y+52	; 0x34
     9ea:	69 85       	ldd	r22, Y+9	; 0x09
     9ec:	7a 85       	ldd	r23, Y+10	; 0x0a
     9ee:	8b 85       	ldd	r24, Y+11	; 0x0b
     9f0:	9c 85       	ldd	r25, Y+12	; 0x0c
     9f2:	0e 94 b1 2a 	call	0x5562	; 0x5562 <__mulsf3>
     9f6:	9b 01       	movw	r18, r22
     9f8:	ac 01       	movw	r20, r24
     9fa:	c5 01       	movw	r24, r10
     9fc:	b4 01       	movw	r22, r8
     9fe:	0e 94 2b 28 	call	0x5056	; 0x5056 <__subsf3>
     a02:	2d 85       	ldd	r18, Y+13	; 0x0d
     a04:	3e 85       	ldd	r19, Y+14	; 0x0e
     a06:	4f 85       	ldd	r20, Y+15	; 0x0f
     a08:	58 89       	ldd	r21, Y+16	; 0x10
     a0a:	0e 94 2b 28 	call	0x5056	; 0x5056 <__subsf3>
     a0e:	4b 01       	movw	r8, r22
     a10:	5c 01       	movw	r10, r24
     a12:	29 81       	ldd	r18, Y+1	; 0x01
     a14:	3a 81       	ldd	r19, Y+2	; 0x02
     a16:	4b 81       	ldd	r20, Y+3	; 0x03
     a18:	5c 81       	ldd	r21, Y+4	; 0x04
     a1a:	25 96       	adiw	r28, 0x05	; 5
     a1c:	6c ad       	ldd	r22, Y+60	; 0x3c
     a1e:	7d ad       	ldd	r23, Y+61	; 0x3d
     a20:	8e ad       	ldd	r24, Y+62	; 0x3e
     a22:	9f ad       	ldd	r25, Y+63	; 0x3f
     a24:	25 97       	sbiw	r28, 0x05	; 5
     a26:	0e 94 b1 2a 	call	0x5562	; 0x5562 <__mulsf3>
     a2a:	9b 01       	movw	r18, r22
     a2c:	ac 01       	movw	r20, r24
     a2e:	c5 01       	movw	r24, r10
     a30:	b4 01       	movw	r22, r8
     a32:	0e 94 2c 28 	call	0x5058	; 0x5058 <__addsf3>
     a36:	4b 01       	movw	r8, r22
     a38:	5c 01       	movw	r10, r24
     a3a:	29 89       	ldd	r18, Y+17	; 0x11
     a3c:	3a 89       	ldd	r19, Y+18	; 0x12
     a3e:	4b 89       	ldd	r20, Y+19	; 0x13
     a40:	5c 89       	ldd	r21, Y+20	; 0x14
     a42:	25 96       	adiw	r28, 0x05	; 5
     a44:	6c ad       	ldd	r22, Y+60	; 0x3c
     a46:	7d ad       	ldd	r23, Y+61	; 0x3d
     a48:	8e ad       	ldd	r24, Y+62	; 0x3e
     a4a:	9f ad       	ldd	r25, Y+63	; 0x3f
     a4c:	25 97       	sbiw	r28, 0x05	; 5
     a4e:	0e 94 b1 2a 	call	0x5562	; 0x5562 <__mulsf3>
     a52:	9b 01       	movw	r18, r22
     a54:	ac 01       	movw	r20, r24
     a56:	c5 01       	movw	r24, r10
     a58:	b4 01       	movw	r22, r8
     a5a:	0e 94 2c 28 	call	0x5058	; 0x5058 <__addsf3>
     a5e:	4b 01       	movw	r8, r22
     a60:	5c 01       	movw	r10, r24
     a62:	2d 85       	ldd	r18, Y+13	; 0x0d
     a64:	3e 85       	ldd	r19, Y+14	; 0x0e
     a66:	4f 85       	ldd	r20, Y+15	; 0x0f
     a68:	58 89       	ldd	r21, Y+16	; 0x10
     a6a:	6d a5       	ldd	r22, Y+45	; 0x2d
     a6c:	7e a5       	ldd	r23, Y+46	; 0x2e
     a6e:	8f a5       	ldd	r24, Y+47	; 0x2f
     a70:	98 a9       	ldd	r25, Y+48	; 0x30
     a72:	0e 94 b1 2a 	call	0x5562	; 0x5562 <__mulsf3>
     a76:	9b 01       	movw	r18, r22
     a78:	ac 01       	movw	r20, r24
     a7a:	c5 01       	movw	r24, r10
     a7c:	b4 01       	movw	r22, r8
     a7e:	0e 94 2c 28 	call	0x5058	; 0x5058 <__addsf3>
     a82:	6d 87       	std	Y+13, r22	; 0x0d
     a84:	7e 87       	std	Y+14, r23	; 0x0e
     a86:	8f 87       	std	Y+15, r24	; 0x0f
     a88:	98 8b       	std	Y+16, r25	; 0x10
		s2 = 4.0f * q0q0 * q2 + _2q0 * ax + _4q2 * q3q3 - _2q3 * ay - _4q2 + _8q2 * q1q1 + _8q2 * q2q2 + _4q2 * az;
     a8a:	20 91 60 03 	lds	r18, 0x0360	; 0x800360 <q2>
     a8e:	30 91 61 03 	lds	r19, 0x0361	; 0x800361 <q2+0x1>
     a92:	40 91 62 03 	lds	r20, 0x0362	; 0x800362 <q2+0x2>
     a96:	50 91 63 03 	lds	r21, 0x0363	; 0x800363 <q2+0x3>
     a9a:	c7 01       	movw	r24, r14
     a9c:	b6 01       	movw	r22, r12
     a9e:	0e 94 b1 2a 	call	0x5562	; 0x5562 <__mulsf3>
     aa2:	6b 01       	movw	r12, r22
     aa4:	7c 01       	movw	r14, r24
     aa6:	29 a9       	ldd	r18, Y+49	; 0x31
     aa8:	3a a9       	ldd	r19, Y+50	; 0x32
     aaa:	4b a9       	ldd	r20, Y+51	; 0x33
     aac:	5c a9       	ldd	r21, Y+52	; 0x34
     aae:	6d 81       	ldd	r22, Y+5	; 0x05
     ab0:	7e 81       	ldd	r23, Y+6	; 0x06
     ab2:	8f 81       	ldd	r24, Y+7	; 0x07
     ab4:	98 85       	ldd	r25, Y+8	; 0x08
     ab6:	0e 94 b1 2a 	call	0x5562	; 0x5562 <__mulsf3>
     aba:	9b 01       	movw	r18, r22
     abc:	ac 01       	movw	r20, r24
     abe:	c7 01       	movw	r24, r14
     ac0:	b6 01       	movw	r22, r12
     ac2:	0e 94 2c 28 	call	0x5058	; 0x5058 <__addsf3>
     ac6:	6b 01       	movw	r12, r22
     ac8:	7c 01       	movw	r14, r24
     aca:	2d 96       	adiw	r28, 0x0d	; 13
     acc:	2c ad       	ldd	r18, Y+60	; 0x3c
     ace:	3d ad       	ldd	r19, Y+61	; 0x3d
     ad0:	4e ad       	ldd	r20, Y+62	; 0x3e
     ad2:	5f ad       	ldd	r21, Y+63	; 0x3f
     ad4:	2d 97       	sbiw	r28, 0x0d	; 13
     ad6:	69 a1       	ldd	r22, Y+33	; 0x21
     ad8:	7a a1       	ldd	r23, Y+34	; 0x22
     ada:	8b a1       	ldd	r24, Y+35	; 0x23
     adc:	9c a1       	ldd	r25, Y+36	; 0x24
     ade:	0e 94 b1 2a 	call	0x5562	; 0x5562 <__mulsf3>
     ae2:	9b 01       	movw	r18, r22
     ae4:	ac 01       	movw	r20, r24
     ae6:	c7 01       	movw	r24, r14
     ae8:	b6 01       	movw	r22, r12
     aea:	0e 94 2c 28 	call	0x5058	; 0x5058 <__addsf3>
     aee:	6b 01       	movw	r12, r22
     af0:	7c 01       	movw	r14, r24
     af2:	21 96       	adiw	r28, 0x01	; 1
     af4:	2c ad       	ldd	r18, Y+60	; 0x3c
     af6:	3d ad       	ldd	r19, Y+61	; 0x3d
     af8:	4e ad       	ldd	r20, Y+62	; 0x3e
     afa:	5f ad       	ldd	r21, Y+63	; 0x3f
     afc:	21 97       	sbiw	r28, 0x01	; 1
     afe:	69 85       	ldd	r22, Y+9	; 0x09
     b00:	7a 85       	ldd	r23, Y+10	; 0x0a
     b02:	8b 85       	ldd	r24, Y+11	; 0x0b
     b04:	9c 85       	ldd	r25, Y+12	; 0x0c
     b06:	0e 94 b1 2a 	call	0x5562	; 0x5562 <__mulsf3>
     b0a:	9b 01       	movw	r18, r22
     b0c:	ac 01       	movw	r20, r24
     b0e:	c7 01       	movw	r24, r14
     b10:	b6 01       	movw	r22, r12
     b12:	0e 94 2b 28 	call	0x5056	; 0x5056 <__subsf3>
     b16:	29 a1       	ldd	r18, Y+33	; 0x21
     b18:	3a a1       	ldd	r19, Y+34	; 0x22
     b1a:	4b a1       	ldd	r20, Y+35	; 0x23
     b1c:	5c a1       	ldd	r21, Y+36	; 0x24
     b1e:	0e 94 2b 28 	call	0x5056	; 0x5056 <__subsf3>
     b22:	6b 01       	movw	r12, r22
     b24:	7c 01       	movw	r14, r24
     b26:	29 81       	ldd	r18, Y+1	; 0x01
     b28:	3a 81       	ldd	r19, Y+2	; 0x02
     b2a:	4b 81       	ldd	r20, Y+3	; 0x03
     b2c:	5c 81       	ldd	r21, Y+4	; 0x04
     b2e:	29 96       	adiw	r28, 0x09	; 9
     b30:	6c ad       	ldd	r22, Y+60	; 0x3c
     b32:	7d ad       	ldd	r23, Y+61	; 0x3d
     b34:	8e ad       	ldd	r24, Y+62	; 0x3e
     b36:	9f ad       	ldd	r25, Y+63	; 0x3f
     b38:	29 97       	sbiw	r28, 0x09	; 9
     b3a:	0e 94 b1 2a 	call	0x5562	; 0x5562 <__mulsf3>
     b3e:	9b 01       	movw	r18, r22
     b40:	ac 01       	movw	r20, r24
     b42:	c7 01       	movw	r24, r14
     b44:	b6 01       	movw	r22, r12
     b46:	0e 94 2c 28 	call	0x5058	; 0x5058 <__addsf3>
     b4a:	6b 01       	movw	r12, r22
     b4c:	7c 01       	movw	r14, r24
     b4e:	29 89       	ldd	r18, Y+17	; 0x11
     b50:	3a 89       	ldd	r19, Y+18	; 0x12
     b52:	4b 89       	ldd	r20, Y+19	; 0x13
     b54:	5c 89       	ldd	r21, Y+20	; 0x14
     b56:	29 96       	adiw	r28, 0x09	; 9
     b58:	6c ad       	ldd	r22, Y+60	; 0x3c
     b5a:	7d ad       	ldd	r23, Y+61	; 0x3d
     b5c:	8e ad       	ldd	r24, Y+62	; 0x3e
     b5e:	9f ad       	ldd	r25, Y+63	; 0x3f
     b60:	29 97       	sbiw	r28, 0x09	; 9
     b62:	0e 94 b1 2a 	call	0x5562	; 0x5562 <__mulsf3>
     b66:	9b 01       	movw	r18, r22
     b68:	ac 01       	movw	r20, r24
     b6a:	c7 01       	movw	r24, r14
     b6c:	b6 01       	movw	r22, r12
     b6e:	0e 94 2c 28 	call	0x5058	; 0x5058 <__addsf3>
     b72:	6b 01       	movw	r12, r22
     b74:	7c 01       	movw	r14, r24
     b76:	29 a1       	ldd	r18, Y+33	; 0x21
     b78:	3a a1       	ldd	r19, Y+34	; 0x22
     b7a:	4b a1       	ldd	r20, Y+35	; 0x23
     b7c:	5c a1       	ldd	r21, Y+36	; 0x24
     b7e:	6d a5       	ldd	r22, Y+45	; 0x2d
     b80:	7e a5       	ldd	r23, Y+46	; 0x2e
     b82:	8f a5       	ldd	r24, Y+47	; 0x2f
     b84:	98 a9       	ldd	r25, Y+48	; 0x30
     b86:	0e 94 b1 2a 	call	0x5562	; 0x5562 <__mulsf3>
     b8a:	9b 01       	movw	r18, r22
     b8c:	ac 01       	movw	r20, r24
     b8e:	c7 01       	movw	r24, r14
     b90:	b6 01       	movw	r22, r12
     b92:	0e 94 2c 28 	call	0x5058	; 0x5058 <__addsf3>
     b96:	69 a3       	std	Y+33, r22	; 0x21
     b98:	7a a3       	std	Y+34, r23	; 0x22
     b9a:	8b a3       	std	Y+35, r24	; 0x23
     b9c:	9c a3       	std	Y+36, r25	; 0x24
		s3 = 4.0f * q1q1 * q3 - _2q1 * ax + 4.0f * q2q2 * q3 - _2q2 * ay;
     b9e:	c0 90 5c 03 	lds	r12, 0x035C	; 0x80035c <q3>
     ba2:	d0 90 5d 03 	lds	r13, 0x035D	; 0x80035d <q3+0x1>
     ba6:	e0 90 5e 03 	lds	r14, 0x035E	; 0x80035e <q3+0x2>
     baa:	f0 90 5f 03 	lds	r15, 0x035F	; 0x80035f <q3+0x3>
     bae:	80 90 5c 03 	lds	r8, 0x035C	; 0x80035c <q3>
     bb2:	90 90 5d 03 	lds	r9, 0x035D	; 0x80035d <q3+0x1>
     bb6:	a0 90 5e 03 	lds	r10, 0x035E	; 0x80035e <q3+0x2>
     bba:	b0 90 5f 03 	lds	r11, 0x035F	; 0x80035f <q3+0x3>
     bbe:	20 e0       	ldi	r18, 0x00	; 0
     bc0:	30 e0       	ldi	r19, 0x00	; 0
     bc2:	40 e8       	ldi	r20, 0x80	; 128
     bc4:	50 e4       	ldi	r21, 0x40	; 64
     bc6:	69 81       	ldd	r22, Y+1	; 0x01
     bc8:	7a 81       	ldd	r23, Y+2	; 0x02
     bca:	8b 81       	ldd	r24, Y+3	; 0x03
     bcc:	9c 81       	ldd	r25, Y+4	; 0x04
     bce:	0e 94 b1 2a 	call	0x5562	; 0x5562 <__mulsf3>
     bd2:	a7 01       	movw	r20, r14
     bd4:	96 01       	movw	r18, r12
     bd6:	0e 94 b1 2a 	call	0x5562	; 0x5562 <__mulsf3>
     bda:	6b 01       	movw	r12, r22
     bdc:	7c 01       	movw	r14, r24
     bde:	2d a9       	ldd	r18, Y+53	; 0x35
     be0:	3e a9       	ldd	r19, Y+54	; 0x36
     be2:	4f a9       	ldd	r20, Y+55	; 0x37
     be4:	58 ad       	ldd	r21, Y+56	; 0x38
     be6:	6d 81       	ldd	r22, Y+5	; 0x05
     be8:	7e 81       	ldd	r23, Y+6	; 0x06
     bea:	8f 81       	ldd	r24, Y+7	; 0x07
     bec:	98 85       	ldd	r25, Y+8	; 0x08
     bee:	0e 94 b1 2a 	call	0x5562	; 0x5562 <__mulsf3>
     bf2:	9b 01       	movw	r18, r22
     bf4:	ac 01       	movw	r20, r24
     bf6:	c7 01       	movw	r24, r14
     bf8:	b6 01       	movw	r22, r12
     bfa:	0e 94 2b 28 	call	0x5056	; 0x5056 <__subsf3>
     bfe:	6b 01       	movw	r12, r22
     c00:	7c 01       	movw	r14, r24
     c02:	20 e0       	ldi	r18, 0x00	; 0
     c04:	30 e0       	ldi	r19, 0x00	; 0
     c06:	40 e8       	ldi	r20, 0x80	; 128
     c08:	50 e4       	ldi	r21, 0x40	; 64
     c0a:	69 89       	ldd	r22, Y+17	; 0x11
     c0c:	7a 89       	ldd	r23, Y+18	; 0x12
     c0e:	8b 89       	ldd	r24, Y+19	; 0x13
     c10:	9c 89       	ldd	r25, Y+20	; 0x14
     c12:	0e 94 b1 2a 	call	0x5562	; 0x5562 <__mulsf3>
     c16:	a5 01       	movw	r20, r10
     c18:	94 01       	movw	r18, r8
     c1a:	0e 94 b1 2a 	call	0x5562	; 0x5562 <__mulsf3>
     c1e:	9b 01       	movw	r18, r22
     c20:	ac 01       	movw	r20, r24
     c22:	c7 01       	movw	r24, r14
     c24:	b6 01       	movw	r22, r12
     c26:	0e 94 2c 28 	call	0x5058	; 0x5058 <__addsf3>
     c2a:	6b 01       	movw	r12, r22
     c2c:	7c 01       	movw	r14, r24
     c2e:	29 ad       	ldd	r18, Y+57	; 0x39
     c30:	3a ad       	ldd	r19, Y+58	; 0x3a
     c32:	4b ad       	ldd	r20, Y+59	; 0x3b
     c34:	5c ad       	ldd	r21, Y+60	; 0x3c
     c36:	69 85       	ldd	r22, Y+9	; 0x09
     c38:	7a 85       	ldd	r23, Y+10	; 0x0a
     c3a:	8b 85       	ldd	r24, Y+11	; 0x0b
     c3c:	9c 85       	ldd	r25, Y+12	; 0x0c
     c3e:	0e 94 b1 2a 	call	0x5562	; 0x5562 <__mulsf3>
     c42:	9b 01       	movw	r18, r22
     c44:	ac 01       	movw	r20, r24
     c46:	c7 01       	movw	r24, r14
     c48:	b6 01       	movw	r22, r12
     c4a:	0e 94 2b 28 	call	0x5056	; 0x5056 <__subsf3>
     c4e:	4b 01       	movw	r8, r22
     c50:	5c 01       	movw	r10, r24
		recipNorm = invSqrt(s0 * s0 + s1 * s1 + s2 * s2 + s3 * s3); // normalise step magnitude
     c52:	2d a1       	ldd	r18, Y+37	; 0x25
     c54:	3e a1       	ldd	r19, Y+38	; 0x26
     c56:	4f a1       	ldd	r20, Y+39	; 0x27
     c58:	58 a5       	ldd	r21, Y+40	; 0x28
     c5a:	ca 01       	movw	r24, r20
     c5c:	b9 01       	movw	r22, r18
     c5e:	0e 94 b1 2a 	call	0x5562	; 0x5562 <__mulsf3>
     c62:	6b 01       	movw	r12, r22
     c64:	7c 01       	movw	r14, r24
     c66:	2d 85       	ldd	r18, Y+13	; 0x0d
     c68:	3e 85       	ldd	r19, Y+14	; 0x0e
     c6a:	4f 85       	ldd	r20, Y+15	; 0x0f
     c6c:	58 89       	ldd	r21, Y+16	; 0x10
     c6e:	ca 01       	movw	r24, r20
     c70:	b9 01       	movw	r22, r18
     c72:	0e 94 b1 2a 	call	0x5562	; 0x5562 <__mulsf3>
     c76:	9b 01       	movw	r18, r22
     c78:	ac 01       	movw	r20, r24
     c7a:	c7 01       	movw	r24, r14
     c7c:	b6 01       	movw	r22, r12
     c7e:	0e 94 2c 28 	call	0x5058	; 0x5058 <__addsf3>
     c82:	6b 01       	movw	r12, r22
     c84:	7c 01       	movw	r14, r24
     c86:	29 a1       	ldd	r18, Y+33	; 0x21
     c88:	3a a1       	ldd	r19, Y+34	; 0x22
     c8a:	4b a1       	ldd	r20, Y+35	; 0x23
     c8c:	5c a1       	ldd	r21, Y+36	; 0x24
     c8e:	ca 01       	movw	r24, r20
     c90:	b9 01       	movw	r22, r18
     c92:	0e 94 b1 2a 	call	0x5562	; 0x5562 <__mulsf3>
     c96:	9b 01       	movw	r18, r22
     c98:	ac 01       	movw	r20, r24
     c9a:	c7 01       	movw	r24, r14
     c9c:	b6 01       	movw	r22, r12
     c9e:	0e 94 2c 28 	call	0x5058	; 0x5058 <__addsf3>
     ca2:	6b 01       	movw	r12, r22
     ca4:	7c 01       	movw	r14, r24
     ca6:	a5 01       	movw	r20, r10
     ca8:	94 01       	movw	r18, r8
     caa:	c5 01       	movw	r24, r10
     cac:	b4 01       	movw	r22, r8
     cae:	0e 94 b1 2a 	call	0x5562	; 0x5562 <__mulsf3>
     cb2:	9b 01       	movw	r18, r22
     cb4:	ac 01       	movw	r20, r24
     cb6:	c7 01       	movw	r24, r14
     cb8:	b6 01       	movw	r22, r12
     cba:	0e 94 2c 28 	call	0x5058	; 0x5058 <__addsf3>
     cbe:	0e 94 56 01 	call	0x2ac	; 0x2ac <invSqrt>
     cc2:	6b 01       	movw	r12, r22
     cc4:	7c 01       	movw	r14, r24
		s1 *= recipNorm;
		s2 *= recipNorm;
		s3 *= recipNorm;

		// Apply feedback step
		qDot1 -= beta * s0;
     cc6:	40 90 04 01 	lds	r4, 0x0104	; 0x800104 <beta>
     cca:	50 90 05 01 	lds	r5, 0x0105	; 0x800105 <beta+0x1>
     cce:	60 90 06 01 	lds	r6, 0x0106	; 0x800106 <beta+0x2>
     cd2:	70 90 07 01 	lds	r7, 0x0107	; 0x800107 <beta+0x3>
     cd6:	9b 01       	movw	r18, r22
     cd8:	ac 01       	movw	r20, r24
     cda:	6d a1       	ldd	r22, Y+37	; 0x25
     cdc:	7e a1       	ldd	r23, Y+38	; 0x26
     cde:	8f a1       	ldd	r24, Y+39	; 0x27
     ce0:	98 a5       	ldd	r25, Y+40	; 0x28
     ce2:	0e 94 b1 2a 	call	0x5562	; 0x5562 <__mulsf3>
     ce6:	a3 01       	movw	r20, r6
     ce8:	92 01       	movw	r18, r4
     cea:	0e 94 b1 2a 	call	0x5562	; 0x5562 <__mulsf3>
     cee:	9b 01       	movw	r18, r22
     cf0:	ac 01       	movw	r20, r24
     cf2:	69 a5       	ldd	r22, Y+41	; 0x29
     cf4:	7a a5       	ldd	r23, Y+42	; 0x2a
     cf6:	8b a5       	ldd	r24, Y+43	; 0x2b
     cf8:	9c a5       	ldd	r25, Y+44	; 0x2c
     cfa:	0e 94 2b 28 	call	0x5056	; 0x5056 <__subsf3>
     cfe:	69 a7       	std	Y+41, r22	; 0x29
     d00:	7a a7       	std	Y+42, r23	; 0x2a
     d02:	8b a7       	std	Y+43, r24	; 0x2b
     d04:	9c a7       	std	Y+44, r25	; 0x2c
		qDot2 -= beta * s1;
     d06:	40 90 04 01 	lds	r4, 0x0104	; 0x800104 <beta>
     d0a:	50 90 05 01 	lds	r5, 0x0105	; 0x800105 <beta+0x1>
     d0e:	60 90 06 01 	lds	r6, 0x0106	; 0x800106 <beta+0x2>
     d12:	70 90 07 01 	lds	r7, 0x0107	; 0x800107 <beta+0x3>
     d16:	a7 01       	movw	r20, r14
     d18:	96 01       	movw	r18, r12
     d1a:	6d 85       	ldd	r22, Y+13	; 0x0d
     d1c:	7e 85       	ldd	r23, Y+14	; 0x0e
     d1e:	8f 85       	ldd	r24, Y+15	; 0x0f
     d20:	98 89       	ldd	r25, Y+16	; 0x10
     d22:	0e 94 b1 2a 	call	0x5562	; 0x5562 <__mulsf3>
     d26:	a3 01       	movw	r20, r6
     d28:	92 01       	movw	r18, r4
     d2a:	0e 94 b1 2a 	call	0x5562	; 0x5562 <__mulsf3>
     d2e:	9b 01       	movw	r18, r22
     d30:	ac 01       	movw	r20, r24
     d32:	6d 89       	ldd	r22, Y+21	; 0x15
     d34:	7e 89       	ldd	r23, Y+22	; 0x16
     d36:	8f 89       	ldd	r24, Y+23	; 0x17
     d38:	98 8d       	ldd	r25, Y+24	; 0x18
     d3a:	0e 94 2b 28 	call	0x5056	; 0x5056 <__subsf3>
     d3e:	6d 8b       	std	Y+21, r22	; 0x15
     d40:	7e 8b       	std	Y+22, r23	; 0x16
     d42:	8f 8b       	std	Y+23, r24	; 0x17
     d44:	98 8f       	std	Y+24, r25	; 0x18
		qDot3 -= beta * s2;
     d46:	40 90 04 01 	lds	r4, 0x0104	; 0x800104 <beta>
     d4a:	50 90 05 01 	lds	r5, 0x0105	; 0x800105 <beta+0x1>
     d4e:	60 90 06 01 	lds	r6, 0x0106	; 0x800106 <beta+0x2>
     d52:	70 90 07 01 	lds	r7, 0x0107	; 0x800107 <beta+0x3>
     d56:	a7 01       	movw	r20, r14
     d58:	96 01       	movw	r18, r12
     d5a:	69 a1       	ldd	r22, Y+33	; 0x21
     d5c:	7a a1       	ldd	r23, Y+34	; 0x22
     d5e:	8b a1       	ldd	r24, Y+35	; 0x23
     d60:	9c a1       	ldd	r25, Y+36	; 0x24
     d62:	0e 94 b1 2a 	call	0x5562	; 0x5562 <__mulsf3>
     d66:	a3 01       	movw	r20, r6
     d68:	92 01       	movw	r18, r4
     d6a:	0e 94 b1 2a 	call	0x5562	; 0x5562 <__mulsf3>
     d6e:	9b 01       	movw	r18, r22
     d70:	ac 01       	movw	r20, r24
     d72:	69 8d       	ldd	r22, Y+25	; 0x19
     d74:	7a 8d       	ldd	r23, Y+26	; 0x1a
     d76:	8b 8d       	ldd	r24, Y+27	; 0x1b
     d78:	9c 8d       	ldd	r25, Y+28	; 0x1c
     d7a:	0e 94 2b 28 	call	0x5056	; 0x5056 <__subsf3>
     d7e:	69 8f       	std	Y+25, r22	; 0x19
     d80:	7a 8f       	std	Y+26, r23	; 0x1a
     d82:	8b 8f       	std	Y+27, r24	; 0x1b
     d84:	9c 8f       	std	Y+28, r25	; 0x1c
		qDot4 -= beta * s3;
     d86:	40 90 04 01 	lds	r4, 0x0104	; 0x800104 <beta>
     d8a:	50 90 05 01 	lds	r5, 0x0105	; 0x800105 <beta+0x1>
     d8e:	60 90 06 01 	lds	r6, 0x0106	; 0x800106 <beta+0x2>
     d92:	70 90 07 01 	lds	r7, 0x0107	; 0x800107 <beta+0x3>
     d96:	a7 01       	movw	r20, r14
     d98:	96 01       	movw	r18, r12
     d9a:	c5 01       	movw	r24, r10
     d9c:	b4 01       	movw	r22, r8
     d9e:	0e 94 b1 2a 	call	0x5562	; 0x5562 <__mulsf3>
     da2:	a3 01       	movw	r20, r6
     da4:	92 01       	movw	r18, r4
     da6:	0e 94 b1 2a 	call	0x5562	; 0x5562 <__mulsf3>
     daa:	9b 01       	movw	r18, r22
     dac:	ac 01       	movw	r20, r24
     dae:	6d 8d       	ldd	r22, Y+29	; 0x1d
     db0:	7e 8d       	ldd	r23, Y+30	; 0x1e
     db2:	8f 8d       	ldd	r24, Y+31	; 0x1f
     db4:	98 a1       	ldd	r25, Y+32	; 0x20
     db6:	0e 94 2b 28 	call	0x5056	; 0x5056 <__subsf3>
     dba:	6d 8f       	std	Y+29, r22	; 0x1d
     dbc:	7e 8f       	std	Y+30, r23	; 0x1e
     dbe:	8f 8f       	std	Y+31, r24	; 0x1f
     dc0:	98 a3       	std	Y+32, r25	; 0x20
	}

	// Integrate rate of change of quaternion to yield quaternion
	q0 += qDot1 * dt;
     dc2:	20 91 4c 03 	lds	r18, 0x034C	; 0x80034c <__data_end>
     dc6:	30 91 4d 03 	lds	r19, 0x034D	; 0x80034d <__data_end+0x1>
     dca:	40 91 4e 03 	lds	r20, 0x034E	; 0x80034e <__data_end+0x2>
     dce:	50 91 4f 03 	lds	r21, 0x034F	; 0x80034f <__data_end+0x3>
     dd2:	c0 90 00 01 	lds	r12, 0x0100	; 0x800100 <__data_start>
     dd6:	d0 90 01 01 	lds	r13, 0x0101	; 0x800101 <__data_start+0x1>
     dda:	e0 90 02 01 	lds	r14, 0x0102	; 0x800102 <__data_start+0x2>
     dde:	f0 90 03 01 	lds	r15, 0x0103	; 0x800103 <__data_start+0x3>
     de2:	69 a5       	ldd	r22, Y+41	; 0x29
     de4:	7a a5       	ldd	r23, Y+42	; 0x2a
     de6:	8b a5       	ldd	r24, Y+43	; 0x2b
     de8:	9c a5       	ldd	r25, Y+44	; 0x2c
     dea:	0e 94 b1 2a 	call	0x5562	; 0x5562 <__mulsf3>
     dee:	a7 01       	movw	r20, r14
     df0:	96 01       	movw	r18, r12
     df2:	0e 94 2c 28 	call	0x5058	; 0x5058 <__addsf3>
     df6:	60 93 00 01 	sts	0x0100, r22	; 0x800100 <__data_start>
     dfa:	70 93 01 01 	sts	0x0101, r23	; 0x800101 <__data_start+0x1>
     dfe:	80 93 02 01 	sts	0x0102, r24	; 0x800102 <__data_start+0x2>
     e02:	90 93 03 01 	sts	0x0103, r25	; 0x800103 <__data_start+0x3>
	q1 += qDot2 * dt;
     e06:	20 91 4c 03 	lds	r18, 0x034C	; 0x80034c <__data_end>
     e0a:	30 91 4d 03 	lds	r19, 0x034D	; 0x80034d <__data_end+0x1>
     e0e:	40 91 4e 03 	lds	r20, 0x034E	; 0x80034e <__data_end+0x2>
     e12:	50 91 4f 03 	lds	r21, 0x034F	; 0x80034f <__data_end+0x3>
     e16:	c0 90 64 03 	lds	r12, 0x0364	; 0x800364 <q1>
     e1a:	d0 90 65 03 	lds	r13, 0x0365	; 0x800365 <q1+0x1>
     e1e:	e0 90 66 03 	lds	r14, 0x0366	; 0x800366 <q1+0x2>
     e22:	f0 90 67 03 	lds	r15, 0x0367	; 0x800367 <q1+0x3>
     e26:	6d 89       	ldd	r22, Y+21	; 0x15
     e28:	7e 89       	ldd	r23, Y+22	; 0x16
     e2a:	8f 89       	ldd	r24, Y+23	; 0x17
     e2c:	98 8d       	ldd	r25, Y+24	; 0x18
     e2e:	0e 94 b1 2a 	call	0x5562	; 0x5562 <__mulsf3>
     e32:	a7 01       	movw	r20, r14
     e34:	96 01       	movw	r18, r12
     e36:	0e 94 2c 28 	call	0x5058	; 0x5058 <__addsf3>
     e3a:	60 93 64 03 	sts	0x0364, r22	; 0x800364 <q1>
     e3e:	70 93 65 03 	sts	0x0365, r23	; 0x800365 <q1+0x1>
     e42:	80 93 66 03 	sts	0x0366, r24	; 0x800366 <q1+0x2>
     e46:	90 93 67 03 	sts	0x0367, r25	; 0x800367 <q1+0x3>
	q2 += qDot3 * dt;
     e4a:	20 91 4c 03 	lds	r18, 0x034C	; 0x80034c <__data_end>
     e4e:	30 91 4d 03 	lds	r19, 0x034D	; 0x80034d <__data_end+0x1>
     e52:	40 91 4e 03 	lds	r20, 0x034E	; 0x80034e <__data_end+0x2>
     e56:	50 91 4f 03 	lds	r21, 0x034F	; 0x80034f <__data_end+0x3>
     e5a:	c0 90 60 03 	lds	r12, 0x0360	; 0x800360 <q2>
     e5e:	d0 90 61 03 	lds	r13, 0x0361	; 0x800361 <q2+0x1>
     e62:	e0 90 62 03 	lds	r14, 0x0362	; 0x800362 <q2+0x2>
     e66:	f0 90 63 03 	lds	r15, 0x0363	; 0x800363 <q2+0x3>
     e6a:	69 8d       	ldd	r22, Y+25	; 0x19
     e6c:	7a 8d       	ldd	r23, Y+26	; 0x1a
     e6e:	8b 8d       	ldd	r24, Y+27	; 0x1b
     e70:	9c 8d       	ldd	r25, Y+28	; 0x1c
     e72:	0e 94 b1 2a 	call	0x5562	; 0x5562 <__mulsf3>
     e76:	a7 01       	movw	r20, r14
     e78:	96 01       	movw	r18, r12
     e7a:	0e 94 2c 28 	call	0x5058	; 0x5058 <__addsf3>
     e7e:	60 93 60 03 	sts	0x0360, r22	; 0x800360 <q2>
     e82:	70 93 61 03 	sts	0x0361, r23	; 0x800361 <q2+0x1>
     e86:	80 93 62 03 	sts	0x0362, r24	; 0x800362 <q2+0x2>
     e8a:	90 93 63 03 	sts	0x0363, r25	; 0x800363 <q2+0x3>
	q3 += qDot4 * dt;
     e8e:	20 91 4c 03 	lds	r18, 0x034C	; 0x80034c <__data_end>
     e92:	30 91 4d 03 	lds	r19, 0x034D	; 0x80034d <__data_end+0x1>
     e96:	40 91 4e 03 	lds	r20, 0x034E	; 0x80034e <__data_end+0x2>
     e9a:	50 91 4f 03 	lds	r21, 0x034F	; 0x80034f <__data_end+0x3>
     e9e:	c0 90 5c 03 	lds	r12, 0x035C	; 0x80035c <q3>
     ea2:	d0 90 5d 03 	lds	r13, 0x035D	; 0x80035d <q3+0x1>
     ea6:	e0 90 5e 03 	lds	r14, 0x035E	; 0x80035e <q3+0x2>
     eaa:	f0 90 5f 03 	lds	r15, 0x035F	; 0x80035f <q3+0x3>
     eae:	6d 8d       	ldd	r22, Y+29	; 0x1d
     eb0:	7e 8d       	ldd	r23, Y+30	; 0x1e
     eb2:	8f 8d       	ldd	r24, Y+31	; 0x1f
     eb4:	98 a1       	ldd	r25, Y+32	; 0x20
     eb6:	0e 94 b1 2a 	call	0x5562	; 0x5562 <__mulsf3>
     eba:	a7 01       	movw	r20, r14
     ebc:	96 01       	movw	r18, r12
     ebe:	0e 94 2c 28 	call	0x5058	; 0x5058 <__addsf3>
     ec2:	60 93 5c 03 	sts	0x035C, r22	; 0x80035c <q3>
     ec6:	70 93 5d 03 	sts	0x035D, r23	; 0x80035d <q3+0x1>
     eca:	80 93 5e 03 	sts	0x035E, r24	; 0x80035e <q3+0x2>
     ece:	90 93 5f 03 	sts	0x035F, r25	; 0x80035f <q3+0x3>

	// Normalise quaternion
	recipNorm = invSqrt(q0 * q0 + q1 * q1 + q2 * q2 + q3 * q3);
     ed2:	60 91 00 01 	lds	r22, 0x0100	; 0x800100 <__data_start>
     ed6:	70 91 01 01 	lds	r23, 0x0101	; 0x800101 <__data_start+0x1>
     eda:	80 91 02 01 	lds	r24, 0x0102	; 0x800102 <__data_start+0x2>
     ede:	90 91 03 01 	lds	r25, 0x0103	; 0x800103 <__data_start+0x3>
     ee2:	20 91 00 01 	lds	r18, 0x0100	; 0x800100 <__data_start>
     ee6:	30 91 01 01 	lds	r19, 0x0101	; 0x800101 <__data_start+0x1>
     eea:	40 91 02 01 	lds	r20, 0x0102	; 0x800102 <__data_start+0x2>
     eee:	50 91 03 01 	lds	r21, 0x0103	; 0x800103 <__data_start+0x3>
     ef2:	80 90 64 03 	lds	r8, 0x0364	; 0x800364 <q1>
     ef6:	90 90 65 03 	lds	r9, 0x0365	; 0x800365 <q1+0x1>
     efa:	a0 90 66 03 	lds	r10, 0x0366	; 0x800366 <q1+0x2>
     efe:	b0 90 67 03 	lds	r11, 0x0367	; 0x800367 <q1+0x3>
     f02:	40 90 64 03 	lds	r4, 0x0364	; 0x800364 <q1>
     f06:	50 90 65 03 	lds	r5, 0x0365	; 0x800365 <q1+0x1>
     f0a:	60 90 66 03 	lds	r6, 0x0366	; 0x800366 <q1+0x2>
     f0e:	70 90 67 03 	lds	r7, 0x0367	; 0x800367 <q1+0x3>
     f12:	e0 90 60 03 	lds	r14, 0x0360	; 0x800360 <q2>
     f16:	f0 90 61 03 	lds	r15, 0x0361	; 0x800361 <q2+0x1>
     f1a:	00 91 62 03 	lds	r16, 0x0362	; 0x800362 <q2+0x2>
     f1e:	10 91 63 03 	lds	r17, 0x0363	; 0x800363 <q2+0x3>
     f22:	ed 82       	std	Y+5, r14	; 0x05
     f24:	fe 82       	std	Y+6, r15	; 0x06
     f26:	0f 83       	std	Y+7, r16	; 0x07
     f28:	18 87       	std	Y+8, r17	; 0x08
     f2a:	e0 90 60 03 	lds	r14, 0x0360	; 0x800360 <q2>
     f2e:	f0 90 61 03 	lds	r15, 0x0361	; 0x800361 <q2+0x1>
     f32:	00 91 62 03 	lds	r16, 0x0362	; 0x800362 <q2+0x2>
     f36:	10 91 63 03 	lds	r17, 0x0363	; 0x800363 <q2+0x3>
     f3a:	e9 86       	std	Y+9, r14	; 0x09
     f3c:	fa 86       	std	Y+10, r15	; 0x0a
     f3e:	0b 87       	std	Y+11, r16	; 0x0b
     f40:	1c 87       	std	Y+12, r17	; 0x0c
     f42:	e0 90 5c 03 	lds	r14, 0x035C	; 0x80035c <q3>
     f46:	f0 90 5d 03 	lds	r15, 0x035D	; 0x80035d <q3+0x1>
     f4a:	00 91 5e 03 	lds	r16, 0x035E	; 0x80035e <q3+0x2>
     f4e:	10 91 5f 03 	lds	r17, 0x035F	; 0x80035f <q3+0x3>
     f52:	ed 86       	std	Y+13, r14	; 0x0d
     f54:	fe 86       	std	Y+14, r15	; 0x0e
     f56:	0f 87       	std	Y+15, r16	; 0x0f
     f58:	18 8b       	std	Y+16, r17	; 0x10
     f5a:	e0 90 5c 03 	lds	r14, 0x035C	; 0x80035c <q3>
     f5e:	f0 90 5d 03 	lds	r15, 0x035D	; 0x80035d <q3+0x1>
     f62:	00 91 5e 03 	lds	r16, 0x035E	; 0x80035e <q3+0x2>
     f66:	10 91 5f 03 	lds	r17, 0x035F	; 0x80035f <q3+0x3>
     f6a:	e9 82       	std	Y+1, r14	; 0x01
     f6c:	fa 82       	std	Y+2, r15	; 0x02
     f6e:	0b 83       	std	Y+3, r16	; 0x03
     f70:	1c 83       	std	Y+4, r17	; 0x04
     f72:	0e 94 b1 2a 	call	0x5562	; 0x5562 <__mulsf3>
     f76:	6b 01       	movw	r12, r22
     f78:	7c 01       	movw	r14, r24
     f7a:	a3 01       	movw	r20, r6
     f7c:	92 01       	movw	r18, r4
     f7e:	c5 01       	movw	r24, r10
     f80:	b4 01       	movw	r22, r8
     f82:	0e 94 b1 2a 	call	0x5562	; 0x5562 <__mulsf3>
     f86:	9b 01       	movw	r18, r22
     f88:	ac 01       	movw	r20, r24
     f8a:	c7 01       	movw	r24, r14
     f8c:	b6 01       	movw	r22, r12
     f8e:	0e 94 2c 28 	call	0x5058	; 0x5058 <__addsf3>
     f92:	4b 01       	movw	r8, r22
     f94:	5c 01       	movw	r10, r24
     f96:	29 85       	ldd	r18, Y+9	; 0x09
     f98:	3a 85       	ldd	r19, Y+10	; 0x0a
     f9a:	4b 85       	ldd	r20, Y+11	; 0x0b
     f9c:	5c 85       	ldd	r21, Y+12	; 0x0c
     f9e:	6d 81       	ldd	r22, Y+5	; 0x05
     fa0:	7e 81       	ldd	r23, Y+6	; 0x06
     fa2:	8f 81       	ldd	r24, Y+7	; 0x07
     fa4:	98 85       	ldd	r25, Y+8	; 0x08
     fa6:	0e 94 b1 2a 	call	0x5562	; 0x5562 <__mulsf3>
     faa:	9b 01       	movw	r18, r22
     fac:	ac 01       	movw	r20, r24
     fae:	c5 01       	movw	r24, r10
     fb0:	b4 01       	movw	r22, r8
     fb2:	0e 94 2c 28 	call	0x5058	; 0x5058 <__addsf3>
     fb6:	4b 01       	movw	r8, r22
     fb8:	5c 01       	movw	r10, r24
     fba:	29 81       	ldd	r18, Y+1	; 0x01
     fbc:	3a 81       	ldd	r19, Y+2	; 0x02
     fbe:	4b 81       	ldd	r20, Y+3	; 0x03
     fc0:	5c 81       	ldd	r21, Y+4	; 0x04
     fc2:	6d 85       	ldd	r22, Y+13	; 0x0d
     fc4:	7e 85       	ldd	r23, Y+14	; 0x0e
     fc6:	8f 85       	ldd	r24, Y+15	; 0x0f
     fc8:	98 89       	ldd	r25, Y+16	; 0x10
     fca:	0e 94 b1 2a 	call	0x5562	; 0x5562 <__mulsf3>
     fce:	9b 01       	movw	r18, r22
     fd0:	ac 01       	movw	r20, r24
     fd2:	c5 01       	movw	r24, r10
     fd4:	b4 01       	movw	r22, r8
     fd6:	0e 94 2c 28 	call	0x5058	; 0x5058 <__addsf3>
     fda:	0e 94 56 01 	call	0x2ac	; 0x2ac <invSqrt>
     fde:	6b 01       	movw	r12, r22
     fe0:	7c 01       	movw	r14, r24
	q0 *= recipNorm;
     fe2:	20 91 00 01 	lds	r18, 0x0100	; 0x800100 <__data_start>
     fe6:	30 91 01 01 	lds	r19, 0x0101	; 0x800101 <__data_start+0x1>
     fea:	40 91 02 01 	lds	r20, 0x0102	; 0x800102 <__data_start+0x2>
     fee:	50 91 03 01 	lds	r21, 0x0103	; 0x800103 <__data_start+0x3>
     ff2:	0e 94 b1 2a 	call	0x5562	; 0x5562 <__mulsf3>
     ff6:	60 93 00 01 	sts	0x0100, r22	; 0x800100 <__data_start>
     ffa:	70 93 01 01 	sts	0x0101, r23	; 0x800101 <__data_start+0x1>
     ffe:	80 93 02 01 	sts	0x0102, r24	; 0x800102 <__data_start+0x2>
    1002:	90 93 03 01 	sts	0x0103, r25	; 0x800103 <__data_start+0x3>
	q1 *= recipNorm;
    1006:	20 91 64 03 	lds	r18, 0x0364	; 0x800364 <q1>
    100a:	30 91 65 03 	lds	r19, 0x0365	; 0x800365 <q1+0x1>
    100e:	40 91 66 03 	lds	r20, 0x0366	; 0x800366 <q1+0x2>
    1012:	50 91 67 03 	lds	r21, 0x0367	; 0x800367 <q1+0x3>
    1016:	c7 01       	movw	r24, r14
    1018:	b6 01       	movw	r22, r12
    101a:	0e 94 b1 2a 	call	0x5562	; 0x5562 <__mulsf3>
    101e:	60 93 64 03 	sts	0x0364, r22	; 0x800364 <q1>
    1022:	70 93 65 03 	sts	0x0365, r23	; 0x800365 <q1+0x1>
    1026:	80 93 66 03 	sts	0x0366, r24	; 0x800366 <q1+0x2>
    102a:	90 93 67 03 	sts	0x0367, r25	; 0x800367 <q1+0x3>
	q2 *= recipNorm;
    102e:	20 91 60 03 	lds	r18, 0x0360	; 0x800360 <q2>
    1032:	30 91 61 03 	lds	r19, 0x0361	; 0x800361 <q2+0x1>
    1036:	40 91 62 03 	lds	r20, 0x0362	; 0x800362 <q2+0x2>
    103a:	50 91 63 03 	lds	r21, 0x0363	; 0x800363 <q2+0x3>
    103e:	c7 01       	movw	r24, r14
    1040:	b6 01       	movw	r22, r12
    1042:	0e 94 b1 2a 	call	0x5562	; 0x5562 <__mulsf3>
    1046:	60 93 60 03 	sts	0x0360, r22	; 0x800360 <q2>
    104a:	70 93 61 03 	sts	0x0361, r23	; 0x800361 <q2+0x1>
    104e:	80 93 62 03 	sts	0x0362, r24	; 0x800362 <q2+0x2>
    1052:	90 93 63 03 	sts	0x0363, r25	; 0x800363 <q2+0x3>
	q3 *= recipNorm;
    1056:	20 91 5c 03 	lds	r18, 0x035C	; 0x80035c <q3>
    105a:	30 91 5d 03 	lds	r19, 0x035D	; 0x80035d <q3+0x1>
    105e:	40 91 5e 03 	lds	r20, 0x035E	; 0x80035e <q3+0x2>
    1062:	50 91 5f 03 	lds	r21, 0x035F	; 0x80035f <q3+0x3>
    1066:	c7 01       	movw	r24, r14
    1068:	b6 01       	movw	r22, r12
    106a:	0e 94 b1 2a 	call	0x5562	; 0x5562 <__mulsf3>
    106e:	60 93 5c 03 	sts	0x035C, r22	; 0x80035c <q3>
    1072:	70 93 5d 03 	sts	0x035D, r23	; 0x80035d <q3+0x1>
    1076:	80 93 5e 03 	sts	0x035E, r24	; 0x80035e <q3+0x2>
    107a:	90 93 5f 03 	sts	0x035F, r25	; 0x80035f <q3+0x3>
}
    107e:	c4 5b       	subi	r28, 0xB4	; 180
    1080:	df 4f       	sbci	r29, 0xFF	; 255
    1082:	0f b6       	in	r0, 0x3f	; 63
    1084:	f8 94       	cli
    1086:	de bf       	out	0x3e, r29	; 62
    1088:	0f be       	out	0x3f, r0	; 63
    108a:	cd bf       	out	0x3d, r28	; 61
    108c:	df 91       	pop	r29
    108e:	cf 91       	pop	r28
    1090:	1f 91       	pop	r17
    1092:	0f 91       	pop	r16
    1094:	ff 90       	pop	r15
    1096:	ef 90       	pop	r14
    1098:	df 90       	pop	r13
    109a:	cf 90       	pop	r12
    109c:	bf 90       	pop	r11
    109e:	af 90       	pop	r10
    10a0:	9f 90       	pop	r9
    10a2:	8f 90       	pop	r8
    10a4:	7f 90       	pop	r7
    10a6:	6f 90       	pop	r6
    10a8:	5f 90       	pop	r5
    10aa:	4f 90       	pop	r4
    10ac:	08 95       	ret

000010ae <MadgwickAHRSupdate>:
// Functions

//---------------------------------------------------------------------------------------------------
// AHRS algorithm update

void MadgwickAHRSupdate(float gx, float gy, float gz, float ax, float ay, float az, float mx, float my, float mz) {
    10ae:	2f 92       	push	r2
    10b0:	3f 92       	push	r3
    10b2:	4f 92       	push	r4
    10b4:	5f 92       	push	r5
    10b6:	6f 92       	push	r6
    10b8:	7f 92       	push	r7
    10ba:	8f 92       	push	r8
    10bc:	9f 92       	push	r9
    10be:	af 92       	push	r10
    10c0:	bf 92       	push	r11
    10c2:	cf 92       	push	r12
    10c4:	df 92       	push	r13
    10c6:	ef 92       	push	r14
    10c8:	ff 92       	push	r15
    10ca:	0f 93       	push	r16
    10cc:	1f 93       	push	r17
    10ce:	cf 93       	push	r28
    10d0:	df 93       	push	r29
    10d2:	cd b7       	in	r28, 0x3d	; 61
    10d4:	de b7       	in	r29, 0x3e	; 62
    10d6:	c4 59       	subi	r28, 0x94	; 148
    10d8:	d1 09       	sbc	r29, r1
    10da:	0f b6       	in	r0, 0x3f	; 63
    10dc:	f8 94       	cli
    10de:	de bf       	out	0x3e, r29	; 62
    10e0:	0f be       	out	0x3f, r0	; 63
    10e2:	cd bf       	out	0x3d, r28	; 61
    10e4:	69 83       	std	Y+1, r22	; 0x01
    10e6:	7a 83       	std	Y+2, r23	; 0x02
    10e8:	8b 83       	std	Y+3, r24	; 0x03
    10ea:	9c 83       	std	Y+4, r25	; 0x04
    10ec:	29 87       	std	Y+9, r18	; 0x09
    10ee:	3a 87       	std	Y+10, r19	; 0x0a
    10f0:	4b 87       	std	Y+11, r20	; 0x0b
    10f2:	5c 87       	std	Y+12, r21	; 0x0c
    10f4:	ed 82       	std	Y+5, r14	; 0x05
    10f6:	fe 82       	std	Y+6, r15	; 0x06
    10f8:	0f 83       	std	Y+7, r16	; 0x07
    10fa:	18 87       	std	Y+8, r17	; 0x08
    10fc:	c7 55       	subi	r28, 0x57	; 87
    10fe:	df 4f       	sbci	r29, 0xFF	; 255
    1100:	18 81       	ld	r17, Y
    1102:	c9 5a       	subi	r28, 0xA9	; 169
    1104:	d0 40       	sbci	r29, 0x00	; 0
    1106:	c6 55       	subi	r28, 0x56	; 86
    1108:	df 4f       	sbci	r29, 0xFF	; 255
    110a:	08 81       	ld	r16, Y
    110c:	ca 5a       	subi	r28, 0xAA	; 170
    110e:	d0 40       	sbci	r29, 0x00	; 0
    1110:	c5 55       	subi	r28, 0x55	; 85
    1112:	df 4f       	sbci	r29, 0xFF	; 255
    1114:	38 80       	ld	r3, Y
    1116:	cb 5a       	subi	r28, 0xAB	; 171
    1118:	d0 40       	sbci	r29, 0x00	; 0
    111a:	c4 55       	subi	r28, 0x54	; 84
    111c:	df 4f       	sbci	r29, 0xFF	; 255
    111e:	28 80       	ld	r2, Y
    1120:	cc 5a       	subi	r28, 0xAC	; 172
    1122:	d0 40       	sbci	r29, 0x00	; 0
    1124:	c3 55       	subi	r28, 0x53	; 83
    1126:	df 4f       	sbci	r29, 0xFF	; 255
    1128:	e8 80       	ld	r14, Y
    112a:	cd 5a       	subi	r28, 0xAD	; 173
    112c:	d0 40       	sbci	r29, 0x00	; 0
    112e:	e9 8a       	std	Y+17, r14	; 0x11
    1130:	c2 55       	subi	r28, 0x52	; 82
    1132:	df 4f       	sbci	r29, 0xFF	; 255
    1134:	f8 80       	ld	r15, Y
    1136:	ce 5a       	subi	r28, 0xAE	; 174
    1138:	d0 40       	sbci	r29, 0x00	; 0
    113a:	fd 8e       	std	Y+29, r15	; 0x1d
    113c:	c1 55       	subi	r28, 0x51	; 81
    113e:	df 4f       	sbci	r29, 0xFF	; 255
    1140:	e8 80       	ld	r14, Y
    1142:	cf 5a       	subi	r28, 0xAF	; 175
    1144:	d0 40       	sbci	r29, 0x00	; 0
    1146:	e9 aa       	std	Y+49, r14	; 0x31
    1148:	c0 55       	subi	r28, 0x50	; 80
    114a:	df 4f       	sbci	r29, 0xFF	; 255
    114c:	f8 80       	ld	r15, Y
    114e:	c0 5b       	subi	r28, 0xB0	; 176
    1150:	d0 40       	sbci	r29, 0x00	; 0
    1152:	fd aa       	std	Y+53, r15	; 0x35
	float qDot1, qDot2, qDot3, qDot4;
	float hx, hy;
	float _2q0mx, _2q0my, _2q0mz, _2q1mx, _2bx, _2bz, _4bx, _4bz, _2q0, _2q1, _2q2, _2q3, _2q0q2, _2q2q3, q0q0, q0q1, q0q2, q0q3, q1q1, q1q2, q1q3, q2q2, q2q3, q3q3;

	// Use IMU algorithm if magnetometer measurement invalid (avoids NaN in magnetometer normalisation)
	if((mx == 0.0f) && (my == 0.0f) && (mz == 0.0f)) {
    1154:	20 e0       	ldi	r18, 0x00	; 0
    1156:	30 e0       	ldi	r19, 0x00	; 0
    1158:	a9 01       	movw	r20, r18
    115a:	cf 54       	subi	r28, 0x4F	; 79
    115c:	df 4f       	sbci	r29, 0xFF	; 255
    115e:	68 81       	ld	r22, Y
    1160:	79 81       	ldd	r23, Y+1	; 0x01
    1162:	8a 81       	ldd	r24, Y+2	; 0x02
    1164:	9b 81       	ldd	r25, Y+3	; 0x03
    1166:	c1 5b       	subi	r28, 0xB1	; 177
    1168:	d0 40       	sbci	r29, 0x00	; 0
    116a:	0e 94 25 29 	call	0x524a	; 0x524a <__cmpsf2>
    116e:	81 11       	cpse	r24, r1
    1170:	3d c0       	rjmp	.+122    	; 0x11ec <MadgwickAHRSupdate+0x13e>
    1172:	20 e0       	ldi	r18, 0x00	; 0
    1174:	30 e0       	ldi	r19, 0x00	; 0
    1176:	a9 01       	movw	r20, r18
    1178:	cb 54       	subi	r28, 0x4B	; 75
    117a:	df 4f       	sbci	r29, 0xFF	; 255
    117c:	68 81       	ld	r22, Y
    117e:	79 81       	ldd	r23, Y+1	; 0x01
    1180:	8a 81       	ldd	r24, Y+2	; 0x02
    1182:	9b 81       	ldd	r25, Y+3	; 0x03
    1184:	c5 5b       	subi	r28, 0xB5	; 181
    1186:	d0 40       	sbci	r29, 0x00	; 0
    1188:	0e 94 25 29 	call	0x524a	; 0x524a <__cmpsf2>
    118c:	81 11       	cpse	r24, r1
    118e:	2e c0       	rjmp	.+92     	; 0x11ec <MadgwickAHRSupdate+0x13e>
    1190:	20 e0       	ldi	r18, 0x00	; 0
    1192:	30 e0       	ldi	r19, 0x00	; 0
    1194:	a9 01       	movw	r20, r18
    1196:	c7 54       	subi	r28, 0x47	; 71
    1198:	df 4f       	sbci	r29, 0xFF	; 255
    119a:	68 81       	ld	r22, Y
    119c:	79 81       	ldd	r23, Y+1	; 0x01
    119e:	8a 81       	ldd	r24, Y+2	; 0x02
    11a0:	9b 81       	ldd	r25, Y+3	; 0x03
    11a2:	c9 5b       	subi	r28, 0xB9	; 185
    11a4:	d0 40       	sbci	r29, 0x00	; 0
    11a6:	0e 94 25 29 	call	0x524a	; 0x524a <__cmpsf2>
    11aa:	81 11       	cpse	r24, r1
    11ac:	1f c0       	rjmp	.+62     	; 0x11ec <MadgwickAHRSupdate+0x13e>
		MadgwickAHRSupdateIMU(gx, gy, gz, ax, ay, az);
    11ae:	ff 92       	push	r15
    11b0:	ef 92       	push	r14
    11b2:	ed 8c       	ldd	r14, Y+29	; 0x1d
    11b4:	ef 92       	push	r14
    11b6:	f9 88       	ldd	r15, Y+17	; 0x11
    11b8:	ff 92       	push	r15
    11ba:	2f 92       	push	r2
    11bc:	3f 92       	push	r3
    11be:	0f 93       	push	r16
    11c0:	1f 93       	push	r17
    11c2:	ed 80       	ldd	r14, Y+5	; 0x05
    11c4:	fe 80       	ldd	r15, Y+6	; 0x06
    11c6:	0f 81       	ldd	r16, Y+7	; 0x07
    11c8:	18 85       	ldd	r17, Y+8	; 0x08
    11ca:	29 85       	ldd	r18, Y+9	; 0x09
    11cc:	3a 85       	ldd	r19, Y+10	; 0x0a
    11ce:	4b 85       	ldd	r20, Y+11	; 0x0b
    11d0:	5c 85       	ldd	r21, Y+12	; 0x0c
    11d2:	69 81       	ldd	r22, Y+1	; 0x01
    11d4:	7a 81       	ldd	r23, Y+2	; 0x02
    11d6:	8b 81       	ldd	r24, Y+3	; 0x03
    11d8:	9c 81       	ldd	r25, Y+4	; 0x04
    11da:	0e 94 91 01 	call	0x322	; 0x322 <MadgwickAHRSupdateIMU>
		return;
    11de:	0f b6       	in	r0, 0x3f	; 63
    11e0:	f8 94       	cli
    11e2:	de bf       	out	0x3e, r29	; 62
    11e4:	0f be       	out	0x3f, r0	; 63
    11e6:	cd bf       	out	0x3d, r28	; 61
    11e8:	0c 94 5d 16 	jmp	0x2cba	; 0x2cba <MadgwickAHRSupdate+0x1c0c>
	}

	// Rate of change of quaternion from gyroscope
	qDot1 = 0.5f * (-q1 * gx - q2 * gy - q3 * gz);
    11ec:	80 91 64 03 	lds	r24, 0x0364	; 0x800364 <q1>
    11f0:	90 91 65 03 	lds	r25, 0x0365	; 0x800365 <q1+0x1>
    11f4:	a0 91 66 03 	lds	r26, 0x0366	; 0x800366 <q1+0x2>
    11f8:	b0 91 67 03 	lds	r27, 0x0367	; 0x800367 <q1+0x3>
    11fc:	40 90 60 03 	lds	r4, 0x0360	; 0x800360 <q2>
    1200:	50 90 61 03 	lds	r5, 0x0361	; 0x800361 <q2+0x1>
    1204:	60 90 62 03 	lds	r6, 0x0362	; 0x800362 <q2+0x2>
    1208:	70 90 63 03 	lds	r7, 0x0363	; 0x800363 <q2+0x3>
    120c:	20 91 5c 03 	lds	r18, 0x035C	; 0x80035c <q3>
    1210:	30 91 5d 03 	lds	r19, 0x035D	; 0x80035d <q3+0x1>
    1214:	40 91 5e 03 	lds	r20, 0x035E	; 0x80035e <q3+0x2>
    1218:	50 91 5f 03 	lds	r21, 0x035F	; 0x80035f <q3+0x3>
    121c:	29 a3       	std	Y+33, r18	; 0x21
    121e:	3a a3       	std	Y+34, r19	; 0x22
    1220:	4b a3       	std	Y+35, r20	; 0x23
    1222:	5c a3       	std	Y+36, r21	; 0x24
    1224:	bc 01       	movw	r22, r24
    1226:	cd 01       	movw	r24, r26
    1228:	90 58       	subi	r25, 0x80	; 128
    122a:	29 81       	ldd	r18, Y+1	; 0x01
    122c:	3a 81       	ldd	r19, Y+2	; 0x02
    122e:	4b 81       	ldd	r20, Y+3	; 0x03
    1230:	5c 81       	ldd	r21, Y+4	; 0x04
    1232:	0e 94 b1 2a 	call	0x5562	; 0x5562 <__mulsf3>
    1236:	6d a3       	std	Y+37, r22	; 0x25
    1238:	7e a3       	std	Y+38, r23	; 0x26
    123a:	8f a3       	std	Y+39, r24	; 0x27
    123c:	98 a7       	std	Y+40, r25	; 0x28
    123e:	a3 01       	movw	r20, r6
    1240:	92 01       	movw	r18, r4
    1242:	69 85       	ldd	r22, Y+9	; 0x09
    1244:	7a 85       	ldd	r23, Y+10	; 0x0a
    1246:	8b 85       	ldd	r24, Y+11	; 0x0b
    1248:	9c 85       	ldd	r25, Y+12	; 0x0c
    124a:	0e 94 b1 2a 	call	0x5562	; 0x5562 <__mulsf3>
    124e:	9b 01       	movw	r18, r22
    1250:	ac 01       	movw	r20, r24
    1252:	6d a1       	ldd	r22, Y+37	; 0x25
    1254:	7e a1       	ldd	r23, Y+38	; 0x26
    1256:	8f a1       	ldd	r24, Y+39	; 0x27
    1258:	98 a5       	ldd	r25, Y+40	; 0x28
    125a:	0e 94 2b 28 	call	0x5056	; 0x5056 <__subsf3>
    125e:	2b 01       	movw	r4, r22
    1260:	3c 01       	movw	r6, r24
    1262:	29 a1       	ldd	r18, Y+33	; 0x21
    1264:	3a a1       	ldd	r19, Y+34	; 0x22
    1266:	4b a1       	ldd	r20, Y+35	; 0x23
    1268:	5c a1       	ldd	r21, Y+36	; 0x24
    126a:	6d 81       	ldd	r22, Y+5	; 0x05
    126c:	7e 81       	ldd	r23, Y+6	; 0x06
    126e:	8f 81       	ldd	r24, Y+7	; 0x07
    1270:	98 85       	ldd	r25, Y+8	; 0x08
    1272:	0e 94 b1 2a 	call	0x5562	; 0x5562 <__mulsf3>
    1276:	9b 01       	movw	r18, r22
    1278:	ac 01       	movw	r20, r24
    127a:	c3 01       	movw	r24, r6
    127c:	b2 01       	movw	r22, r4
    127e:	0e 94 2b 28 	call	0x5056	; 0x5056 <__subsf3>
    1282:	20 e0       	ldi	r18, 0x00	; 0
    1284:	30 e0       	ldi	r19, 0x00	; 0
    1286:	40 e0       	ldi	r20, 0x00	; 0
    1288:	5f e3       	ldi	r21, 0x3F	; 63
    128a:	0e 94 b1 2a 	call	0x5562	; 0x5562 <__mulsf3>
    128e:	69 96       	adiw	r28, 0x19	; 25
    1290:	6c af       	std	Y+60, r22	; 0x3c
    1292:	7d af       	std	Y+61, r23	; 0x3d
    1294:	8e af       	std	Y+62, r24	; 0x3e
    1296:	9f af       	std	Y+63, r25	; 0x3f
    1298:	69 97       	sbiw	r28, 0x19	; 25
	qDot2 = 0.5f * (q0 * gx + q2 * gz - q3 * gy);
    129a:	20 91 00 01 	lds	r18, 0x0100	; 0x800100 <__data_start>
    129e:	30 91 01 01 	lds	r19, 0x0101	; 0x800101 <__data_start+0x1>
    12a2:	40 91 02 01 	lds	r20, 0x0102	; 0x800102 <__data_start+0x2>
    12a6:	50 91 03 01 	lds	r21, 0x0103	; 0x800103 <__data_start+0x3>
    12aa:	40 90 60 03 	lds	r4, 0x0360	; 0x800360 <q2>
    12ae:	50 90 61 03 	lds	r5, 0x0361	; 0x800361 <q2+0x1>
    12b2:	60 90 62 03 	lds	r6, 0x0362	; 0x800362 <q2+0x2>
    12b6:	70 90 63 03 	lds	r7, 0x0363	; 0x800363 <q2+0x3>
    12ba:	80 91 5c 03 	lds	r24, 0x035C	; 0x80035c <q3>
    12be:	90 91 5d 03 	lds	r25, 0x035D	; 0x80035d <q3+0x1>
    12c2:	a0 91 5e 03 	lds	r26, 0x035E	; 0x80035e <q3+0x2>
    12c6:	b0 91 5f 03 	lds	r27, 0x035F	; 0x80035f <q3+0x3>
    12ca:	89 a3       	std	Y+33, r24	; 0x21
    12cc:	9a a3       	std	Y+34, r25	; 0x22
    12ce:	ab a3       	std	Y+35, r26	; 0x23
    12d0:	bc a3       	std	Y+36, r27	; 0x24
    12d2:	69 81       	ldd	r22, Y+1	; 0x01
    12d4:	7a 81       	ldd	r23, Y+2	; 0x02
    12d6:	8b 81       	ldd	r24, Y+3	; 0x03
    12d8:	9c 81       	ldd	r25, Y+4	; 0x04
    12da:	0e 94 b1 2a 	call	0x5562	; 0x5562 <__mulsf3>
    12de:	6d a3       	std	Y+37, r22	; 0x25
    12e0:	7e a3       	std	Y+38, r23	; 0x26
    12e2:	8f a3       	std	Y+39, r24	; 0x27
    12e4:	98 a7       	std	Y+40, r25	; 0x28
    12e6:	a3 01       	movw	r20, r6
    12e8:	92 01       	movw	r18, r4
    12ea:	6d 81       	ldd	r22, Y+5	; 0x05
    12ec:	7e 81       	ldd	r23, Y+6	; 0x06
    12ee:	8f 81       	ldd	r24, Y+7	; 0x07
    12f0:	98 85       	ldd	r25, Y+8	; 0x08
    12f2:	0e 94 b1 2a 	call	0x5562	; 0x5562 <__mulsf3>
    12f6:	9b 01       	movw	r18, r22
    12f8:	ac 01       	movw	r20, r24
    12fa:	6d a1       	ldd	r22, Y+37	; 0x25
    12fc:	7e a1       	ldd	r23, Y+38	; 0x26
    12fe:	8f a1       	ldd	r24, Y+39	; 0x27
    1300:	98 a5       	ldd	r25, Y+40	; 0x28
    1302:	0e 94 2c 28 	call	0x5058	; 0x5058 <__addsf3>
    1306:	2b 01       	movw	r4, r22
    1308:	3c 01       	movw	r6, r24
    130a:	29 a1       	ldd	r18, Y+33	; 0x21
    130c:	3a a1       	ldd	r19, Y+34	; 0x22
    130e:	4b a1       	ldd	r20, Y+35	; 0x23
    1310:	5c a1       	ldd	r21, Y+36	; 0x24
    1312:	69 85       	ldd	r22, Y+9	; 0x09
    1314:	7a 85       	ldd	r23, Y+10	; 0x0a
    1316:	8b 85       	ldd	r24, Y+11	; 0x0b
    1318:	9c 85       	ldd	r25, Y+12	; 0x0c
    131a:	0e 94 b1 2a 	call	0x5562	; 0x5562 <__mulsf3>
    131e:	9b 01       	movw	r18, r22
    1320:	ac 01       	movw	r20, r24
    1322:	c3 01       	movw	r24, r6
    1324:	b2 01       	movw	r22, r4
    1326:	0e 94 2b 28 	call	0x5056	; 0x5056 <__subsf3>
    132a:	20 e0       	ldi	r18, 0x00	; 0
    132c:	30 e0       	ldi	r19, 0x00	; 0
    132e:	40 e0       	ldi	r20, 0x00	; 0
    1330:	5f e3       	ldi	r21, 0x3F	; 63
    1332:	0e 94 b1 2a 	call	0x5562	; 0x5562 <__mulsf3>
    1336:	6d 96       	adiw	r28, 0x1d	; 29
    1338:	6c af       	std	Y+60, r22	; 0x3c
    133a:	7d af       	std	Y+61, r23	; 0x3d
    133c:	8e af       	std	Y+62, r24	; 0x3e
    133e:	9f af       	std	Y+63, r25	; 0x3f
    1340:	6d 97       	sbiw	r28, 0x1d	; 29
	qDot3 = 0.5f * (q0 * gy - q1 * gz + q3 * gx);
    1342:	20 91 00 01 	lds	r18, 0x0100	; 0x800100 <__data_start>
    1346:	30 91 01 01 	lds	r19, 0x0101	; 0x800101 <__data_start+0x1>
    134a:	40 91 02 01 	lds	r20, 0x0102	; 0x800102 <__data_start+0x2>
    134e:	50 91 03 01 	lds	r21, 0x0103	; 0x800103 <__data_start+0x3>
    1352:	40 90 64 03 	lds	r4, 0x0364	; 0x800364 <q1>
    1356:	50 90 65 03 	lds	r5, 0x0365	; 0x800365 <q1+0x1>
    135a:	60 90 66 03 	lds	r6, 0x0366	; 0x800366 <q1+0x2>
    135e:	70 90 67 03 	lds	r7, 0x0367	; 0x800367 <q1+0x3>
    1362:	80 91 5c 03 	lds	r24, 0x035C	; 0x80035c <q3>
    1366:	90 91 5d 03 	lds	r25, 0x035D	; 0x80035d <q3+0x1>
    136a:	a0 91 5e 03 	lds	r26, 0x035E	; 0x80035e <q3+0x2>
    136e:	b0 91 5f 03 	lds	r27, 0x035F	; 0x80035f <q3+0x3>
    1372:	89 a3       	std	Y+33, r24	; 0x21
    1374:	9a a3       	std	Y+34, r25	; 0x22
    1376:	ab a3       	std	Y+35, r26	; 0x23
    1378:	bc a3       	std	Y+36, r27	; 0x24
    137a:	69 85       	ldd	r22, Y+9	; 0x09
    137c:	7a 85       	ldd	r23, Y+10	; 0x0a
    137e:	8b 85       	ldd	r24, Y+11	; 0x0b
    1380:	9c 85       	ldd	r25, Y+12	; 0x0c
    1382:	0e 94 b1 2a 	call	0x5562	; 0x5562 <__mulsf3>
    1386:	6d a3       	std	Y+37, r22	; 0x25
    1388:	7e a3       	std	Y+38, r23	; 0x26
    138a:	8f a3       	std	Y+39, r24	; 0x27
    138c:	98 a7       	std	Y+40, r25	; 0x28
    138e:	a3 01       	movw	r20, r6
    1390:	92 01       	movw	r18, r4
    1392:	6d 81       	ldd	r22, Y+5	; 0x05
    1394:	7e 81       	ldd	r23, Y+6	; 0x06
    1396:	8f 81       	ldd	r24, Y+7	; 0x07
    1398:	98 85       	ldd	r25, Y+8	; 0x08
    139a:	0e 94 b1 2a 	call	0x5562	; 0x5562 <__mulsf3>
    139e:	9b 01       	movw	r18, r22
    13a0:	ac 01       	movw	r20, r24
    13a2:	6d a1       	ldd	r22, Y+37	; 0x25
    13a4:	7e a1       	ldd	r23, Y+38	; 0x26
    13a6:	8f a1       	ldd	r24, Y+39	; 0x27
    13a8:	98 a5       	ldd	r25, Y+40	; 0x28
    13aa:	0e 94 2b 28 	call	0x5056	; 0x5056 <__subsf3>
    13ae:	2b 01       	movw	r4, r22
    13b0:	3c 01       	movw	r6, r24
    13b2:	29 a1       	ldd	r18, Y+33	; 0x21
    13b4:	3a a1       	ldd	r19, Y+34	; 0x22
    13b6:	4b a1       	ldd	r20, Y+35	; 0x23
    13b8:	5c a1       	ldd	r21, Y+36	; 0x24
    13ba:	69 81       	ldd	r22, Y+1	; 0x01
    13bc:	7a 81       	ldd	r23, Y+2	; 0x02
    13be:	8b 81       	ldd	r24, Y+3	; 0x03
    13c0:	9c 81       	ldd	r25, Y+4	; 0x04
    13c2:	0e 94 b1 2a 	call	0x5562	; 0x5562 <__mulsf3>
    13c6:	9b 01       	movw	r18, r22
    13c8:	ac 01       	movw	r20, r24
    13ca:	c3 01       	movw	r24, r6
    13cc:	b2 01       	movw	r22, r4
    13ce:	0e 94 2c 28 	call	0x5058	; 0x5058 <__addsf3>
    13d2:	20 e0       	ldi	r18, 0x00	; 0
    13d4:	30 e0       	ldi	r19, 0x00	; 0
    13d6:	40 e0       	ldi	r20, 0x00	; 0
    13d8:	5f e3       	ldi	r21, 0x3F	; 63
    13da:	0e 94 b1 2a 	call	0x5562	; 0x5562 <__mulsf3>
    13de:	a1 96       	adiw	r28, 0x21	; 33
    13e0:	6c af       	std	Y+60, r22	; 0x3c
    13e2:	7d af       	std	Y+61, r23	; 0x3d
    13e4:	8e af       	std	Y+62, r24	; 0x3e
    13e6:	9f af       	std	Y+63, r25	; 0x3f
    13e8:	a1 97       	sbiw	r28, 0x21	; 33
	qDot4 = 0.5f * (q0 * gz + q1 * gy - q2 * gx);
    13ea:	20 91 00 01 	lds	r18, 0x0100	; 0x800100 <__data_start>
    13ee:	30 91 01 01 	lds	r19, 0x0101	; 0x800101 <__data_start+0x1>
    13f2:	40 91 02 01 	lds	r20, 0x0102	; 0x800102 <__data_start+0x2>
    13f6:	50 91 03 01 	lds	r21, 0x0103	; 0x800103 <__data_start+0x3>
    13fa:	40 90 64 03 	lds	r4, 0x0364	; 0x800364 <q1>
    13fe:	50 90 65 03 	lds	r5, 0x0365	; 0x800365 <q1+0x1>
    1402:	60 90 66 03 	lds	r6, 0x0366	; 0x800366 <q1+0x2>
    1406:	70 90 67 03 	lds	r7, 0x0367	; 0x800367 <q1+0x3>
    140a:	80 91 60 03 	lds	r24, 0x0360	; 0x800360 <q2>
    140e:	90 91 61 03 	lds	r25, 0x0361	; 0x800361 <q2+0x1>
    1412:	a0 91 62 03 	lds	r26, 0x0362	; 0x800362 <q2+0x2>
    1416:	b0 91 63 03 	lds	r27, 0x0363	; 0x800363 <q2+0x3>
    141a:	89 a3       	std	Y+33, r24	; 0x21
    141c:	9a a3       	std	Y+34, r25	; 0x22
    141e:	ab a3       	std	Y+35, r26	; 0x23
    1420:	bc a3       	std	Y+36, r27	; 0x24
    1422:	6d 81       	ldd	r22, Y+5	; 0x05
    1424:	7e 81       	ldd	r23, Y+6	; 0x06
    1426:	8f 81       	ldd	r24, Y+7	; 0x07
    1428:	98 85       	ldd	r25, Y+8	; 0x08
    142a:	0e 94 b1 2a 	call	0x5562	; 0x5562 <__mulsf3>
    142e:	6d 83       	std	Y+5, r22	; 0x05
    1430:	7e 83       	std	Y+6, r23	; 0x06
    1432:	8f 83       	std	Y+7, r24	; 0x07
    1434:	98 87       	std	Y+8, r25	; 0x08
    1436:	a3 01       	movw	r20, r6
    1438:	92 01       	movw	r18, r4
    143a:	69 85       	ldd	r22, Y+9	; 0x09
    143c:	7a 85       	ldd	r23, Y+10	; 0x0a
    143e:	8b 85       	ldd	r24, Y+11	; 0x0b
    1440:	9c 85       	ldd	r25, Y+12	; 0x0c
    1442:	0e 94 b1 2a 	call	0x5562	; 0x5562 <__mulsf3>
    1446:	9b 01       	movw	r18, r22
    1448:	ac 01       	movw	r20, r24
    144a:	6d 81       	ldd	r22, Y+5	; 0x05
    144c:	7e 81       	ldd	r23, Y+6	; 0x06
    144e:	8f 81       	ldd	r24, Y+7	; 0x07
    1450:	98 85       	ldd	r25, Y+8	; 0x08
    1452:	0e 94 2c 28 	call	0x5058	; 0x5058 <__addsf3>
    1456:	2b 01       	movw	r4, r22
    1458:	3c 01       	movw	r6, r24
    145a:	29 a1       	ldd	r18, Y+33	; 0x21
    145c:	3a a1       	ldd	r19, Y+34	; 0x22
    145e:	4b a1       	ldd	r20, Y+35	; 0x23
    1460:	5c a1       	ldd	r21, Y+36	; 0x24
    1462:	69 81       	ldd	r22, Y+1	; 0x01
    1464:	7a 81       	ldd	r23, Y+2	; 0x02
    1466:	8b 81       	ldd	r24, Y+3	; 0x03
    1468:	9c 81       	ldd	r25, Y+4	; 0x04
    146a:	0e 94 b1 2a 	call	0x5562	; 0x5562 <__mulsf3>
    146e:	9b 01       	movw	r18, r22
    1470:	ac 01       	movw	r20, r24
    1472:	c3 01       	movw	r24, r6
    1474:	b2 01       	movw	r22, r4
    1476:	0e 94 2b 28 	call	0x5056	; 0x5056 <__subsf3>
    147a:	20 e0       	ldi	r18, 0x00	; 0
    147c:	30 e0       	ldi	r19, 0x00	; 0
    147e:	40 e0       	ldi	r20, 0x00	; 0
    1480:	5f e3       	ldi	r21, 0x3F	; 63
    1482:	0e 94 b1 2a 	call	0x5562	; 0x5562 <__mulsf3>
    1486:	a5 96       	adiw	r28, 0x25	; 37
    1488:	6c af       	std	Y+60, r22	; 0x3c
    148a:	7d af       	std	Y+61, r23	; 0x3d
    148c:	8e af       	std	Y+62, r24	; 0x3e
    148e:	9f af       	std	Y+63, r25	; 0x3f
    1490:	a5 97       	sbiw	r28, 0x25	; 37

	// Compute feedback only if accelerometer measurement valid (avoids NaN in accelerometer normalisation)
	if(!((ax == 0.0f) && (ay == 0.0f) && (az == 0.0f))) {
    1492:	20 e0       	ldi	r18, 0x00	; 0
    1494:	30 e0       	ldi	r19, 0x00	; 0
    1496:	a9 01       	movw	r20, r18
    1498:	c6 01       	movw	r24, r12
    149a:	b5 01       	movw	r22, r10
    149c:	0e 94 25 29 	call	0x524a	; 0x524a <__cmpsf2>
    14a0:	81 11       	cpse	r24, r1
    14a2:	1c c0       	rjmp	.+56     	; 0x14dc <MadgwickAHRSupdate+0x42e>
    14a4:	20 e0       	ldi	r18, 0x00	; 0
    14a6:	30 e0       	ldi	r19, 0x00	; 0
    14a8:	a9 01       	movw	r20, r18
    14aa:	61 2f       	mov	r22, r17
    14ac:	70 2f       	mov	r23, r16
    14ae:	83 2d       	mov	r24, r3
    14b0:	92 2d       	mov	r25, r2
    14b2:	0e 94 25 29 	call	0x524a	; 0x524a <__cmpsf2>
    14b6:	81 11       	cpse	r24, r1
    14b8:	11 c0       	rjmp	.+34     	; 0x14dc <MadgwickAHRSupdate+0x42e>
    14ba:	20 e0       	ldi	r18, 0x00	; 0
    14bc:	30 e0       	ldi	r19, 0x00	; 0
    14be:	a9 01       	movw	r20, r18
    14c0:	b9 89       	ldd	r27, Y+17	; 0x11
    14c2:	ad 8d       	ldd	r26, Y+29	; 0x1d
    14c4:	f9 a9       	ldd	r31, Y+49	; 0x31
    14c6:	ed a9       	ldd	r30, Y+53	; 0x35
    14c8:	6b 2f       	mov	r22, r27
    14ca:	7a 2f       	mov	r23, r26
    14cc:	8f 2f       	mov	r24, r31
    14ce:	9e 2f       	mov	r25, r30
    14d0:	0e 94 25 29 	call	0x524a	; 0x524a <__cmpsf2>
    14d4:	88 23       	and	r24, r24
    14d6:	11 f4       	brne	.+4      	; 0x14dc <MadgwickAHRSupdate+0x42e>
    14d8:	0c 94 f7 14 	jmp	0x29ee	; 0x29ee <MadgwickAHRSupdate+0x1940>

		// Normalise accelerometer measurement
		recipNorm = invSqrt(ax * ax + ay * ay + az * az);
    14dc:	a6 01       	movw	r20, r12
    14de:	95 01       	movw	r18, r10
    14e0:	c6 01       	movw	r24, r12
    14e2:	b5 01       	movw	r22, r10
    14e4:	0e 94 b1 2a 	call	0x5562	; 0x5562 <__mulsf3>
    14e8:	2b 01       	movw	r4, r22
    14ea:	3c 01       	movw	r6, r24
    14ec:	21 2f       	mov	r18, r17
    14ee:	30 2f       	mov	r19, r16
    14f0:	43 2d       	mov	r20, r3
    14f2:	52 2d       	mov	r21, r2
    14f4:	61 2f       	mov	r22, r17
    14f6:	70 2f       	mov	r23, r16
    14f8:	83 2d       	mov	r24, r3
    14fa:	92 2d       	mov	r25, r2
    14fc:	0e 94 b1 2a 	call	0x5562	; 0x5562 <__mulsf3>
    1500:	9b 01       	movw	r18, r22
    1502:	ac 01       	movw	r20, r24
    1504:	c3 01       	movw	r24, r6
    1506:	b2 01       	movw	r22, r4
    1508:	0e 94 2c 28 	call	0x5058	; 0x5058 <__addsf3>
    150c:	2b 01       	movw	r4, r22
    150e:	3c 01       	movw	r6, r24
    1510:	79 89       	ldd	r23, Y+17	; 0x11
    1512:	6d 8d       	ldd	r22, Y+29	; 0x1d
    1514:	99 a9       	ldd	r25, Y+49	; 0x31
    1516:	8d a9       	ldd	r24, Y+53	; 0x35
    1518:	27 2f       	mov	r18, r23
    151a:	36 2f       	mov	r19, r22
    151c:	49 2f       	mov	r20, r25
    151e:	58 2f       	mov	r21, r24
    1520:	67 2f       	mov	r22, r23
    1522:	73 2f       	mov	r23, r19
    1524:	89 2f       	mov	r24, r25
    1526:	95 2f       	mov	r25, r21
    1528:	0e 94 b1 2a 	call	0x5562	; 0x5562 <__mulsf3>
    152c:	9b 01       	movw	r18, r22
    152e:	ac 01       	movw	r20, r24
    1530:	c3 01       	movw	r24, r6
    1532:	b2 01       	movw	r22, r4
    1534:	0e 94 2c 28 	call	0x5058	; 0x5058 <__addsf3>
    1538:	0e 94 56 01 	call	0x2ac	; 0x2ac <invSqrt>
    153c:	2b 01       	movw	r4, r22
    153e:	3c 01       	movw	r6, r24
		ax *= recipNorm;
    1540:	9b 01       	movw	r18, r22
    1542:	ac 01       	movw	r20, r24
    1544:	c6 01       	movw	r24, r12
    1546:	b5 01       	movw	r22, r10
    1548:	0e 94 b1 2a 	call	0x5562	; 0x5562 <__mulsf3>
    154c:	c7 57       	subi	r28, 0x77	; 119
    154e:	df 4f       	sbci	r29, 0xFF	; 255
    1550:	68 83       	st	Y, r22
    1552:	79 83       	std	Y+1, r23	; 0x01
    1554:	8a 83       	std	Y+2, r24	; 0x02
    1556:	9b 83       	std	Y+3, r25	; 0x03
    1558:	c9 58       	subi	r28, 0x89	; 137
    155a:	d0 40       	sbci	r29, 0x00	; 0
		ay *= recipNorm;
    155c:	a3 01       	movw	r20, r6
    155e:	92 01       	movw	r18, r4
    1560:	61 2f       	mov	r22, r17
    1562:	70 2f       	mov	r23, r16
    1564:	83 2d       	mov	r24, r3
    1566:	92 2d       	mov	r25, r2
    1568:	0e 94 b1 2a 	call	0x5562	; 0x5562 <__mulsf3>
    156c:	c3 57       	subi	r28, 0x73	; 115
    156e:	df 4f       	sbci	r29, 0xFF	; 255
    1570:	68 83       	st	Y, r22
    1572:	79 83       	std	Y+1, r23	; 0x01
    1574:	8a 83       	std	Y+2, r24	; 0x02
    1576:	9b 83       	std	Y+3, r25	; 0x03
    1578:	cd 58       	subi	r28, 0x8D	; 141
    157a:	d0 40       	sbci	r29, 0x00	; 0
		az *= recipNorm;   
    157c:	a3 01       	movw	r20, r6
    157e:	92 01       	movw	r18, r4
    1580:	b9 89       	ldd	r27, Y+17	; 0x11
    1582:	ad 8d       	ldd	r26, Y+29	; 0x1d
    1584:	f9 a9       	ldd	r31, Y+49	; 0x31
    1586:	ed a9       	ldd	r30, Y+53	; 0x35
    1588:	6b 2f       	mov	r22, r27
    158a:	7a 2f       	mov	r23, r26
    158c:	8f 2f       	mov	r24, r31
    158e:	9e 2f       	mov	r25, r30
    1590:	0e 94 b1 2a 	call	0x5562	; 0x5562 <__mulsf3>
    1594:	cf 56       	subi	r28, 0x6F	; 111
    1596:	df 4f       	sbci	r29, 0xFF	; 255
    1598:	68 83       	st	Y, r22
    159a:	79 83       	std	Y+1, r23	; 0x01
    159c:	8a 83       	std	Y+2, r24	; 0x02
    159e:	9b 83       	std	Y+3, r25	; 0x03
    15a0:	c1 59       	subi	r28, 0x91	; 145
    15a2:	d0 40       	sbci	r29, 0x00	; 0

		// Normalise magnetometer measurement
		recipNorm = invSqrt(mx * mx + my * my + mz * mz);
    15a4:	cf 54       	subi	r28, 0x4F	; 79
    15a6:	df 4f       	sbci	r29, 0xFF	; 255
    15a8:	28 81       	ld	r18, Y
    15aa:	39 81       	ldd	r19, Y+1	; 0x01
    15ac:	4a 81       	ldd	r20, Y+2	; 0x02
    15ae:	5b 81       	ldd	r21, Y+3	; 0x03
    15b0:	c1 5b       	subi	r28, 0xB1	; 177
    15b2:	d0 40       	sbci	r29, 0x00	; 0
    15b4:	ca 01       	movw	r24, r20
    15b6:	b9 01       	movw	r22, r18
    15b8:	0e 94 b1 2a 	call	0x5562	; 0x5562 <__mulsf3>
    15bc:	6b 01       	movw	r12, r22
    15be:	7c 01       	movw	r14, r24
    15c0:	cb 54       	subi	r28, 0x4B	; 75
    15c2:	df 4f       	sbci	r29, 0xFF	; 255
    15c4:	28 81       	ld	r18, Y
    15c6:	39 81       	ldd	r19, Y+1	; 0x01
    15c8:	4a 81       	ldd	r20, Y+2	; 0x02
    15ca:	5b 81       	ldd	r21, Y+3	; 0x03
    15cc:	c5 5b       	subi	r28, 0xB5	; 181
    15ce:	d0 40       	sbci	r29, 0x00	; 0
    15d0:	ca 01       	movw	r24, r20
    15d2:	b9 01       	movw	r22, r18
    15d4:	0e 94 b1 2a 	call	0x5562	; 0x5562 <__mulsf3>
    15d8:	9b 01       	movw	r18, r22
    15da:	ac 01       	movw	r20, r24
    15dc:	c7 01       	movw	r24, r14
    15de:	b6 01       	movw	r22, r12
    15e0:	0e 94 2c 28 	call	0x5058	; 0x5058 <__addsf3>
    15e4:	6b 01       	movw	r12, r22
    15e6:	7c 01       	movw	r14, r24
    15e8:	c7 54       	subi	r28, 0x47	; 71
    15ea:	df 4f       	sbci	r29, 0xFF	; 255
    15ec:	28 81       	ld	r18, Y
    15ee:	39 81       	ldd	r19, Y+1	; 0x01
    15f0:	4a 81       	ldd	r20, Y+2	; 0x02
    15f2:	5b 81       	ldd	r21, Y+3	; 0x03
    15f4:	c9 5b       	subi	r28, 0xB9	; 185
    15f6:	d0 40       	sbci	r29, 0x00	; 0
    15f8:	ca 01       	movw	r24, r20
    15fa:	b9 01       	movw	r22, r18
    15fc:	0e 94 b1 2a 	call	0x5562	; 0x5562 <__mulsf3>
    1600:	9b 01       	movw	r18, r22
    1602:	ac 01       	movw	r20, r24
    1604:	c7 01       	movw	r24, r14
    1606:	b6 01       	movw	r22, r12
    1608:	0e 94 2c 28 	call	0x5058	; 0x5058 <__addsf3>
    160c:	0e 94 56 01 	call	0x2ac	; 0x2ac <invSqrt>
    1610:	6b 01       	movw	r12, r22
    1612:	7c 01       	movw	r14, r24
		mx *= recipNorm;
    1614:	9b 01       	movw	r18, r22
    1616:	ac 01       	movw	r20, r24
    1618:	cf 54       	subi	r28, 0x4F	; 79
    161a:	df 4f       	sbci	r29, 0xFF	; 255
    161c:	68 81       	ld	r22, Y
    161e:	79 81       	ldd	r23, Y+1	; 0x01
    1620:	8a 81       	ldd	r24, Y+2	; 0x02
    1622:	9b 81       	ldd	r25, Y+3	; 0x03
    1624:	c1 5b       	subi	r28, 0xB1	; 177
    1626:	d0 40       	sbci	r29, 0x00	; 0
    1628:	0e 94 b1 2a 	call	0x5562	; 0x5562 <__mulsf3>
    162c:	69 8b       	std	Y+17, r22	; 0x11
    162e:	7a 8b       	std	Y+18, r23	; 0x12
    1630:	8b 8b       	std	Y+19, r24	; 0x13
    1632:	9c 8b       	std	Y+20, r25	; 0x14
		my *= recipNorm;
    1634:	a7 01       	movw	r20, r14
    1636:	96 01       	movw	r18, r12
    1638:	cb 54       	subi	r28, 0x4B	; 75
    163a:	df 4f       	sbci	r29, 0xFF	; 255
    163c:	68 81       	ld	r22, Y
    163e:	79 81       	ldd	r23, Y+1	; 0x01
    1640:	8a 81       	ldd	r24, Y+2	; 0x02
    1642:	9b 81       	ldd	r25, Y+3	; 0x03
    1644:	c5 5b       	subi	r28, 0xB5	; 181
    1646:	d0 40       	sbci	r29, 0x00	; 0
    1648:	0e 94 b1 2a 	call	0x5562	; 0x5562 <__mulsf3>
    164c:	6d 83       	std	Y+5, r22	; 0x05
    164e:	7e 83       	std	Y+6, r23	; 0x06
    1650:	8f 83       	std	Y+7, r24	; 0x07
    1652:	98 87       	std	Y+8, r25	; 0x08
		mz *= recipNorm;
    1654:	a7 01       	movw	r20, r14
    1656:	96 01       	movw	r18, r12
    1658:	c7 54       	subi	r28, 0x47	; 71
    165a:	df 4f       	sbci	r29, 0xFF	; 255
    165c:	68 81       	ld	r22, Y
    165e:	79 81       	ldd	r23, Y+1	; 0x01
    1660:	8a 81       	ldd	r24, Y+2	; 0x02
    1662:	9b 81       	ldd	r25, Y+3	; 0x03
    1664:	c9 5b       	subi	r28, 0xB9	; 185
    1666:	d0 40       	sbci	r29, 0x00	; 0
    1668:	0e 94 b1 2a 	call	0x5562	; 0x5562 <__mulsf3>
    166c:	6d 87       	std	Y+13, r22	; 0x0d
    166e:	7e 87       	std	Y+14, r23	; 0x0e
    1670:	8f 87       	std	Y+15, r24	; 0x0f
    1672:	98 8b       	std	Y+16, r25	; 0x10

		// Auxiliary variables to avoid repeated arithmetic
		_2q0mx = 2.0f * q0 * mx;
    1674:	60 91 00 01 	lds	r22, 0x0100	; 0x800100 <__data_start>
    1678:	70 91 01 01 	lds	r23, 0x0101	; 0x800101 <__data_start+0x1>
    167c:	80 91 02 01 	lds	r24, 0x0102	; 0x800102 <__data_start+0x2>
    1680:	90 91 03 01 	lds	r25, 0x0103	; 0x800103 <__data_start+0x3>
    1684:	9b 01       	movw	r18, r22
    1686:	ac 01       	movw	r20, r24
    1688:	0e 94 2c 28 	call	0x5058	; 0x5058 <__addsf3>
    168c:	29 89       	ldd	r18, Y+17	; 0x11
    168e:	3a 89       	ldd	r19, Y+18	; 0x12
    1690:	4b 89       	ldd	r20, Y+19	; 0x13
    1692:	5c 89       	ldd	r21, Y+20	; 0x14
    1694:	0e 94 b1 2a 	call	0x5562	; 0x5562 <__mulsf3>
    1698:	29 96       	adiw	r28, 0x09	; 9
    169a:	6c af       	std	Y+60, r22	; 0x3c
    169c:	7d af       	std	Y+61, r23	; 0x3d
    169e:	8e af       	std	Y+62, r24	; 0x3e
    16a0:	9f af       	std	Y+63, r25	; 0x3f
    16a2:	29 97       	sbiw	r28, 0x09	; 9
		_2q0my = 2.0f * q0 * my;
    16a4:	60 91 00 01 	lds	r22, 0x0100	; 0x800100 <__data_start>
    16a8:	70 91 01 01 	lds	r23, 0x0101	; 0x800101 <__data_start+0x1>
    16ac:	80 91 02 01 	lds	r24, 0x0102	; 0x800102 <__data_start+0x2>
    16b0:	90 91 03 01 	lds	r25, 0x0103	; 0x800103 <__data_start+0x3>
    16b4:	9b 01       	movw	r18, r22
    16b6:	ac 01       	movw	r20, r24
    16b8:	0e 94 2c 28 	call	0x5058	; 0x5058 <__addsf3>
    16bc:	2d 81       	ldd	r18, Y+5	; 0x05
    16be:	3e 81       	ldd	r19, Y+6	; 0x06
    16c0:	4f 81       	ldd	r20, Y+7	; 0x07
    16c2:	58 85       	ldd	r21, Y+8	; 0x08
    16c4:	0e 94 b1 2a 	call	0x5562	; 0x5562 <__mulsf3>
    16c8:	69 af       	std	Y+57, r22	; 0x39
    16ca:	7a af       	std	Y+58, r23	; 0x3a
    16cc:	8b af       	std	Y+59, r24	; 0x3b
    16ce:	9c af       	std	Y+60, r25	; 0x3c
		_2q0mz = 2.0f * q0 * mz;
    16d0:	60 91 00 01 	lds	r22, 0x0100	; 0x800100 <__data_start>
    16d4:	70 91 01 01 	lds	r23, 0x0101	; 0x800101 <__data_start+0x1>
    16d8:	80 91 02 01 	lds	r24, 0x0102	; 0x800102 <__data_start+0x2>
    16dc:	90 91 03 01 	lds	r25, 0x0103	; 0x800103 <__data_start+0x3>
    16e0:	9b 01       	movw	r18, r22
    16e2:	ac 01       	movw	r20, r24
    16e4:	0e 94 2c 28 	call	0x5058	; 0x5058 <__addsf3>
    16e8:	2d 85       	ldd	r18, Y+13	; 0x0d
    16ea:	3e 85       	ldd	r19, Y+14	; 0x0e
    16ec:	4f 85       	ldd	r20, Y+15	; 0x0f
    16ee:	58 89       	ldd	r21, Y+16	; 0x10
    16f0:	0e 94 b1 2a 	call	0x5562	; 0x5562 <__mulsf3>
    16f4:	69 87       	std	Y+9, r22	; 0x09
    16f6:	7a 87       	std	Y+10, r23	; 0x0a
    16f8:	8b 87       	std	Y+11, r24	; 0x0b
    16fa:	9c 87       	std	Y+12, r25	; 0x0c
		_2q1mx = 2.0f * q1 * mx;
    16fc:	60 91 64 03 	lds	r22, 0x0364	; 0x800364 <q1>
    1700:	70 91 65 03 	lds	r23, 0x0365	; 0x800365 <q1+0x1>
    1704:	80 91 66 03 	lds	r24, 0x0366	; 0x800366 <q1+0x2>
    1708:	90 91 67 03 	lds	r25, 0x0367	; 0x800367 <q1+0x3>
    170c:	9b 01       	movw	r18, r22
    170e:	ac 01       	movw	r20, r24
    1710:	0e 94 2c 28 	call	0x5058	; 0x5058 <__addsf3>
    1714:	29 89       	ldd	r18, Y+17	; 0x11
    1716:	3a 89       	ldd	r19, Y+18	; 0x12
    1718:	4b 89       	ldd	r20, Y+19	; 0x13
    171a:	5c 89       	ldd	r21, Y+20	; 0x14
    171c:	0e 94 b1 2a 	call	0x5562	; 0x5562 <__mulsf3>
    1720:	61 96       	adiw	r28, 0x11	; 17
    1722:	6c af       	std	Y+60, r22	; 0x3c
    1724:	7d af       	std	Y+61, r23	; 0x3d
    1726:	8e af       	std	Y+62, r24	; 0x3e
    1728:	9f af       	std	Y+63, r25	; 0x3f
    172a:	61 97       	sbiw	r28, 0x11	; 17
		_2q0 = 2.0f * q0;
    172c:	60 91 00 01 	lds	r22, 0x0100	; 0x800100 <__data_start>
    1730:	70 91 01 01 	lds	r23, 0x0101	; 0x800101 <__data_start+0x1>
    1734:	80 91 02 01 	lds	r24, 0x0102	; 0x800102 <__data_start+0x2>
    1738:	90 91 03 01 	lds	r25, 0x0103	; 0x800103 <__data_start+0x3>
    173c:	9b 01       	movw	r18, r22
    173e:	ac 01       	movw	r20, r24
    1740:	0e 94 2c 28 	call	0x5058	; 0x5058 <__addsf3>
    1744:	25 96       	adiw	r28, 0x05	; 5
    1746:	6c af       	std	Y+60, r22	; 0x3c
    1748:	7d af       	std	Y+61, r23	; 0x3d
    174a:	8e af       	std	Y+62, r24	; 0x3e
    174c:	9f af       	std	Y+63, r25	; 0x3f
    174e:	25 97       	sbiw	r28, 0x05	; 5
		_2q1 = 2.0f * q1;
    1750:	60 91 64 03 	lds	r22, 0x0364	; 0x800364 <q1>
    1754:	70 91 65 03 	lds	r23, 0x0365	; 0x800365 <q1+0x1>
    1758:	80 91 66 03 	lds	r24, 0x0366	; 0x800366 <q1+0x2>
    175c:	90 91 67 03 	lds	r25, 0x0367	; 0x800367 <q1+0x3>
    1760:	9b 01       	movw	r18, r22
    1762:	ac 01       	movw	r20, r24
    1764:	0e 94 2c 28 	call	0x5058	; 0x5058 <__addsf3>
    1768:	69 ab       	std	Y+49, r22	; 0x31
    176a:	7a ab       	std	Y+50, r23	; 0x32
    176c:	8b ab       	std	Y+51, r24	; 0x33
    176e:	9c ab       	std	Y+52, r25	; 0x34
		_2q2 = 2.0f * q2;
    1770:	60 91 60 03 	lds	r22, 0x0360	; 0x800360 <q2>
    1774:	70 91 61 03 	lds	r23, 0x0361	; 0x800361 <q2+0x1>
    1778:	80 91 62 03 	lds	r24, 0x0362	; 0x800362 <q2+0x2>
    177c:	90 91 63 03 	lds	r25, 0x0363	; 0x800363 <q2+0x3>
    1780:	9b 01       	movw	r18, r22
    1782:	ac 01       	movw	r20, r24
    1784:	0e 94 2c 28 	call	0x5058	; 0x5058 <__addsf3>
    1788:	6d ab       	std	Y+53, r22	; 0x35
    178a:	7e ab       	std	Y+54, r23	; 0x36
    178c:	8f ab       	std	Y+55, r24	; 0x37
    178e:	98 af       	std	Y+56, r25	; 0x38
		_2q3 = 2.0f * q3;
    1790:	60 91 5c 03 	lds	r22, 0x035C	; 0x80035c <q3>
    1794:	70 91 5d 03 	lds	r23, 0x035D	; 0x80035d <q3+0x1>
    1798:	80 91 5e 03 	lds	r24, 0x035E	; 0x80035e <q3+0x2>
    179c:	90 91 5f 03 	lds	r25, 0x035F	; 0x80035f <q3+0x3>
    17a0:	9b 01       	movw	r18, r22
    17a2:	ac 01       	movw	r20, r24
    17a4:	0e 94 2c 28 	call	0x5058	; 0x5058 <__addsf3>
    17a8:	a9 96       	adiw	r28, 0x29	; 41
    17aa:	6c af       	std	Y+60, r22	; 0x3c
    17ac:	7d af       	std	Y+61, r23	; 0x3d
    17ae:	8e af       	std	Y+62, r24	; 0x3e
    17b0:	9f af       	std	Y+63, r25	; 0x3f
    17b2:	a9 97       	sbiw	r28, 0x29	; 41
		_2q0q2 = 2.0f * q0 * q2;
    17b4:	e0 90 00 01 	lds	r14, 0x0100	; 0x800100 <__data_start>
    17b8:	f0 90 01 01 	lds	r15, 0x0101	; 0x800101 <__data_start+0x1>
    17bc:	00 91 02 01 	lds	r16, 0x0102	; 0x800102 <__data_start+0x2>
    17c0:	10 91 03 01 	lds	r17, 0x0103	; 0x800103 <__data_start+0x3>
    17c4:	21 96       	adiw	r28, 0x01	; 1
    17c6:	ec ae       	std	Y+60, r14	; 0x3c
    17c8:	fd ae       	std	Y+61, r15	; 0x3d
    17ca:	0e af       	std	Y+62, r16	; 0x3e
    17cc:	1f af       	std	Y+63, r17	; 0x3f
    17ce:	21 97       	sbiw	r28, 0x01	; 1
    17d0:	e0 90 60 03 	lds	r14, 0x0360	; 0x800360 <q2>
    17d4:	f0 90 61 03 	lds	r15, 0x0361	; 0x800361 <q2+0x1>
    17d8:	00 91 62 03 	lds	r16, 0x0362	; 0x800362 <q2+0x2>
    17dc:	10 91 63 03 	lds	r17, 0x0363	; 0x800363 <q2+0x3>
    17e0:	ad 96       	adiw	r28, 0x2d	; 45
    17e2:	ec ae       	std	Y+60, r14	; 0x3c
    17e4:	fd ae       	std	Y+61, r15	; 0x3d
    17e6:	0e af       	std	Y+62, r16	; 0x3e
    17e8:	1f af       	std	Y+63, r17	; 0x3f
    17ea:	ad 97       	sbiw	r28, 0x2d	; 45
		_2q2q3 = 2.0f * q2 * q3;
    17ec:	e0 90 60 03 	lds	r14, 0x0360	; 0x800360 <q2>
    17f0:	f0 90 61 03 	lds	r15, 0x0361	; 0x800361 <q2+0x1>
    17f4:	00 91 62 03 	lds	r16, 0x0362	; 0x800362 <q2+0x2>
    17f8:	10 91 63 03 	lds	r17, 0x0363	; 0x800363 <q2+0x3>
    17fc:	ed a6       	std	Y+45, r14	; 0x2d
    17fe:	fe a6       	std	Y+46, r15	; 0x2e
    1800:	0f a7       	std	Y+47, r16	; 0x2f
    1802:	18 ab       	std	Y+48, r17	; 0x30
    1804:	e0 90 5c 03 	lds	r14, 0x035C	; 0x80035c <q3>
    1808:	f0 90 5d 03 	lds	r15, 0x035D	; 0x80035d <q3+0x1>
    180c:	00 91 5e 03 	lds	r16, 0x035E	; 0x80035e <q3+0x2>
    1810:	10 91 5f 03 	lds	r17, 0x035F	; 0x80035f <q3+0x3>
    1814:	e1 96       	adiw	r28, 0x31	; 49
    1816:	ec ae       	std	Y+60, r14	; 0x3c
    1818:	fd ae       	std	Y+61, r15	; 0x3d
    181a:	0e af       	std	Y+62, r16	; 0x3e
    181c:	1f af       	std	Y+63, r17	; 0x3f
    181e:	e1 97       	sbiw	r28, 0x31	; 49
		q0q0 = q0 * q0;
    1820:	60 91 00 01 	lds	r22, 0x0100	; 0x800100 <__data_start>
    1824:	70 91 01 01 	lds	r23, 0x0101	; 0x800101 <__data_start+0x1>
    1828:	80 91 02 01 	lds	r24, 0x0102	; 0x800102 <__data_start+0x2>
    182c:	90 91 03 01 	lds	r25, 0x0103	; 0x800103 <__data_start+0x3>
    1830:	20 91 00 01 	lds	r18, 0x0100	; 0x800100 <__data_start>
    1834:	30 91 01 01 	lds	r19, 0x0101	; 0x800101 <__data_start+0x1>
    1838:	40 91 02 01 	lds	r20, 0x0102	; 0x800102 <__data_start+0x2>
    183c:	50 91 03 01 	lds	r21, 0x0103	; 0x800103 <__data_start+0x3>
    1840:	0e 94 b1 2a 	call	0x5562	; 0x5562 <__mulsf3>
    1844:	6d a3       	std	Y+37, r22	; 0x25
    1846:	7e a3       	std	Y+38, r23	; 0x26
    1848:	8f a3       	std	Y+39, r24	; 0x27
    184a:	98 a7       	std	Y+40, r25	; 0x28
		q0q1 = q0 * q1;
    184c:	60 91 00 01 	lds	r22, 0x0100	; 0x800100 <__data_start>
    1850:	70 91 01 01 	lds	r23, 0x0101	; 0x800101 <__data_start+0x1>
    1854:	80 91 02 01 	lds	r24, 0x0102	; 0x800102 <__data_start+0x2>
    1858:	90 91 03 01 	lds	r25, 0x0103	; 0x800103 <__data_start+0x3>
    185c:	20 91 64 03 	lds	r18, 0x0364	; 0x800364 <q1>
    1860:	30 91 65 03 	lds	r19, 0x0365	; 0x800365 <q1+0x1>
    1864:	40 91 66 03 	lds	r20, 0x0366	; 0x800366 <q1+0x2>
    1868:	50 91 67 03 	lds	r21, 0x0367	; 0x800367 <q1+0x3>
    186c:	0e 94 b1 2a 	call	0x5562	; 0x5562 <__mulsf3>
    1870:	69 a7       	std	Y+41, r22	; 0x29
    1872:	7a a7       	std	Y+42, r23	; 0x2a
    1874:	8b a7       	std	Y+43, r24	; 0x2b
    1876:	9c a7       	std	Y+44, r25	; 0x2c
		q0q2 = q0 * q2;
    1878:	60 91 00 01 	lds	r22, 0x0100	; 0x800100 <__data_start>
    187c:	70 91 01 01 	lds	r23, 0x0101	; 0x800101 <__data_start+0x1>
    1880:	80 91 02 01 	lds	r24, 0x0102	; 0x800102 <__data_start+0x2>
    1884:	90 91 03 01 	lds	r25, 0x0103	; 0x800103 <__data_start+0x3>
    1888:	20 91 60 03 	lds	r18, 0x0360	; 0x800360 <q2>
    188c:	30 91 61 03 	lds	r19, 0x0361	; 0x800361 <q2+0x1>
    1890:	40 91 62 03 	lds	r20, 0x0362	; 0x800362 <q2+0x2>
    1894:	50 91 63 03 	lds	r21, 0x0363	; 0x800363 <q2+0x3>
    1898:	0e 94 b1 2a 	call	0x5562	; 0x5562 <__mulsf3>
    189c:	65 96       	adiw	r28, 0x15	; 21
    189e:	6c af       	std	Y+60, r22	; 0x3c
    18a0:	7d af       	std	Y+61, r23	; 0x3d
    18a2:	8e af       	std	Y+62, r24	; 0x3e
    18a4:	9f af       	std	Y+63, r25	; 0x3f
    18a6:	65 97       	sbiw	r28, 0x15	; 21
		q0q3 = q0 * q3;
    18a8:	e0 90 00 01 	lds	r14, 0x0100	; 0x800100 <__data_start>
    18ac:	f0 90 01 01 	lds	r15, 0x0101	; 0x800101 <__data_start+0x1>
    18b0:	00 91 02 01 	lds	r16, 0x0102	; 0x800102 <__data_start+0x2>
    18b4:	10 91 03 01 	lds	r17, 0x0103	; 0x800103 <__data_start+0x3>
    18b8:	e5 96       	adiw	r28, 0x35	; 53
    18ba:	ec ae       	std	Y+60, r14	; 0x3c
    18bc:	fd ae       	std	Y+61, r15	; 0x3d
    18be:	0e af       	std	Y+62, r16	; 0x3e
    18c0:	1f af       	std	Y+63, r17	; 0x3f
    18c2:	e5 97       	sbiw	r28, 0x35	; 53
    18c4:	e0 90 5c 03 	lds	r14, 0x035C	; 0x80035c <q3>
    18c8:	f0 90 5d 03 	lds	r15, 0x035D	; 0x80035d <q3+0x1>
    18cc:	00 91 5e 03 	lds	r16, 0x035E	; 0x80035e <q3+0x2>
    18d0:	10 91 5f 03 	lds	r17, 0x035F	; 0x80035f <q3+0x3>
    18d4:	e9 96       	adiw	r28, 0x39	; 57
    18d6:	ec ae       	std	Y+60, r14	; 0x3c
    18d8:	fd ae       	std	Y+61, r15	; 0x3d
    18da:	0e af       	std	Y+62, r16	; 0x3e
    18dc:	1f af       	std	Y+63, r17	; 0x3f
    18de:	e9 97       	sbiw	r28, 0x39	; 57
		q1q1 = q1 * q1;
    18e0:	60 91 64 03 	lds	r22, 0x0364	; 0x800364 <q1>
    18e4:	70 91 65 03 	lds	r23, 0x0365	; 0x800365 <q1+0x1>
    18e8:	80 91 66 03 	lds	r24, 0x0366	; 0x800366 <q1+0x2>
    18ec:	90 91 67 03 	lds	r25, 0x0367	; 0x800367 <q1+0x3>
    18f0:	20 91 64 03 	lds	r18, 0x0364	; 0x800364 <q1>
    18f4:	30 91 65 03 	lds	r19, 0x0365	; 0x800365 <q1+0x1>
    18f8:	40 91 66 03 	lds	r20, 0x0366	; 0x800366 <q1+0x2>
    18fc:	50 91 67 03 	lds	r21, 0x0367	; 0x800367 <q1+0x3>
    1900:	0e 94 b1 2a 	call	0x5562	; 0x5562 <__mulsf3>
    1904:	6d 8f       	std	Y+29, r22	; 0x1d
    1906:	7e 8f       	std	Y+30, r23	; 0x1e
    1908:	8f 8f       	std	Y+31, r24	; 0x1f
    190a:	98 a3       	std	Y+32, r25	; 0x20
		q1q2 = q1 * q2;
    190c:	e0 90 64 03 	lds	r14, 0x0364	; 0x800364 <q1>
    1910:	f0 90 65 03 	lds	r15, 0x0365	; 0x800365 <q1+0x1>
    1914:	00 91 66 03 	lds	r16, 0x0366	; 0x800366 <q1+0x2>
    1918:	10 91 67 03 	lds	r17, 0x0367	; 0x800367 <q1+0x3>
    191c:	ed 96       	adiw	r28, 0x3d	; 61
    191e:	ec ae       	std	Y+60, r14	; 0x3c
    1920:	fd ae       	std	Y+61, r15	; 0x3d
    1922:	0e af       	std	Y+62, r16	; 0x3e
    1924:	1f af       	std	Y+63, r17	; 0x3f
    1926:	ed 97       	sbiw	r28, 0x3d	; 61
    1928:	e0 90 60 03 	lds	r14, 0x0360	; 0x800360 <q2>
    192c:	f0 90 61 03 	lds	r15, 0x0361	; 0x800361 <q2+0x1>
    1930:	00 91 62 03 	lds	r16, 0x0362	; 0x800362 <q2+0x2>
    1934:	10 91 63 03 	lds	r17, 0x0363	; 0x800363 <q2+0x3>
    1938:	c3 58       	subi	r28, 0x83	; 131
    193a:	df 4f       	sbci	r29, 0xFF	; 255
    193c:	e8 82       	st	Y, r14
    193e:	f9 82       	std	Y+1, r15	; 0x01
    1940:	0a 83       	std	Y+2, r16	; 0x02
    1942:	1b 83       	std	Y+3, r17	; 0x03
    1944:	cd 57       	subi	r28, 0x7D	; 125
    1946:	d0 40       	sbci	r29, 0x00	; 0
		q1q3 = q1 * q3;
    1948:	60 91 64 03 	lds	r22, 0x0364	; 0x800364 <q1>
    194c:	70 91 65 03 	lds	r23, 0x0365	; 0x800365 <q1+0x1>
    1950:	80 91 66 03 	lds	r24, 0x0366	; 0x800366 <q1+0x2>
    1954:	90 91 67 03 	lds	r25, 0x0367	; 0x800367 <q1+0x3>
    1958:	20 91 5c 03 	lds	r18, 0x035C	; 0x80035c <q3>
    195c:	30 91 5d 03 	lds	r19, 0x035D	; 0x80035d <q3+0x1>
    1960:	40 91 5e 03 	lds	r20, 0x035E	; 0x80035e <q3+0x2>
    1964:	50 91 5f 03 	lds	r21, 0x035F	; 0x80035f <q3+0x3>
    1968:	0e 94 b1 2a 	call	0x5562	; 0x5562 <__mulsf3>
    196c:	6d 8b       	std	Y+21, r22	; 0x15
    196e:	7e 8b       	std	Y+22, r23	; 0x16
    1970:	8f 8b       	std	Y+23, r24	; 0x17
    1972:	98 8f       	std	Y+24, r25	; 0x18
		q2q2 = q2 * q2;
    1974:	60 91 60 03 	lds	r22, 0x0360	; 0x800360 <q2>
    1978:	70 91 61 03 	lds	r23, 0x0361	; 0x800361 <q2+0x1>
    197c:	80 91 62 03 	lds	r24, 0x0362	; 0x800362 <q2+0x2>
    1980:	90 91 63 03 	lds	r25, 0x0363	; 0x800363 <q2+0x3>
    1984:	20 91 60 03 	lds	r18, 0x0360	; 0x800360 <q2>
    1988:	30 91 61 03 	lds	r19, 0x0361	; 0x800361 <q2+0x1>
    198c:	40 91 62 03 	lds	r20, 0x0362	; 0x800362 <q2+0x2>
    1990:	50 91 63 03 	lds	r21, 0x0363	; 0x800363 <q2+0x3>
    1994:	0e 94 b1 2a 	call	0x5562	; 0x5562 <__mulsf3>
    1998:	69 8f       	std	Y+25, r22	; 0x19
    199a:	7a 8f       	std	Y+26, r23	; 0x1a
    199c:	8b 8f       	std	Y+27, r24	; 0x1b
    199e:	9c 8f       	std	Y+28, r25	; 0x1c
		q2q3 = q2 * q3;
    19a0:	e0 90 60 03 	lds	r14, 0x0360	; 0x800360 <q2>
    19a4:	f0 90 61 03 	lds	r15, 0x0361	; 0x800361 <q2+0x1>
    19a8:	00 91 62 03 	lds	r16, 0x0362	; 0x800362 <q2+0x2>
    19ac:	10 91 63 03 	lds	r17, 0x0363	; 0x800363 <q2+0x3>
    19b0:	cf 57       	subi	r28, 0x7F	; 127
    19b2:	df 4f       	sbci	r29, 0xFF	; 255
    19b4:	e8 82       	st	Y, r14
    19b6:	f9 82       	std	Y+1, r15	; 0x01
    19b8:	0a 83       	std	Y+2, r16	; 0x02
    19ba:	1b 83       	std	Y+3, r17	; 0x03
    19bc:	c1 58       	subi	r28, 0x81	; 129
    19be:	d0 40       	sbci	r29, 0x00	; 0
    19c0:	e0 90 5c 03 	lds	r14, 0x035C	; 0x80035c <q3>
    19c4:	f0 90 5d 03 	lds	r15, 0x035D	; 0x80035d <q3+0x1>
    19c8:	00 91 5e 03 	lds	r16, 0x035E	; 0x80035e <q3+0x2>
    19cc:	10 91 5f 03 	lds	r17, 0x035F	; 0x80035f <q3+0x3>
    19d0:	cb 57       	subi	r28, 0x7B	; 123
    19d2:	df 4f       	sbci	r29, 0xFF	; 255
    19d4:	e8 82       	st	Y, r14
    19d6:	f9 82       	std	Y+1, r15	; 0x01
    19d8:	0a 83       	std	Y+2, r16	; 0x02
    19da:	1b 83       	std	Y+3, r17	; 0x03
    19dc:	c5 58       	subi	r28, 0x85	; 133
    19de:	d0 40       	sbci	r29, 0x00	; 0
		q3q3 = q3 * q3;
    19e0:	60 91 5c 03 	lds	r22, 0x035C	; 0x80035c <q3>
    19e4:	70 91 5d 03 	lds	r23, 0x035D	; 0x80035d <q3+0x1>
    19e8:	80 91 5e 03 	lds	r24, 0x035E	; 0x80035e <q3+0x2>
    19ec:	90 91 5f 03 	lds	r25, 0x035F	; 0x80035f <q3+0x3>
    19f0:	20 91 5c 03 	lds	r18, 0x035C	; 0x80035c <q3>
    19f4:	30 91 5d 03 	lds	r19, 0x035D	; 0x80035d <q3+0x1>
    19f8:	40 91 5e 03 	lds	r20, 0x035E	; 0x80035e <q3+0x2>
    19fc:	50 91 5f 03 	lds	r21, 0x035F	; 0x80035f <q3+0x3>
    1a00:	0e 94 b1 2a 	call	0x5562	; 0x5562 <__mulsf3>
    1a04:	69 a3       	std	Y+33, r22	; 0x21
    1a06:	7a a3       	std	Y+34, r23	; 0x22
    1a08:	8b a3       	std	Y+35, r24	; 0x23
    1a0a:	9c a3       	std	Y+36, r25	; 0x24

		// Reference direction of Earth's magnetic field
		hx = mx * q0q0 - _2q0my * q3 + _2q0mz * q2 + mx * q1q1 + _2q1 * my * q2 + _2q1 * mz * q3 - mx * q2q2 - mx * q3q3;
    1a0c:	40 90 5c 03 	lds	r4, 0x035C	; 0x80035c <q3>
    1a10:	50 90 5d 03 	lds	r5, 0x035D	; 0x80035d <q3+0x1>
    1a14:	60 90 5e 03 	lds	r6, 0x035E	; 0x80035e <q3+0x2>
    1a18:	70 90 5f 03 	lds	r7, 0x035F	; 0x80035f <q3+0x3>
    1a1c:	c0 90 60 03 	lds	r12, 0x0360	; 0x800360 <q2>
    1a20:	d0 90 61 03 	lds	r13, 0x0361	; 0x800361 <q2+0x1>
    1a24:	e0 90 62 03 	lds	r14, 0x0362	; 0x800362 <q2+0x2>
    1a28:	f0 90 63 03 	lds	r15, 0x0363	; 0x800363 <q2+0x3>
    1a2c:	00 91 60 03 	lds	r16, 0x0360	; 0x800360 <q2>
    1a30:	10 91 61 03 	lds	r17, 0x0361	; 0x800361 <q2+0x1>
    1a34:	20 91 62 03 	lds	r18, 0x0362	; 0x800362 <q2+0x2>
    1a38:	30 91 63 03 	lds	r19, 0x0363	; 0x800363 <q2+0x3>
    1a3c:	09 83       	std	Y+1, r16	; 0x01
    1a3e:	1a 83       	std	Y+2, r17	; 0x02
    1a40:	2b 83       	std	Y+3, r18	; 0x03
    1a42:	3c 83       	std	Y+4, r19	; 0x04
    1a44:	80 90 5c 03 	lds	r8, 0x035C	; 0x80035c <q3>
    1a48:	90 90 5d 03 	lds	r9, 0x035D	; 0x80035d <q3+0x1>
    1a4c:	a0 90 5e 03 	lds	r10, 0x035E	; 0x80035e <q3+0x2>
    1a50:	b0 90 5f 03 	lds	r11, 0x035F	; 0x80035f <q3+0x3>
    1a54:	2d a1       	ldd	r18, Y+37	; 0x25
    1a56:	3e a1       	ldd	r19, Y+38	; 0x26
    1a58:	4f a1       	ldd	r20, Y+39	; 0x27
    1a5a:	58 a5       	ldd	r21, Y+40	; 0x28
    1a5c:	69 89       	ldd	r22, Y+17	; 0x11
    1a5e:	7a 89       	ldd	r23, Y+18	; 0x12
    1a60:	8b 89       	ldd	r24, Y+19	; 0x13
    1a62:	9c 89       	ldd	r25, Y+20	; 0x14
    1a64:	0e 94 b1 2a 	call	0x5562	; 0x5562 <__mulsf3>
    1a68:	2d 96       	adiw	r28, 0x0d	; 13
    1a6a:	6c af       	std	Y+60, r22	; 0x3c
    1a6c:	7d af       	std	Y+61, r23	; 0x3d
    1a6e:	8e af       	std	Y+62, r24	; 0x3e
    1a70:	9f af       	std	Y+63, r25	; 0x3f
    1a72:	2d 97       	sbiw	r28, 0x0d	; 13
    1a74:	a3 01       	movw	r20, r6
    1a76:	92 01       	movw	r18, r4
    1a78:	69 ad       	ldd	r22, Y+57	; 0x39
    1a7a:	7a ad       	ldd	r23, Y+58	; 0x3a
    1a7c:	8b ad       	ldd	r24, Y+59	; 0x3b
    1a7e:	9c ad       	ldd	r25, Y+60	; 0x3c
    1a80:	0e 94 b1 2a 	call	0x5562	; 0x5562 <__mulsf3>
    1a84:	9b 01       	movw	r18, r22
    1a86:	ac 01       	movw	r20, r24
    1a88:	2d 96       	adiw	r28, 0x0d	; 13
    1a8a:	6c ad       	ldd	r22, Y+60	; 0x3c
    1a8c:	7d ad       	ldd	r23, Y+61	; 0x3d
    1a8e:	8e ad       	ldd	r24, Y+62	; 0x3e
    1a90:	9f ad       	ldd	r25, Y+63	; 0x3f
    1a92:	2d 97       	sbiw	r28, 0x0d	; 13
    1a94:	0e 94 2b 28 	call	0x5056	; 0x5056 <__subsf3>
    1a98:	2b 01       	movw	r4, r22
    1a9a:	3c 01       	movw	r6, r24
    1a9c:	a7 01       	movw	r20, r14
    1a9e:	96 01       	movw	r18, r12
    1aa0:	69 85       	ldd	r22, Y+9	; 0x09
    1aa2:	7a 85       	ldd	r23, Y+10	; 0x0a
    1aa4:	8b 85       	ldd	r24, Y+11	; 0x0b
    1aa6:	9c 85       	ldd	r25, Y+12	; 0x0c
    1aa8:	0e 94 b1 2a 	call	0x5562	; 0x5562 <__mulsf3>
    1aac:	9b 01       	movw	r18, r22
    1aae:	ac 01       	movw	r20, r24
    1ab0:	c3 01       	movw	r24, r6
    1ab2:	b2 01       	movw	r22, r4
    1ab4:	0e 94 2c 28 	call	0x5058	; 0x5058 <__addsf3>
    1ab8:	6b 01       	movw	r12, r22
    1aba:	7c 01       	movw	r14, r24
    1abc:	2d 8d       	ldd	r18, Y+29	; 0x1d
    1abe:	3e 8d       	ldd	r19, Y+30	; 0x1e
    1ac0:	4f 8d       	ldd	r20, Y+31	; 0x1f
    1ac2:	58 a1       	ldd	r21, Y+32	; 0x20
    1ac4:	69 89       	ldd	r22, Y+17	; 0x11
    1ac6:	7a 89       	ldd	r23, Y+18	; 0x12
    1ac8:	8b 89       	ldd	r24, Y+19	; 0x13
    1aca:	9c 89       	ldd	r25, Y+20	; 0x14
    1acc:	0e 94 b1 2a 	call	0x5562	; 0x5562 <__mulsf3>
    1ad0:	9b 01       	movw	r18, r22
    1ad2:	ac 01       	movw	r20, r24
    1ad4:	c7 01       	movw	r24, r14
    1ad6:	b6 01       	movw	r22, r12
    1ad8:	0e 94 2c 28 	call	0x5058	; 0x5058 <__addsf3>
    1adc:	6b 01       	movw	r12, r22
    1ade:	7c 01       	movw	r14, r24
    1ae0:	29 a9       	ldd	r18, Y+49	; 0x31
    1ae2:	3a a9       	ldd	r19, Y+50	; 0x32
    1ae4:	4b a9       	ldd	r20, Y+51	; 0x33
    1ae6:	5c a9       	ldd	r21, Y+52	; 0x34
    1ae8:	6d 81       	ldd	r22, Y+5	; 0x05
    1aea:	7e 81       	ldd	r23, Y+6	; 0x06
    1aec:	8f 81       	ldd	r24, Y+7	; 0x07
    1aee:	98 85       	ldd	r25, Y+8	; 0x08
    1af0:	0e 94 b1 2a 	call	0x5562	; 0x5562 <__mulsf3>
    1af4:	29 81       	ldd	r18, Y+1	; 0x01
    1af6:	3a 81       	ldd	r19, Y+2	; 0x02
    1af8:	4b 81       	ldd	r20, Y+3	; 0x03
    1afa:	5c 81       	ldd	r21, Y+4	; 0x04
    1afc:	0e 94 b1 2a 	call	0x5562	; 0x5562 <__mulsf3>
    1b00:	9b 01       	movw	r18, r22
    1b02:	ac 01       	movw	r20, r24
    1b04:	c7 01       	movw	r24, r14
    1b06:	b6 01       	movw	r22, r12
    1b08:	0e 94 2c 28 	call	0x5058	; 0x5058 <__addsf3>
    1b0c:	6b 01       	movw	r12, r22
    1b0e:	7c 01       	movw	r14, r24
    1b10:	29 a9       	ldd	r18, Y+49	; 0x31
    1b12:	3a a9       	ldd	r19, Y+50	; 0x32
    1b14:	4b a9       	ldd	r20, Y+51	; 0x33
    1b16:	5c a9       	ldd	r21, Y+52	; 0x34
    1b18:	6d 85       	ldd	r22, Y+13	; 0x0d
    1b1a:	7e 85       	ldd	r23, Y+14	; 0x0e
    1b1c:	8f 85       	ldd	r24, Y+15	; 0x0f
    1b1e:	98 89       	ldd	r25, Y+16	; 0x10
    1b20:	0e 94 b1 2a 	call	0x5562	; 0x5562 <__mulsf3>
    1b24:	a5 01       	movw	r20, r10
    1b26:	94 01       	movw	r18, r8
    1b28:	0e 94 b1 2a 	call	0x5562	; 0x5562 <__mulsf3>
    1b2c:	9b 01       	movw	r18, r22
    1b2e:	ac 01       	movw	r20, r24
    1b30:	c7 01       	movw	r24, r14
    1b32:	b6 01       	movw	r22, r12
    1b34:	0e 94 2c 28 	call	0x5058	; 0x5058 <__addsf3>
    1b38:	6b 01       	movw	r12, r22
    1b3a:	7c 01       	movw	r14, r24
    1b3c:	29 8d       	ldd	r18, Y+25	; 0x19
    1b3e:	3a 8d       	ldd	r19, Y+26	; 0x1a
    1b40:	4b 8d       	ldd	r20, Y+27	; 0x1b
    1b42:	5c 8d       	ldd	r21, Y+28	; 0x1c
    1b44:	69 89       	ldd	r22, Y+17	; 0x11
    1b46:	7a 89       	ldd	r23, Y+18	; 0x12
    1b48:	8b 89       	ldd	r24, Y+19	; 0x13
    1b4a:	9c 89       	ldd	r25, Y+20	; 0x14
    1b4c:	0e 94 b1 2a 	call	0x5562	; 0x5562 <__mulsf3>
    1b50:	9b 01       	movw	r18, r22
    1b52:	ac 01       	movw	r20, r24
    1b54:	c7 01       	movw	r24, r14
    1b56:	b6 01       	movw	r22, r12
    1b58:	0e 94 2b 28 	call	0x5056	; 0x5056 <__subsf3>
    1b5c:	6b 01       	movw	r12, r22
    1b5e:	7c 01       	movw	r14, r24
    1b60:	29 a1       	ldd	r18, Y+33	; 0x21
    1b62:	3a a1       	ldd	r19, Y+34	; 0x22
    1b64:	4b a1       	ldd	r20, Y+35	; 0x23
    1b66:	5c a1       	ldd	r21, Y+36	; 0x24
    1b68:	69 89       	ldd	r22, Y+17	; 0x11
    1b6a:	7a 89       	ldd	r23, Y+18	; 0x12
    1b6c:	8b 89       	ldd	r24, Y+19	; 0x13
    1b6e:	9c 89       	ldd	r25, Y+20	; 0x14
    1b70:	0e 94 b1 2a 	call	0x5562	; 0x5562 <__mulsf3>
    1b74:	9b 01       	movw	r18, r22
    1b76:	ac 01       	movw	r20, r24
    1b78:	c7 01       	movw	r24, r14
    1b7a:	b6 01       	movw	r22, r12
    1b7c:	0e 94 2b 28 	call	0x5056	; 0x5056 <__subsf3>
    1b80:	69 83       	std	Y+1, r22	; 0x01
    1b82:	7a 83       	std	Y+2, r23	; 0x02
    1b84:	8b 83       	std	Y+3, r24	; 0x03
    1b86:	9c 83       	std	Y+4, r25	; 0x04
		hy = _2q0mx * q3 + my * q0q0 - _2q0mz * q1 + _2q1mx * q2 - my * q1q1 + my * q2q2 + _2q2 * mz * q3 - my * q3q3;
    1b88:	20 91 5c 03 	lds	r18, 0x035C	; 0x80035c <q3>
    1b8c:	30 91 5d 03 	lds	r19, 0x035D	; 0x80035d <q3+0x1>
    1b90:	40 91 5e 03 	lds	r20, 0x035E	; 0x80035e <q3+0x2>
    1b94:	50 91 5f 03 	lds	r21, 0x035F	; 0x80035f <q3+0x3>
    1b98:	40 90 64 03 	lds	r4, 0x0364	; 0x800364 <q1>
    1b9c:	50 90 65 03 	lds	r5, 0x0365	; 0x800365 <q1+0x1>
    1ba0:	60 90 66 03 	lds	r6, 0x0366	; 0x800366 <q1+0x2>
    1ba4:	70 90 67 03 	lds	r7, 0x0367	; 0x800367 <q1+0x3>
    1ba8:	c0 90 60 03 	lds	r12, 0x0360	; 0x800360 <q2>
    1bac:	d0 90 61 03 	lds	r13, 0x0361	; 0x800361 <q2+0x1>
    1bb0:	e0 90 62 03 	lds	r14, 0x0362	; 0x800362 <q2+0x2>
    1bb4:	f0 90 63 03 	lds	r15, 0x0363	; 0x800363 <q2+0x3>
    1bb8:	80 90 5c 03 	lds	r8, 0x035C	; 0x80035c <q3>
    1bbc:	90 90 5d 03 	lds	r9, 0x035D	; 0x80035d <q3+0x1>
    1bc0:	a0 90 5e 03 	lds	r10, 0x035E	; 0x80035e <q3+0x2>
    1bc4:	b0 90 5f 03 	lds	r11, 0x035F	; 0x80035f <q3+0x3>
    1bc8:	29 96       	adiw	r28, 0x09	; 9
    1bca:	6c ad       	ldd	r22, Y+60	; 0x3c
    1bcc:	7d ad       	ldd	r23, Y+61	; 0x3d
    1bce:	8e ad       	ldd	r24, Y+62	; 0x3e
    1bd0:	9f ad       	ldd	r25, Y+63	; 0x3f
    1bd2:	29 97       	sbiw	r28, 0x09	; 9
    1bd4:	0e 94 b1 2a 	call	0x5562	; 0x5562 <__mulsf3>
    1bd8:	2d 96       	adiw	r28, 0x0d	; 13
    1bda:	6c af       	std	Y+60, r22	; 0x3c
    1bdc:	7d af       	std	Y+61, r23	; 0x3d
    1bde:	8e af       	std	Y+62, r24	; 0x3e
    1be0:	9f af       	std	Y+63, r25	; 0x3f
    1be2:	2d 97       	sbiw	r28, 0x0d	; 13
    1be4:	2d a1       	ldd	r18, Y+37	; 0x25
    1be6:	3e a1       	ldd	r19, Y+38	; 0x26
    1be8:	4f a1       	ldd	r20, Y+39	; 0x27
    1bea:	58 a5       	ldd	r21, Y+40	; 0x28
    1bec:	6d 81       	ldd	r22, Y+5	; 0x05
    1bee:	7e 81       	ldd	r23, Y+6	; 0x06
    1bf0:	8f 81       	ldd	r24, Y+7	; 0x07
    1bf2:	98 85       	ldd	r25, Y+8	; 0x08
    1bf4:	0e 94 b1 2a 	call	0x5562	; 0x5562 <__mulsf3>
    1bf8:	9b 01       	movw	r18, r22
    1bfa:	ac 01       	movw	r20, r24
    1bfc:	2d 96       	adiw	r28, 0x0d	; 13
    1bfe:	6c ad       	ldd	r22, Y+60	; 0x3c
    1c00:	7d ad       	ldd	r23, Y+61	; 0x3d
    1c02:	8e ad       	ldd	r24, Y+62	; 0x3e
    1c04:	9f ad       	ldd	r25, Y+63	; 0x3f
    1c06:	2d 97       	sbiw	r28, 0x0d	; 13
    1c08:	0e 94 2c 28 	call	0x5058	; 0x5058 <__addsf3>
    1c0c:	2d 96       	adiw	r28, 0x0d	; 13
    1c0e:	6c af       	std	Y+60, r22	; 0x3c
    1c10:	7d af       	std	Y+61, r23	; 0x3d
    1c12:	8e af       	std	Y+62, r24	; 0x3e
    1c14:	9f af       	std	Y+63, r25	; 0x3f
    1c16:	2d 97       	sbiw	r28, 0x0d	; 13
    1c18:	a3 01       	movw	r20, r6
    1c1a:	92 01       	movw	r18, r4
    1c1c:	69 85       	ldd	r22, Y+9	; 0x09
    1c1e:	7a 85       	ldd	r23, Y+10	; 0x0a
    1c20:	8b 85       	ldd	r24, Y+11	; 0x0b
    1c22:	9c 85       	ldd	r25, Y+12	; 0x0c
    1c24:	0e 94 b1 2a 	call	0x5562	; 0x5562 <__mulsf3>
    1c28:	9b 01       	movw	r18, r22
    1c2a:	ac 01       	movw	r20, r24
    1c2c:	2d 96       	adiw	r28, 0x0d	; 13
    1c2e:	6c ad       	ldd	r22, Y+60	; 0x3c
    1c30:	7d ad       	ldd	r23, Y+61	; 0x3d
    1c32:	8e ad       	ldd	r24, Y+62	; 0x3e
    1c34:	9f ad       	ldd	r25, Y+63	; 0x3f
    1c36:	2d 97       	sbiw	r28, 0x0d	; 13
    1c38:	0e 94 2b 28 	call	0x5056	; 0x5056 <__subsf3>
    1c3c:	2b 01       	movw	r4, r22
    1c3e:	3c 01       	movw	r6, r24
    1c40:	a7 01       	movw	r20, r14
    1c42:	96 01       	movw	r18, r12
    1c44:	61 96       	adiw	r28, 0x11	; 17
    1c46:	6c ad       	ldd	r22, Y+60	; 0x3c
    1c48:	7d ad       	ldd	r23, Y+61	; 0x3d
    1c4a:	8e ad       	ldd	r24, Y+62	; 0x3e
    1c4c:	9f ad       	ldd	r25, Y+63	; 0x3f
    1c4e:	61 97       	sbiw	r28, 0x11	; 17
    1c50:	0e 94 b1 2a 	call	0x5562	; 0x5562 <__mulsf3>
    1c54:	9b 01       	movw	r18, r22
    1c56:	ac 01       	movw	r20, r24
    1c58:	c3 01       	movw	r24, r6
    1c5a:	b2 01       	movw	r22, r4
    1c5c:	0e 94 2c 28 	call	0x5058	; 0x5058 <__addsf3>
    1c60:	6b 01       	movw	r12, r22
    1c62:	7c 01       	movw	r14, r24
    1c64:	2d 8d       	ldd	r18, Y+29	; 0x1d
    1c66:	3e 8d       	ldd	r19, Y+30	; 0x1e
    1c68:	4f 8d       	ldd	r20, Y+31	; 0x1f
    1c6a:	58 a1       	ldd	r21, Y+32	; 0x20
    1c6c:	6d 81       	ldd	r22, Y+5	; 0x05
    1c6e:	7e 81       	ldd	r23, Y+6	; 0x06
    1c70:	8f 81       	ldd	r24, Y+7	; 0x07
    1c72:	98 85       	ldd	r25, Y+8	; 0x08
    1c74:	0e 94 b1 2a 	call	0x5562	; 0x5562 <__mulsf3>
    1c78:	9b 01       	movw	r18, r22
    1c7a:	ac 01       	movw	r20, r24
    1c7c:	c7 01       	movw	r24, r14
    1c7e:	b6 01       	movw	r22, r12
    1c80:	0e 94 2b 28 	call	0x5056	; 0x5056 <__subsf3>
    1c84:	6b 01       	movw	r12, r22
    1c86:	7c 01       	movw	r14, r24
    1c88:	29 8d       	ldd	r18, Y+25	; 0x19
    1c8a:	3a 8d       	ldd	r19, Y+26	; 0x1a
    1c8c:	4b 8d       	ldd	r20, Y+27	; 0x1b
    1c8e:	5c 8d       	ldd	r21, Y+28	; 0x1c
    1c90:	6d 81       	ldd	r22, Y+5	; 0x05
    1c92:	7e 81       	ldd	r23, Y+6	; 0x06
    1c94:	8f 81       	ldd	r24, Y+7	; 0x07
    1c96:	98 85       	ldd	r25, Y+8	; 0x08
    1c98:	0e 94 b1 2a 	call	0x5562	; 0x5562 <__mulsf3>
    1c9c:	9b 01       	movw	r18, r22
    1c9e:	ac 01       	movw	r20, r24
    1ca0:	c7 01       	movw	r24, r14
    1ca2:	b6 01       	movw	r22, r12
    1ca4:	0e 94 2c 28 	call	0x5058	; 0x5058 <__addsf3>
    1ca8:	6b 01       	movw	r12, r22
    1caa:	7c 01       	movw	r14, r24
    1cac:	2d a9       	ldd	r18, Y+53	; 0x35
    1cae:	3e a9       	ldd	r19, Y+54	; 0x36
    1cb0:	4f a9       	ldd	r20, Y+55	; 0x37
    1cb2:	58 ad       	ldd	r21, Y+56	; 0x38
    1cb4:	6d 85       	ldd	r22, Y+13	; 0x0d
    1cb6:	7e 85       	ldd	r23, Y+14	; 0x0e
    1cb8:	8f 85       	ldd	r24, Y+15	; 0x0f
    1cba:	98 89       	ldd	r25, Y+16	; 0x10
    1cbc:	0e 94 b1 2a 	call	0x5562	; 0x5562 <__mulsf3>
    1cc0:	a5 01       	movw	r20, r10
    1cc2:	94 01       	movw	r18, r8
    1cc4:	0e 94 b1 2a 	call	0x5562	; 0x5562 <__mulsf3>
    1cc8:	9b 01       	movw	r18, r22
    1cca:	ac 01       	movw	r20, r24
    1ccc:	c7 01       	movw	r24, r14
    1cce:	b6 01       	movw	r22, r12
    1cd0:	0e 94 2c 28 	call	0x5058	; 0x5058 <__addsf3>
    1cd4:	6b 01       	movw	r12, r22
    1cd6:	7c 01       	movw	r14, r24
    1cd8:	29 a1       	ldd	r18, Y+33	; 0x21
    1cda:	3a a1       	ldd	r19, Y+34	; 0x22
    1cdc:	4b a1       	ldd	r20, Y+35	; 0x23
    1cde:	5c a1       	ldd	r21, Y+36	; 0x24
    1ce0:	6d 81       	ldd	r22, Y+5	; 0x05
    1ce2:	7e 81       	ldd	r23, Y+6	; 0x06
    1ce4:	8f 81       	ldd	r24, Y+7	; 0x07
    1ce6:	98 85       	ldd	r25, Y+8	; 0x08
    1ce8:	0e 94 b1 2a 	call	0x5562	; 0x5562 <__mulsf3>
    1cec:	9b 01       	movw	r18, r22
    1cee:	ac 01       	movw	r20, r24
    1cf0:	c7 01       	movw	r24, r14
    1cf2:	b6 01       	movw	r22, r12
    1cf4:	0e 94 2b 28 	call	0x5056	; 0x5056 <__subsf3>
    1cf8:	6b 01       	movw	r12, r22
    1cfa:	7c 01       	movw	r14, r24
		_2bx = sqrt(hx * hx + hy * hy);
    1cfc:	29 81       	ldd	r18, Y+1	; 0x01
    1cfe:	3a 81       	ldd	r19, Y+2	; 0x02
    1d00:	4b 81       	ldd	r20, Y+3	; 0x03
    1d02:	5c 81       	ldd	r21, Y+4	; 0x04
    1d04:	ca 01       	movw	r24, r20
    1d06:	b9 01       	movw	r22, r18
    1d08:	0e 94 b1 2a 	call	0x5562	; 0x5562 <__mulsf3>
    1d0c:	4b 01       	movw	r8, r22
    1d0e:	5c 01       	movw	r10, r24
    1d10:	a7 01       	movw	r20, r14
    1d12:	96 01       	movw	r18, r12
    1d14:	c7 01       	movw	r24, r14
    1d16:	b6 01       	movw	r22, r12
    1d18:	0e 94 b1 2a 	call	0x5562	; 0x5562 <__mulsf3>
    1d1c:	9b 01       	movw	r18, r22
    1d1e:	ac 01       	movw	r20, r24
    1d20:	c5 01       	movw	r24, r10
    1d22:	b4 01       	movw	r22, r8
    1d24:	0e 94 2c 28 	call	0x5058	; 0x5058 <__addsf3>
    1d28:	0e 94 24 2b 	call	0x5648	; 0x5648 <sqrt>
    1d2c:	69 87       	std	Y+9, r22	; 0x09
    1d2e:	7a 87       	std	Y+10, r23	; 0x0a
    1d30:	8b 87       	std	Y+11, r24	; 0x0b
    1d32:	9c 87       	std	Y+12, r25	; 0x0c
		_2bz = -_2q0mx * q2 + _2q0my * q1 + mz * q0q0 + _2q1mx * q3 - mz * q1q1 + _2q2 * my * q3 - mz * q2q2 + mz * q3q3;
    1d34:	20 91 60 03 	lds	r18, 0x0360	; 0x800360 <q2>
    1d38:	30 91 61 03 	lds	r19, 0x0361	; 0x800361 <q2+0x1>
    1d3c:	40 91 62 03 	lds	r20, 0x0362	; 0x800362 <q2+0x2>
    1d40:	50 91 63 03 	lds	r21, 0x0363	; 0x800363 <q2+0x3>
    1d44:	40 90 64 03 	lds	r4, 0x0364	; 0x800364 <q1>
    1d48:	50 90 65 03 	lds	r5, 0x0365	; 0x800365 <q1+0x1>
    1d4c:	60 90 66 03 	lds	r6, 0x0366	; 0x800366 <q1+0x2>
    1d50:	70 90 67 03 	lds	r7, 0x0367	; 0x800367 <q1+0x3>
    1d54:	c0 90 5c 03 	lds	r12, 0x035C	; 0x80035c <q3>
    1d58:	d0 90 5d 03 	lds	r13, 0x035D	; 0x80035d <q3+0x1>
    1d5c:	e0 90 5e 03 	lds	r14, 0x035E	; 0x80035e <q3+0x2>
    1d60:	f0 90 5f 03 	lds	r15, 0x035F	; 0x80035f <q3+0x3>
    1d64:	80 90 5c 03 	lds	r8, 0x035C	; 0x80035c <q3>
    1d68:	90 90 5d 03 	lds	r9, 0x035D	; 0x80035d <q3+0x1>
    1d6c:	a0 90 5e 03 	lds	r10, 0x035E	; 0x80035e <q3+0x2>
    1d70:	b0 90 5f 03 	lds	r11, 0x035F	; 0x80035f <q3+0x3>
    1d74:	29 96       	adiw	r28, 0x09	; 9
    1d76:	6c ad       	ldd	r22, Y+60	; 0x3c
    1d78:	7d ad       	ldd	r23, Y+61	; 0x3d
    1d7a:	8e ad       	ldd	r24, Y+62	; 0x3e
    1d7c:	9f ad       	ldd	r25, Y+63	; 0x3f
    1d7e:	29 97       	sbiw	r28, 0x09	; 9
    1d80:	90 58       	subi	r25, 0x80	; 128
    1d82:	0e 94 b1 2a 	call	0x5562	; 0x5562 <__mulsf3>
    1d86:	69 83       	std	Y+1, r22	; 0x01
    1d88:	7a 83       	std	Y+2, r23	; 0x02
    1d8a:	8b 83       	std	Y+3, r24	; 0x03
    1d8c:	9c 83       	std	Y+4, r25	; 0x04
    1d8e:	a3 01       	movw	r20, r6
    1d90:	92 01       	movw	r18, r4
    1d92:	69 ad       	ldd	r22, Y+57	; 0x39
    1d94:	7a ad       	ldd	r23, Y+58	; 0x3a
    1d96:	8b ad       	ldd	r24, Y+59	; 0x3b
    1d98:	9c ad       	ldd	r25, Y+60	; 0x3c
    1d9a:	0e 94 b1 2a 	call	0x5562	; 0x5562 <__mulsf3>
    1d9e:	9b 01       	movw	r18, r22
    1da0:	ac 01       	movw	r20, r24
    1da2:	69 81       	ldd	r22, Y+1	; 0x01
    1da4:	7a 81       	ldd	r23, Y+2	; 0x02
    1da6:	8b 81       	ldd	r24, Y+3	; 0x03
    1da8:	9c 81       	ldd	r25, Y+4	; 0x04
    1daa:	0e 94 2c 28 	call	0x5058	; 0x5058 <__addsf3>
    1dae:	2b 01       	movw	r4, r22
    1db0:	3c 01       	movw	r6, r24
    1db2:	2d a1       	ldd	r18, Y+37	; 0x25
    1db4:	3e a1       	ldd	r19, Y+38	; 0x26
    1db6:	4f a1       	ldd	r20, Y+39	; 0x27
    1db8:	58 a5       	ldd	r21, Y+40	; 0x28
    1dba:	6d 85       	ldd	r22, Y+13	; 0x0d
    1dbc:	7e 85       	ldd	r23, Y+14	; 0x0e
    1dbe:	8f 85       	ldd	r24, Y+15	; 0x0f
    1dc0:	98 89       	ldd	r25, Y+16	; 0x10
    1dc2:	0e 94 b1 2a 	call	0x5562	; 0x5562 <__mulsf3>
    1dc6:	9b 01       	movw	r18, r22
    1dc8:	ac 01       	movw	r20, r24
    1dca:	c3 01       	movw	r24, r6
    1dcc:	b2 01       	movw	r22, r4
    1dce:	0e 94 2c 28 	call	0x5058	; 0x5058 <__addsf3>
    1dd2:	2b 01       	movw	r4, r22
    1dd4:	3c 01       	movw	r6, r24
    1dd6:	a7 01       	movw	r20, r14
    1dd8:	96 01       	movw	r18, r12
    1dda:	61 96       	adiw	r28, 0x11	; 17
    1ddc:	6c ad       	ldd	r22, Y+60	; 0x3c
    1dde:	7d ad       	ldd	r23, Y+61	; 0x3d
    1de0:	8e ad       	ldd	r24, Y+62	; 0x3e
    1de2:	9f ad       	ldd	r25, Y+63	; 0x3f
    1de4:	61 97       	sbiw	r28, 0x11	; 17
    1de6:	0e 94 b1 2a 	call	0x5562	; 0x5562 <__mulsf3>
    1dea:	9b 01       	movw	r18, r22
    1dec:	ac 01       	movw	r20, r24
    1dee:	c3 01       	movw	r24, r6
    1df0:	b2 01       	movw	r22, r4
    1df2:	0e 94 2c 28 	call	0x5058	; 0x5058 <__addsf3>
    1df6:	6b 01       	movw	r12, r22
    1df8:	7c 01       	movw	r14, r24
    1dfa:	2d 8d       	ldd	r18, Y+29	; 0x1d
    1dfc:	3e 8d       	ldd	r19, Y+30	; 0x1e
    1dfe:	4f 8d       	ldd	r20, Y+31	; 0x1f
    1e00:	58 a1       	ldd	r21, Y+32	; 0x20
    1e02:	6d 85       	ldd	r22, Y+13	; 0x0d
    1e04:	7e 85       	ldd	r23, Y+14	; 0x0e
    1e06:	8f 85       	ldd	r24, Y+15	; 0x0f
    1e08:	98 89       	ldd	r25, Y+16	; 0x10
    1e0a:	0e 94 b1 2a 	call	0x5562	; 0x5562 <__mulsf3>
    1e0e:	9b 01       	movw	r18, r22
    1e10:	ac 01       	movw	r20, r24
    1e12:	c7 01       	movw	r24, r14
    1e14:	b6 01       	movw	r22, r12
    1e16:	0e 94 2b 28 	call	0x5056	; 0x5056 <__subsf3>
    1e1a:	6b 01       	movw	r12, r22
    1e1c:	7c 01       	movw	r14, r24
    1e1e:	2d a9       	ldd	r18, Y+53	; 0x35
    1e20:	3e a9       	ldd	r19, Y+54	; 0x36
    1e22:	4f a9       	ldd	r20, Y+55	; 0x37
    1e24:	58 ad       	ldd	r21, Y+56	; 0x38
    1e26:	6d 81       	ldd	r22, Y+5	; 0x05
    1e28:	7e 81       	ldd	r23, Y+6	; 0x06
    1e2a:	8f 81       	ldd	r24, Y+7	; 0x07
    1e2c:	98 85       	ldd	r25, Y+8	; 0x08
    1e2e:	0e 94 b1 2a 	call	0x5562	; 0x5562 <__mulsf3>
    1e32:	a5 01       	movw	r20, r10
    1e34:	94 01       	movw	r18, r8
    1e36:	0e 94 b1 2a 	call	0x5562	; 0x5562 <__mulsf3>
    1e3a:	9b 01       	movw	r18, r22
    1e3c:	ac 01       	movw	r20, r24
    1e3e:	c7 01       	movw	r24, r14
    1e40:	b6 01       	movw	r22, r12
    1e42:	0e 94 2c 28 	call	0x5058	; 0x5058 <__addsf3>
    1e46:	6b 01       	movw	r12, r22
    1e48:	7c 01       	movw	r14, r24
    1e4a:	29 8d       	ldd	r18, Y+25	; 0x19
    1e4c:	3a 8d       	ldd	r19, Y+26	; 0x1a
    1e4e:	4b 8d       	ldd	r20, Y+27	; 0x1b
    1e50:	5c 8d       	ldd	r21, Y+28	; 0x1c
    1e52:	6d 85       	ldd	r22, Y+13	; 0x0d
    1e54:	7e 85       	ldd	r23, Y+14	; 0x0e
    1e56:	8f 85       	ldd	r24, Y+15	; 0x0f
    1e58:	98 89       	ldd	r25, Y+16	; 0x10
    1e5a:	0e 94 b1 2a 	call	0x5562	; 0x5562 <__mulsf3>
    1e5e:	9b 01       	movw	r18, r22
    1e60:	ac 01       	movw	r20, r24
    1e62:	c7 01       	movw	r24, r14
    1e64:	b6 01       	movw	r22, r12
    1e66:	0e 94 2b 28 	call	0x5056	; 0x5056 <__subsf3>
    1e6a:	6b 01       	movw	r12, r22
    1e6c:	7c 01       	movw	r14, r24
    1e6e:	29 a1       	ldd	r18, Y+33	; 0x21
    1e70:	3a a1       	ldd	r19, Y+34	; 0x22
    1e72:	4b a1       	ldd	r20, Y+35	; 0x23
    1e74:	5c a1       	ldd	r21, Y+36	; 0x24
    1e76:	6d 85       	ldd	r22, Y+13	; 0x0d
    1e78:	7e 85       	ldd	r23, Y+14	; 0x0e
    1e7a:	8f 85       	ldd	r24, Y+15	; 0x0f
    1e7c:	98 89       	ldd	r25, Y+16	; 0x10
    1e7e:	0e 94 b1 2a 	call	0x5562	; 0x5562 <__mulsf3>
    1e82:	9b 01       	movw	r18, r22
    1e84:	ac 01       	movw	r20, r24
    1e86:	c7 01       	movw	r24, r14
    1e88:	b6 01       	movw	r22, r12
    1e8a:	0e 94 2c 28 	call	0x5058	; 0x5058 <__addsf3>
    1e8e:	69 83       	std	Y+1, r22	; 0x01
    1e90:	7a 83       	std	Y+2, r23	; 0x02
    1e92:	8b 83       	std	Y+3, r24	; 0x03
    1e94:	9c 83       	std	Y+4, r25	; 0x04
		_4bx = 2.0f * _2bx;
		_4bz = 2.0f * _2bz;
    1e96:	9b 01       	movw	r18, r22
    1e98:	ac 01       	movw	r20, r24
    1e9a:	0e 94 2c 28 	call	0x5058	; 0x5058 <__addsf3>
    1e9e:	29 96       	adiw	r28, 0x09	; 9
    1ea0:	6c af       	std	Y+60, r22	; 0x3c
    1ea2:	7d af       	std	Y+61, r23	; 0x3d
    1ea4:	8e af       	std	Y+62, r24	; 0x3e
    1ea6:	9f af       	std	Y+63, r25	; 0x3f
    1ea8:	29 97       	sbiw	r28, 0x09	; 9

		// Gradient decent algorithm corrective step
		s0 = -_2q2 * (2.0f * q1q3 - _2q0q2 - ax) + _2q1 * (2.0f * q0q1 + _2q2q3 - ay) - _2bz * q2 * (_2bx * (0.5f - q2q2 - q3q3) + _2bz * (q1q3 - q0q2) - mx) + (-_2bx * q3 + _2bz * q1) * (_2bx * (q1q2 - q0q3) + _2bz * (q0q1 + q2q3) - my) + _2bx * q2 * (_2bx * (q0q2 + q1q3) + _2bz * (0.5f - q1q1 - q2q2) - mz);
    1eaa:	2d 89       	ldd	r18, Y+21	; 0x15
    1eac:	3e 89       	ldd	r19, Y+22	; 0x16
    1eae:	4f 89       	ldd	r20, Y+23	; 0x17
    1eb0:	58 8d       	ldd	r21, Y+24	; 0x18
    1eb2:	ca 01       	movw	r24, r20
    1eb4:	b9 01       	movw	r22, r18
    1eb6:	0e 94 2c 28 	call	0x5058	; 0x5058 <__addsf3>
    1eba:	6b 01       	movw	r12, r22
    1ebc:	7c 01       	movw	r14, r24
    1ebe:	21 96       	adiw	r28, 0x01	; 1
    1ec0:	2c ad       	ldd	r18, Y+60	; 0x3c
    1ec2:	3d ad       	ldd	r19, Y+61	; 0x3d
    1ec4:	4e ad       	ldd	r20, Y+62	; 0x3e
    1ec6:	5f ad       	ldd	r21, Y+63	; 0x3f
    1ec8:	21 97       	sbiw	r28, 0x01	; 1
    1eca:	ca 01       	movw	r24, r20
    1ecc:	b9 01       	movw	r22, r18
    1ece:	0e 94 2c 28 	call	0x5058	; 0x5058 <__addsf3>
    1ed2:	ad 96       	adiw	r28, 0x2d	; 45
    1ed4:	2c ad       	ldd	r18, Y+60	; 0x3c
    1ed6:	3d ad       	ldd	r19, Y+61	; 0x3d
    1ed8:	4e ad       	ldd	r20, Y+62	; 0x3e
    1eda:	5f ad       	ldd	r21, Y+63	; 0x3f
    1edc:	ad 97       	sbiw	r28, 0x2d	; 45
    1ede:	0e 94 b1 2a 	call	0x5562	; 0x5562 <__mulsf3>
    1ee2:	9b 01       	movw	r18, r22
    1ee4:	ac 01       	movw	r20, r24
    1ee6:	c7 01       	movw	r24, r14
    1ee8:	b6 01       	movw	r22, r12
    1eea:	0e 94 2b 28 	call	0x5056	; 0x5056 <__subsf3>
    1eee:	c7 57       	subi	r28, 0x77	; 119
    1ef0:	df 4f       	sbci	r29, 0xFF	; 255
    1ef2:	28 81       	ld	r18, Y
    1ef4:	39 81       	ldd	r19, Y+1	; 0x01
    1ef6:	4a 81       	ldd	r20, Y+2	; 0x02
    1ef8:	5b 81       	ldd	r21, Y+3	; 0x03
    1efa:	c9 58       	subi	r28, 0x89	; 137
    1efc:	d0 40       	sbci	r29, 0x00	; 0
    1efe:	0e 94 2b 28 	call	0x5056	; 0x5056 <__subsf3>
    1f02:	6d a3       	std	Y+37, r22	; 0x25
    1f04:	7e a3       	std	Y+38, r23	; 0x26
    1f06:	8f a3       	std	Y+39, r24	; 0x27
    1f08:	98 a7       	std	Y+40, r25	; 0x28
    1f0a:	2d a5       	ldd	r18, Y+45	; 0x2d
    1f0c:	3e a5       	ldd	r19, Y+46	; 0x2e
    1f0e:	4f a5       	ldd	r20, Y+47	; 0x2f
    1f10:	58 a9       	ldd	r21, Y+48	; 0x30
    1f12:	ca 01       	movw	r24, r20
    1f14:	b9 01       	movw	r22, r18
    1f16:	0e 94 2c 28 	call	0x5058	; 0x5058 <__addsf3>
    1f1a:	e1 96       	adiw	r28, 0x31	; 49
    1f1c:	2c ad       	ldd	r18, Y+60	; 0x3c
    1f1e:	3d ad       	ldd	r19, Y+61	; 0x3d
    1f20:	4e ad       	ldd	r20, Y+62	; 0x3e
    1f22:	5f ad       	ldd	r21, Y+63	; 0x3f
    1f24:	e1 97       	sbiw	r28, 0x31	; 49
    1f26:	0e 94 b1 2a 	call	0x5562	; 0x5562 <__mulsf3>
    1f2a:	6b 01       	movw	r12, r22
    1f2c:	7c 01       	movw	r14, r24
    1f2e:	29 a5       	ldd	r18, Y+41	; 0x29
    1f30:	3a a5       	ldd	r19, Y+42	; 0x2a
    1f32:	4b a5       	ldd	r20, Y+43	; 0x2b
    1f34:	5c a5       	ldd	r21, Y+44	; 0x2c
    1f36:	ca 01       	movw	r24, r20
    1f38:	b9 01       	movw	r22, r18
    1f3a:	0e 94 2c 28 	call	0x5058	; 0x5058 <__addsf3>
    1f3e:	9b 01       	movw	r18, r22
    1f40:	ac 01       	movw	r20, r24
    1f42:	c7 01       	movw	r24, r14
    1f44:	b6 01       	movw	r22, r12
    1f46:	0e 94 2c 28 	call	0x5058	; 0x5058 <__addsf3>
    1f4a:	c3 57       	subi	r28, 0x73	; 115
    1f4c:	df 4f       	sbci	r29, 0xFF	; 255
    1f4e:	28 81       	ld	r18, Y
    1f50:	39 81       	ldd	r19, Y+1	; 0x01
    1f52:	4a 81       	ldd	r20, Y+2	; 0x02
    1f54:	5b 81       	ldd	r21, Y+3	; 0x03
    1f56:	cd 58       	subi	r28, 0x8D	; 141
    1f58:	d0 40       	sbci	r29, 0x00	; 0
    1f5a:	0e 94 2b 28 	call	0x5056	; 0x5056 <__subsf3>
    1f5e:	21 96       	adiw	r28, 0x01	; 1
    1f60:	6c af       	std	Y+60, r22	; 0x3c
    1f62:	7d af       	std	Y+61, r23	; 0x3d
    1f64:	8e af       	std	Y+62, r24	; 0x3e
    1f66:	9f af       	std	Y+63, r25	; 0x3f
    1f68:	21 97       	sbiw	r28, 0x01	; 1
    1f6a:	e0 90 60 03 	lds	r14, 0x0360	; 0x800360 <q2>
    1f6e:	f0 90 61 03 	lds	r15, 0x0361	; 0x800361 <q2+0x1>
    1f72:	00 91 62 03 	lds	r16, 0x0362	; 0x800362 <q2+0x2>
    1f76:	10 91 63 03 	lds	r17, 0x0363	; 0x800363 <q2+0x3>
    1f7a:	ed a6       	std	Y+45, r14	; 0x2d
    1f7c:	fe a6       	std	Y+46, r15	; 0x2e
    1f7e:	0f a7       	std	Y+47, r16	; 0x2f
    1f80:	18 ab       	std	Y+48, r17	; 0x30
    1f82:	29 8d       	ldd	r18, Y+25	; 0x19
    1f84:	3a 8d       	ldd	r19, Y+26	; 0x1a
    1f86:	4b 8d       	ldd	r20, Y+27	; 0x1b
    1f88:	5c 8d       	ldd	r21, Y+28	; 0x1c
    1f8a:	60 e0       	ldi	r22, 0x00	; 0
    1f8c:	70 e0       	ldi	r23, 0x00	; 0
    1f8e:	80 e0       	ldi	r24, 0x00	; 0
    1f90:	9f e3       	ldi	r25, 0x3F	; 63
    1f92:	0e 94 2b 28 	call	0x5056	; 0x5056 <__subsf3>
    1f96:	29 a1       	ldd	r18, Y+33	; 0x21
    1f98:	3a a1       	ldd	r19, Y+34	; 0x22
    1f9a:	4b a1       	ldd	r20, Y+35	; 0x23
    1f9c:	5c a1       	ldd	r21, Y+36	; 0x24
    1f9e:	0e 94 2b 28 	call	0x5056	; 0x5056 <__subsf3>
    1fa2:	29 85       	ldd	r18, Y+9	; 0x09
    1fa4:	3a 85       	ldd	r19, Y+10	; 0x0a
    1fa6:	4b 85       	ldd	r20, Y+11	; 0x0b
    1fa8:	5c 85       	ldd	r21, Y+12	; 0x0c
    1faa:	0e 94 b1 2a 	call	0x5562	; 0x5562 <__mulsf3>
    1fae:	6b 01       	movw	r12, r22
    1fb0:	7c 01       	movw	r14, r24
    1fb2:	65 96       	adiw	r28, 0x15	; 21
    1fb4:	2c ad       	ldd	r18, Y+60	; 0x3c
    1fb6:	3d ad       	ldd	r19, Y+61	; 0x3d
    1fb8:	4e ad       	ldd	r20, Y+62	; 0x3e
    1fba:	5f ad       	ldd	r21, Y+63	; 0x3f
    1fbc:	65 97       	sbiw	r28, 0x15	; 21
    1fbe:	6d 89       	ldd	r22, Y+21	; 0x15
    1fc0:	7e 89       	ldd	r23, Y+22	; 0x16
    1fc2:	8f 89       	ldd	r24, Y+23	; 0x17
    1fc4:	98 8d       	ldd	r25, Y+24	; 0x18
    1fc6:	0e 94 2b 28 	call	0x5056	; 0x5056 <__subsf3>
    1fca:	29 81       	ldd	r18, Y+1	; 0x01
    1fcc:	3a 81       	ldd	r19, Y+2	; 0x02
    1fce:	4b 81       	ldd	r20, Y+3	; 0x03
    1fd0:	5c 81       	ldd	r21, Y+4	; 0x04
    1fd2:	0e 94 b1 2a 	call	0x5562	; 0x5562 <__mulsf3>
    1fd6:	9b 01       	movw	r18, r22
    1fd8:	ac 01       	movw	r20, r24
    1fda:	c7 01       	movw	r24, r14
    1fdc:	b6 01       	movw	r22, r12
    1fde:	0e 94 2c 28 	call	0x5058	; 0x5058 <__addsf3>
    1fe2:	29 89       	ldd	r18, Y+17	; 0x11
    1fe4:	3a 89       	ldd	r19, Y+18	; 0x12
    1fe6:	4b 89       	ldd	r20, Y+19	; 0x13
    1fe8:	5c 89       	ldd	r21, Y+20	; 0x14
    1fea:	0e 94 2b 28 	call	0x5056	; 0x5056 <__subsf3>
    1fee:	69 8b       	std	Y+17, r22	; 0x11
    1ff0:	7a 8b       	std	Y+18, r23	; 0x12
    1ff2:	8b 8b       	std	Y+19, r24	; 0x13
    1ff4:	9c 8b       	std	Y+20, r25	; 0x14
    1ff6:	09 85       	ldd	r16, Y+9	; 0x09
    1ff8:	1a 85       	ldd	r17, Y+10	; 0x0a
    1ffa:	2b 85       	ldd	r18, Y+11	; 0x0b
    1ffc:	3c 85       	ldd	r19, Y+12	; 0x0c
    1ffe:	30 58       	subi	r19, 0x80	; 128
    2000:	09 a3       	std	Y+33, r16	; 0x21
    2002:	1a a3       	std	Y+34, r17	; 0x22
    2004:	2b a3       	std	Y+35, r18	; 0x23
    2006:	3c a3       	std	Y+36, r19	; 0x24
    2008:	40 90 5c 03 	lds	r4, 0x035C	; 0x80035c <q3>
    200c:	50 90 5d 03 	lds	r5, 0x035D	; 0x80035d <q3+0x1>
    2010:	60 90 5e 03 	lds	r6, 0x035E	; 0x80035e <q3+0x2>
    2014:	70 90 5f 03 	lds	r7, 0x035F	; 0x80035f <q3+0x3>
    2018:	80 90 64 03 	lds	r8, 0x0364	; 0x800364 <q1>
    201c:	90 90 65 03 	lds	r9, 0x0365	; 0x800365 <q1+0x1>
    2020:	a0 90 66 03 	lds	r10, 0x0366	; 0x800366 <q1+0x2>
    2024:	b0 90 67 03 	lds	r11, 0x0367	; 0x800367 <q1+0x3>
    2028:	c3 58       	subi	r28, 0x83	; 131
    202a:	df 4f       	sbci	r29, 0xFF	; 255
    202c:	28 81       	ld	r18, Y
    202e:	39 81       	ldd	r19, Y+1	; 0x01
    2030:	4a 81       	ldd	r20, Y+2	; 0x02
    2032:	5b 81       	ldd	r21, Y+3	; 0x03
    2034:	cd 57       	subi	r28, 0x7D	; 125
    2036:	d0 40       	sbci	r29, 0x00	; 0
    2038:	ed 96       	adiw	r28, 0x3d	; 61
    203a:	6c ad       	ldd	r22, Y+60	; 0x3c
    203c:	7d ad       	ldd	r23, Y+61	; 0x3d
    203e:	8e ad       	ldd	r24, Y+62	; 0x3e
    2040:	9f ad       	ldd	r25, Y+63	; 0x3f
    2042:	ed 97       	sbiw	r28, 0x3d	; 61
    2044:	0e 94 b1 2a 	call	0x5562	; 0x5562 <__mulsf3>
    2048:	6b 01       	movw	r12, r22
    204a:	7c 01       	movw	r14, r24
    204c:	e9 96       	adiw	r28, 0x39	; 57
    204e:	2c ad       	ldd	r18, Y+60	; 0x3c
    2050:	3d ad       	ldd	r19, Y+61	; 0x3d
    2052:	4e ad       	ldd	r20, Y+62	; 0x3e
    2054:	5f ad       	ldd	r21, Y+63	; 0x3f
    2056:	e9 97       	sbiw	r28, 0x39	; 57
    2058:	e5 96       	adiw	r28, 0x35	; 53
    205a:	6c ad       	ldd	r22, Y+60	; 0x3c
    205c:	7d ad       	ldd	r23, Y+61	; 0x3d
    205e:	8e ad       	ldd	r24, Y+62	; 0x3e
    2060:	9f ad       	ldd	r25, Y+63	; 0x3f
    2062:	e5 97       	sbiw	r28, 0x35	; 53
    2064:	0e 94 b1 2a 	call	0x5562	; 0x5562 <__mulsf3>
    2068:	9b 01       	movw	r18, r22
    206a:	ac 01       	movw	r20, r24
    206c:	c7 01       	movw	r24, r14
    206e:	b6 01       	movw	r22, r12
    2070:	0e 94 2b 28 	call	0x5056	; 0x5056 <__subsf3>
    2074:	29 85       	ldd	r18, Y+9	; 0x09
    2076:	3a 85       	ldd	r19, Y+10	; 0x0a
    2078:	4b 85       	ldd	r20, Y+11	; 0x0b
    207a:	5c 85       	ldd	r21, Y+12	; 0x0c
    207c:	0e 94 b1 2a 	call	0x5562	; 0x5562 <__mulsf3>
    2080:	6b 01       	movw	r12, r22
    2082:	7c 01       	movw	r14, r24
    2084:	cb 57       	subi	r28, 0x7B	; 123
    2086:	df 4f       	sbci	r29, 0xFF	; 255
    2088:	28 81       	ld	r18, Y
    208a:	39 81       	ldd	r19, Y+1	; 0x01
    208c:	4a 81       	ldd	r20, Y+2	; 0x02
    208e:	5b 81       	ldd	r21, Y+3	; 0x03
    2090:	c5 58       	subi	r28, 0x85	; 133
    2092:	d0 40       	sbci	r29, 0x00	; 0
    2094:	cf 57       	subi	r28, 0x7F	; 127
    2096:	df 4f       	sbci	r29, 0xFF	; 255
    2098:	68 81       	ld	r22, Y
    209a:	79 81       	ldd	r23, Y+1	; 0x01
    209c:	8a 81       	ldd	r24, Y+2	; 0x02
    209e:	9b 81       	ldd	r25, Y+3	; 0x03
    20a0:	c1 58       	subi	r28, 0x81	; 129
    20a2:	d0 40       	sbci	r29, 0x00	; 0
    20a4:	0e 94 b1 2a 	call	0x5562	; 0x5562 <__mulsf3>
    20a8:	29 a5       	ldd	r18, Y+41	; 0x29
    20aa:	3a a5       	ldd	r19, Y+42	; 0x2a
    20ac:	4b a5       	ldd	r20, Y+43	; 0x2b
    20ae:	5c a5       	ldd	r21, Y+44	; 0x2c
    20b0:	0e 94 2c 28 	call	0x5058	; 0x5058 <__addsf3>
    20b4:	29 81       	ldd	r18, Y+1	; 0x01
    20b6:	3a 81       	ldd	r19, Y+2	; 0x02
    20b8:	4b 81       	ldd	r20, Y+3	; 0x03
    20ba:	5c 81       	ldd	r21, Y+4	; 0x04
    20bc:	0e 94 b1 2a 	call	0x5562	; 0x5562 <__mulsf3>
    20c0:	9b 01       	movw	r18, r22
    20c2:	ac 01       	movw	r20, r24
    20c4:	c7 01       	movw	r24, r14
    20c6:	b6 01       	movw	r22, r12
    20c8:	0e 94 2c 28 	call	0x5058	; 0x5058 <__addsf3>
    20cc:	2d 81       	ldd	r18, Y+5	; 0x05
    20ce:	3e 81       	ldd	r19, Y+6	; 0x06
    20d0:	4f 81       	ldd	r20, Y+7	; 0x07
    20d2:	58 85       	ldd	r21, Y+8	; 0x08
    20d4:	0e 94 2b 28 	call	0x5056	; 0x5056 <__subsf3>
    20d8:	6d 83       	std	Y+5, r22	; 0x05
    20da:	7e 83       	std	Y+6, r23	; 0x06
    20dc:	8f 83       	std	Y+7, r24	; 0x07
    20de:	98 87       	std	Y+8, r25	; 0x08
    20e0:	c0 90 60 03 	lds	r12, 0x0360	; 0x800360 <q2>
    20e4:	d0 90 61 03 	lds	r13, 0x0361	; 0x800361 <q2+0x1>
    20e8:	e0 90 62 03 	lds	r14, 0x0362	; 0x800362 <q2+0x2>
    20ec:	f0 90 63 03 	lds	r15, 0x0363	; 0x800363 <q2+0x3>
    20f0:	2d 8d       	ldd	r18, Y+29	; 0x1d
    20f2:	3e 8d       	ldd	r19, Y+30	; 0x1e
    20f4:	4f 8d       	ldd	r20, Y+31	; 0x1f
    20f6:	58 a1       	ldd	r21, Y+32	; 0x20
    20f8:	60 e0       	ldi	r22, 0x00	; 0
    20fa:	70 e0       	ldi	r23, 0x00	; 0
    20fc:	80 e0       	ldi	r24, 0x00	; 0
    20fe:	9f e3       	ldi	r25, 0x3F	; 63
    2100:	0e 94 2b 28 	call	0x5056	; 0x5056 <__subsf3>
    2104:	29 8d       	ldd	r18, Y+25	; 0x19
    2106:	3a 8d       	ldd	r19, Y+26	; 0x1a
    2108:	4b 8d       	ldd	r20, Y+27	; 0x1b
    210a:	5c 8d       	ldd	r21, Y+28	; 0x1c
    210c:	0e 94 2b 28 	call	0x5056	; 0x5056 <__subsf3>
    2110:	29 81       	ldd	r18, Y+1	; 0x01
    2112:	3a 81       	ldd	r19, Y+2	; 0x02
    2114:	4b 81       	ldd	r20, Y+3	; 0x03
    2116:	5c 81       	ldd	r21, Y+4	; 0x04
    2118:	0e 94 b1 2a 	call	0x5562	; 0x5562 <__mulsf3>
    211c:	69 a7       	std	Y+41, r22	; 0x29
    211e:	7a a7       	std	Y+42, r23	; 0x2a
    2120:	8b a7       	std	Y+43, r24	; 0x2b
    2122:	9c a7       	std	Y+44, r25	; 0x2c
    2124:	2d 89       	ldd	r18, Y+21	; 0x15
    2126:	3e 89       	ldd	r19, Y+22	; 0x16
    2128:	4f 89       	ldd	r20, Y+23	; 0x17
    212a:	58 8d       	ldd	r21, Y+24	; 0x18
    212c:	65 96       	adiw	r28, 0x15	; 21
    212e:	6c ad       	ldd	r22, Y+60	; 0x3c
    2130:	7d ad       	ldd	r23, Y+61	; 0x3d
    2132:	8e ad       	ldd	r24, Y+62	; 0x3e
    2134:	9f ad       	ldd	r25, Y+63	; 0x3f
    2136:	65 97       	sbiw	r28, 0x15	; 21
    2138:	0e 94 2c 28 	call	0x5058	; 0x5058 <__addsf3>
    213c:	29 85       	ldd	r18, Y+9	; 0x09
    213e:	3a 85       	ldd	r19, Y+10	; 0x0a
    2140:	4b 85       	ldd	r20, Y+11	; 0x0b
    2142:	5c 85       	ldd	r21, Y+12	; 0x0c
    2144:	0e 94 b1 2a 	call	0x5562	; 0x5562 <__mulsf3>
    2148:	9b 01       	movw	r18, r22
    214a:	ac 01       	movw	r20, r24
    214c:	69 a5       	ldd	r22, Y+41	; 0x29
    214e:	7a a5       	ldd	r23, Y+42	; 0x2a
    2150:	8b a5       	ldd	r24, Y+43	; 0x2b
    2152:	9c a5       	ldd	r25, Y+44	; 0x2c
    2154:	0e 94 2c 28 	call	0x5058	; 0x5058 <__addsf3>
    2158:	2d 85       	ldd	r18, Y+13	; 0x0d
    215a:	3e 85       	ldd	r19, Y+14	; 0x0e
    215c:	4f 85       	ldd	r20, Y+15	; 0x0f
    215e:	58 89       	ldd	r21, Y+16	; 0x10
    2160:	0e 94 2b 28 	call	0x5056	; 0x5056 <__subsf3>
    2164:	6d 87       	std	Y+13, r22	; 0x0d
    2166:	7e 87       	std	Y+14, r23	; 0x0e
    2168:	8f 87       	std	Y+15, r24	; 0x0f
    216a:	98 8b       	std	Y+16, r25	; 0x10
    216c:	6d a9       	ldd	r22, Y+53	; 0x35
    216e:	7e a9       	ldd	r23, Y+54	; 0x36
    2170:	8f a9       	ldd	r24, Y+55	; 0x37
    2172:	98 ad       	ldd	r25, Y+56	; 0x38
    2174:	90 58       	subi	r25, 0x80	; 128
    2176:	2d a1       	ldd	r18, Y+37	; 0x25
    2178:	3e a1       	ldd	r19, Y+38	; 0x26
    217a:	4f a1       	ldd	r20, Y+39	; 0x27
    217c:	58 a5       	ldd	r21, Y+40	; 0x28
    217e:	0e 94 b1 2a 	call	0x5562	; 0x5562 <__mulsf3>
    2182:	6d 8b       	std	Y+21, r22	; 0x15
    2184:	7e 8b       	std	Y+22, r23	; 0x16
    2186:	8f 8b       	std	Y+23, r24	; 0x17
    2188:	98 8f       	std	Y+24, r25	; 0x18
    218a:	21 96       	adiw	r28, 0x01	; 1
    218c:	2c ad       	ldd	r18, Y+60	; 0x3c
    218e:	3d ad       	ldd	r19, Y+61	; 0x3d
    2190:	4e ad       	ldd	r20, Y+62	; 0x3e
    2192:	5f ad       	ldd	r21, Y+63	; 0x3f
    2194:	21 97       	sbiw	r28, 0x01	; 1
    2196:	69 a9       	ldd	r22, Y+49	; 0x31
    2198:	7a a9       	ldd	r23, Y+50	; 0x32
    219a:	8b a9       	ldd	r24, Y+51	; 0x33
    219c:	9c a9       	ldd	r25, Y+52	; 0x34
    219e:	0e 94 b1 2a 	call	0x5562	; 0x5562 <__mulsf3>
    21a2:	9b 01       	movw	r18, r22
    21a4:	ac 01       	movw	r20, r24
    21a6:	6d 89       	ldd	r22, Y+21	; 0x15
    21a8:	7e 89       	ldd	r23, Y+22	; 0x16
    21aa:	8f 89       	ldd	r24, Y+23	; 0x17
    21ac:	98 8d       	ldd	r25, Y+24	; 0x18
    21ae:	0e 94 2c 28 	call	0x5058	; 0x5058 <__addsf3>
    21b2:	6d 8b       	std	Y+21, r22	; 0x15
    21b4:	7e 8b       	std	Y+22, r23	; 0x16
    21b6:	8f 8b       	std	Y+23, r24	; 0x17
    21b8:	98 8f       	std	Y+24, r25	; 0x18
    21ba:	2d a5       	ldd	r18, Y+45	; 0x2d
    21bc:	3e a5       	ldd	r19, Y+46	; 0x2e
    21be:	4f a5       	ldd	r20, Y+47	; 0x2f
    21c0:	58 a9       	ldd	r21, Y+48	; 0x30
    21c2:	69 81       	ldd	r22, Y+1	; 0x01
    21c4:	7a 81       	ldd	r23, Y+2	; 0x02
    21c6:	8b 81       	ldd	r24, Y+3	; 0x03
    21c8:	9c 81       	ldd	r25, Y+4	; 0x04
    21ca:	0e 94 b1 2a 	call	0x5562	; 0x5562 <__mulsf3>
    21ce:	29 89       	ldd	r18, Y+17	; 0x11
    21d0:	3a 89       	ldd	r19, Y+18	; 0x12
    21d2:	4b 89       	ldd	r20, Y+19	; 0x13
    21d4:	5c 89       	ldd	r21, Y+20	; 0x14
    21d6:	0e 94 b1 2a 	call	0x5562	; 0x5562 <__mulsf3>
    21da:	9b 01       	movw	r18, r22
    21dc:	ac 01       	movw	r20, r24
    21de:	6d 89       	ldd	r22, Y+21	; 0x15
    21e0:	7e 89       	ldd	r23, Y+22	; 0x16
    21e2:	8f 89       	ldd	r24, Y+23	; 0x17
    21e4:	98 8d       	ldd	r25, Y+24	; 0x18
    21e6:	0e 94 2b 28 	call	0x5056	; 0x5056 <__subsf3>
    21ea:	6d 8b       	std	Y+21, r22	; 0x15
    21ec:	7e 8b       	std	Y+22, r23	; 0x16
    21ee:	8f 8b       	std	Y+23, r24	; 0x17
    21f0:	98 8f       	std	Y+24, r25	; 0x18
    21f2:	a3 01       	movw	r20, r6
    21f4:	92 01       	movw	r18, r4
    21f6:	69 a1       	ldd	r22, Y+33	; 0x21
    21f8:	7a a1       	ldd	r23, Y+34	; 0x22
    21fa:	8b a1       	ldd	r24, Y+35	; 0x23
    21fc:	9c a1       	ldd	r25, Y+36	; 0x24
    21fe:	0e 94 b1 2a 	call	0x5562	; 0x5562 <__mulsf3>
    2202:	2b 01       	movw	r4, r22
    2204:	3c 01       	movw	r6, r24
    2206:	a5 01       	movw	r20, r10
    2208:	94 01       	movw	r18, r8
    220a:	69 81       	ldd	r22, Y+1	; 0x01
    220c:	7a 81       	ldd	r23, Y+2	; 0x02
    220e:	8b 81       	ldd	r24, Y+3	; 0x03
    2210:	9c 81       	ldd	r25, Y+4	; 0x04
    2212:	0e 94 b1 2a 	call	0x5562	; 0x5562 <__mulsf3>
    2216:	9b 01       	movw	r18, r22
    2218:	ac 01       	movw	r20, r24
    221a:	c3 01       	movw	r24, r6
    221c:	b2 01       	movw	r22, r4
    221e:	0e 94 2c 28 	call	0x5058	; 0x5058 <__addsf3>
    2222:	2d 81       	ldd	r18, Y+5	; 0x05
    2224:	3e 81       	ldd	r19, Y+6	; 0x06
    2226:	4f 81       	ldd	r20, Y+7	; 0x07
    2228:	58 85       	ldd	r21, Y+8	; 0x08
    222a:	0e 94 b1 2a 	call	0x5562	; 0x5562 <__mulsf3>
    222e:	9b 01       	movw	r18, r22
    2230:	ac 01       	movw	r20, r24
    2232:	6d 89       	ldd	r22, Y+21	; 0x15
    2234:	7e 89       	ldd	r23, Y+22	; 0x16
    2236:	8f 89       	ldd	r24, Y+23	; 0x17
    2238:	98 8d       	ldd	r25, Y+24	; 0x18
    223a:	0e 94 2c 28 	call	0x5058	; 0x5058 <__addsf3>
    223e:	4b 01       	movw	r8, r22
    2240:	5c 01       	movw	r10, r24
    2242:	a7 01       	movw	r20, r14
    2244:	96 01       	movw	r18, r12
    2246:	69 85       	ldd	r22, Y+9	; 0x09
    2248:	7a 85       	ldd	r23, Y+10	; 0x0a
    224a:	8b 85       	ldd	r24, Y+11	; 0x0b
    224c:	9c 85       	ldd	r25, Y+12	; 0x0c
    224e:	0e 94 b1 2a 	call	0x5562	; 0x5562 <__mulsf3>
    2252:	2d 85       	ldd	r18, Y+13	; 0x0d
    2254:	3e 85       	ldd	r19, Y+14	; 0x0e
    2256:	4f 85       	ldd	r20, Y+15	; 0x0f
    2258:	58 89       	ldd	r21, Y+16	; 0x10
    225a:	0e 94 b1 2a 	call	0x5562	; 0x5562 <__mulsf3>
    225e:	9b 01       	movw	r18, r22
    2260:	ac 01       	movw	r20, r24
    2262:	c5 01       	movw	r24, r10
    2264:	b4 01       	movw	r22, r8
    2266:	0e 94 2c 28 	call	0x5058	; 0x5058 <__addsf3>
    226a:	6d 8b       	std	Y+21, r22	; 0x15
    226c:	7e 8b       	std	Y+22, r23	; 0x16
    226e:	8f 8b       	std	Y+23, r24	; 0x17
    2270:	98 8f       	std	Y+24, r25	; 0x18
		s1 = _2q3 * (2.0f * q1q3 - _2q0q2 - ax) + _2q0 * (2.0f * q0q1 + _2q2q3 - ay) - 4.0f * q1 * (1 - 2.0f * q1q1 - 2.0f * q2q2 - az) + _2bz * q3 * (_2bx * (0.5f - q2q2 - q3q3) + _2bz * (q1q3 - q0q2) - mx) + (_2bx * q2 + _2bz * q0) * (_2bx * (q1q2 - q0q3) + _2bz * (q0q1 + q2q3) - my) + (_2bx * q3 - _4bz * q1) * (_2bx * (q0q2 + q1q3) + _2bz * (0.5f - q1q1 - q2q2) - mz);
    2272:	40 90 64 03 	lds	r4, 0x0364	; 0x800364 <q1>
    2276:	50 90 65 03 	lds	r5, 0x0365	; 0x800365 <q1+0x1>
    227a:	60 90 66 03 	lds	r6, 0x0366	; 0x800366 <q1+0x2>
    227e:	70 90 67 03 	lds	r7, 0x0367	; 0x800367 <q1+0x3>
    2282:	2d 8d       	ldd	r18, Y+29	; 0x1d
    2284:	3e 8d       	ldd	r19, Y+30	; 0x1e
    2286:	4f 8d       	ldd	r20, Y+31	; 0x1f
    2288:	58 a1       	ldd	r21, Y+32	; 0x20
    228a:	ca 01       	movw	r24, r20
    228c:	b9 01       	movw	r22, r18
    228e:	0e 94 2c 28 	call	0x5058	; 0x5058 <__addsf3>
    2292:	9b 01       	movw	r18, r22
    2294:	ac 01       	movw	r20, r24
    2296:	60 e0       	ldi	r22, 0x00	; 0
    2298:	70 e0       	ldi	r23, 0x00	; 0
    229a:	80 e8       	ldi	r24, 0x80	; 128
    229c:	9f e3       	ldi	r25, 0x3F	; 63
    229e:	0e 94 2b 28 	call	0x5056	; 0x5056 <__subsf3>
    22a2:	6b 01       	movw	r12, r22
    22a4:	7c 01       	movw	r14, r24
    22a6:	29 8d       	ldd	r18, Y+25	; 0x19
    22a8:	3a 8d       	ldd	r19, Y+26	; 0x1a
    22aa:	4b 8d       	ldd	r20, Y+27	; 0x1b
    22ac:	5c 8d       	ldd	r21, Y+28	; 0x1c
    22ae:	ca 01       	movw	r24, r20
    22b0:	b9 01       	movw	r22, r18
    22b2:	0e 94 2c 28 	call	0x5058	; 0x5058 <__addsf3>
    22b6:	9b 01       	movw	r18, r22
    22b8:	ac 01       	movw	r20, r24
    22ba:	c7 01       	movw	r24, r14
    22bc:	b6 01       	movw	r22, r12
    22be:	0e 94 2b 28 	call	0x5056	; 0x5056 <__subsf3>
    22c2:	cf 56       	subi	r28, 0x6F	; 111
    22c4:	df 4f       	sbci	r29, 0xFF	; 255
    22c6:	28 81       	ld	r18, Y
    22c8:	39 81       	ldd	r19, Y+1	; 0x01
    22ca:	4a 81       	ldd	r20, Y+2	; 0x02
    22cc:	5b 81       	ldd	r21, Y+3	; 0x03
    22ce:	c1 59       	subi	r28, 0x91	; 145
    22d0:	d0 40       	sbci	r29, 0x00	; 0
    22d2:	0e 94 2b 28 	call	0x5056	; 0x5056 <__subsf3>
    22d6:	6d 8f       	std	Y+29, r22	; 0x1d
    22d8:	7e 8f       	std	Y+30, r23	; 0x1e
    22da:	8f 8f       	std	Y+31, r24	; 0x1f
    22dc:	98 a3       	std	Y+32, r25	; 0x20
    22de:	c0 90 5c 03 	lds	r12, 0x035C	; 0x80035c <q3>
    22e2:	d0 90 5d 03 	lds	r13, 0x035D	; 0x80035d <q3+0x1>
    22e6:	e0 90 5e 03 	lds	r14, 0x035E	; 0x80035e <q3+0x2>
    22ea:	f0 90 5f 03 	lds	r15, 0x035F	; 0x80035f <q3+0x3>
    22ee:	20 91 60 03 	lds	r18, 0x0360	; 0x800360 <q2>
    22f2:	30 91 61 03 	lds	r19, 0x0361	; 0x800361 <q2+0x1>
    22f6:	40 91 62 03 	lds	r20, 0x0362	; 0x800362 <q2+0x2>
    22fa:	50 91 63 03 	lds	r21, 0x0363	; 0x800363 <q2+0x3>
    22fe:	29 8f       	std	Y+25, r18	; 0x19
    2300:	3a 8f       	std	Y+26, r19	; 0x1a
    2302:	4b 8f       	std	Y+27, r20	; 0x1b
    2304:	5c 8f       	std	Y+28, r21	; 0x1c
    2306:	80 91 00 01 	lds	r24, 0x0100	; 0x800100 <__data_start>
    230a:	90 91 01 01 	lds	r25, 0x0101	; 0x800101 <__data_start+0x1>
    230e:	a0 91 02 01 	lds	r26, 0x0102	; 0x800102 <__data_start+0x2>
    2312:	b0 91 03 01 	lds	r27, 0x0103	; 0x800103 <__data_start+0x3>
    2316:	89 a7       	std	Y+41, r24	; 0x29
    2318:	9a a7       	std	Y+42, r25	; 0x2a
    231a:	ab a7       	std	Y+43, r26	; 0x2b
    231c:	bc a7       	std	Y+44, r27	; 0x2c
    231e:	80 90 5c 03 	lds	r8, 0x035C	; 0x80035c <q3>
    2322:	90 90 5d 03 	lds	r9, 0x035D	; 0x80035d <q3+0x1>
    2326:	a0 90 5e 03 	lds	r10, 0x035E	; 0x80035e <q3+0x2>
    232a:	b0 90 5f 03 	lds	r11, 0x035F	; 0x80035f <q3+0x3>
    232e:	00 91 64 03 	lds	r16, 0x0364	; 0x800364 <q1>
    2332:	10 91 65 03 	lds	r17, 0x0365	; 0x800365 <q1+0x1>
    2336:	20 91 66 03 	lds	r18, 0x0366	; 0x800366 <q1+0x2>
    233a:	30 91 67 03 	lds	r19, 0x0367	; 0x800367 <q1+0x3>
    233e:	0d a7       	std	Y+45, r16	; 0x2d
    2340:	1e a7       	std	Y+46, r17	; 0x2e
    2342:	2f a7       	std	Y+47, r18	; 0x2f
    2344:	38 ab       	std	Y+48, r19	; 0x30
    2346:	2d a1       	ldd	r18, Y+37	; 0x25
    2348:	3e a1       	ldd	r19, Y+38	; 0x26
    234a:	4f a1       	ldd	r20, Y+39	; 0x27
    234c:	58 a5       	ldd	r21, Y+40	; 0x28
    234e:	a9 96       	adiw	r28, 0x29	; 41
    2350:	6c ad       	ldd	r22, Y+60	; 0x3c
    2352:	7d ad       	ldd	r23, Y+61	; 0x3d
    2354:	8e ad       	ldd	r24, Y+62	; 0x3e
    2356:	9f ad       	ldd	r25, Y+63	; 0x3f
    2358:	a9 97       	sbiw	r28, 0x29	; 41
    235a:	0e 94 b1 2a 	call	0x5562	; 0x5562 <__mulsf3>
    235e:	69 af       	std	Y+57, r22	; 0x39
    2360:	7a af       	std	Y+58, r23	; 0x3a
    2362:	8b af       	std	Y+59, r24	; 0x3b
    2364:	9c af       	std	Y+60, r25	; 0x3c
    2366:	21 96       	adiw	r28, 0x01	; 1
    2368:	2c ad       	ldd	r18, Y+60	; 0x3c
    236a:	3d ad       	ldd	r19, Y+61	; 0x3d
    236c:	4e ad       	ldd	r20, Y+62	; 0x3e
    236e:	5f ad       	ldd	r21, Y+63	; 0x3f
    2370:	21 97       	sbiw	r28, 0x01	; 1
    2372:	25 96       	adiw	r28, 0x05	; 5
    2374:	6c ad       	ldd	r22, Y+60	; 0x3c
    2376:	7d ad       	ldd	r23, Y+61	; 0x3d
    2378:	8e ad       	ldd	r24, Y+62	; 0x3e
    237a:	9f ad       	ldd	r25, Y+63	; 0x3f
    237c:	25 97       	sbiw	r28, 0x05	; 5
    237e:	0e 94 b1 2a 	call	0x5562	; 0x5562 <__mulsf3>
    2382:	9b 01       	movw	r18, r22
    2384:	ac 01       	movw	r20, r24
    2386:	69 ad       	ldd	r22, Y+57	; 0x39
    2388:	7a ad       	ldd	r23, Y+58	; 0x3a
    238a:	8b ad       	ldd	r24, Y+59	; 0x3b
    238c:	9c ad       	ldd	r25, Y+60	; 0x3c
    238e:	0e 94 2c 28 	call	0x5058	; 0x5058 <__addsf3>
    2392:	69 af       	std	Y+57, r22	; 0x39
    2394:	7a af       	std	Y+58, r23	; 0x3a
    2396:	8b af       	std	Y+59, r24	; 0x3b
    2398:	9c af       	std	Y+60, r25	; 0x3c
    239a:	20 e0       	ldi	r18, 0x00	; 0
    239c:	30 e0       	ldi	r19, 0x00	; 0
    239e:	40 e8       	ldi	r20, 0x80	; 128
    23a0:	50 e4       	ldi	r21, 0x40	; 64
    23a2:	c3 01       	movw	r24, r6
    23a4:	b2 01       	movw	r22, r4
    23a6:	0e 94 b1 2a 	call	0x5562	; 0x5562 <__mulsf3>
    23aa:	2d 8d       	ldd	r18, Y+29	; 0x1d
    23ac:	3e 8d       	ldd	r19, Y+30	; 0x1e
    23ae:	4f 8d       	ldd	r20, Y+31	; 0x1f
    23b0:	58 a1       	ldd	r21, Y+32	; 0x20
    23b2:	0e 94 b1 2a 	call	0x5562	; 0x5562 <__mulsf3>
    23b6:	9b 01       	movw	r18, r22
    23b8:	ac 01       	movw	r20, r24
    23ba:	69 ad       	ldd	r22, Y+57	; 0x39
    23bc:	7a ad       	ldd	r23, Y+58	; 0x3a
    23be:	8b ad       	ldd	r24, Y+59	; 0x3b
    23c0:	9c ad       	ldd	r25, Y+60	; 0x3c
    23c2:	0e 94 2b 28 	call	0x5056	; 0x5056 <__subsf3>
    23c6:	2b 01       	movw	r4, r22
    23c8:	3c 01       	movw	r6, r24
    23ca:	a7 01       	movw	r20, r14
    23cc:	96 01       	movw	r18, r12
    23ce:	69 81       	ldd	r22, Y+1	; 0x01
    23d0:	7a 81       	ldd	r23, Y+2	; 0x02
    23d2:	8b 81       	ldd	r24, Y+3	; 0x03
    23d4:	9c 81       	ldd	r25, Y+4	; 0x04
    23d6:	0e 94 b1 2a 	call	0x5562	; 0x5562 <__mulsf3>
    23da:	29 89       	ldd	r18, Y+17	; 0x11
    23dc:	3a 89       	ldd	r19, Y+18	; 0x12
    23de:	4b 89       	ldd	r20, Y+19	; 0x13
    23e0:	5c 89       	ldd	r21, Y+20	; 0x14
    23e2:	0e 94 b1 2a 	call	0x5562	; 0x5562 <__mulsf3>
    23e6:	9b 01       	movw	r18, r22
    23e8:	ac 01       	movw	r20, r24
    23ea:	c3 01       	movw	r24, r6
    23ec:	b2 01       	movw	r22, r4
    23ee:	0e 94 2c 28 	call	0x5058	; 0x5058 <__addsf3>
    23f2:	6b 01       	movw	r12, r22
    23f4:	7c 01       	movw	r14, r24
    23f6:	29 8d       	ldd	r18, Y+25	; 0x19
    23f8:	3a 8d       	ldd	r19, Y+26	; 0x1a
    23fa:	4b 8d       	ldd	r20, Y+27	; 0x1b
    23fc:	5c 8d       	ldd	r21, Y+28	; 0x1c
    23fe:	69 85       	ldd	r22, Y+9	; 0x09
    2400:	7a 85       	ldd	r23, Y+10	; 0x0a
    2402:	8b 85       	ldd	r24, Y+11	; 0x0b
    2404:	9c 85       	ldd	r25, Y+12	; 0x0c
    2406:	0e 94 b1 2a 	call	0x5562	; 0x5562 <__mulsf3>
    240a:	2b 01       	movw	r4, r22
    240c:	3c 01       	movw	r6, r24
    240e:	29 a5       	ldd	r18, Y+41	; 0x29
    2410:	3a a5       	ldd	r19, Y+42	; 0x2a
    2412:	4b a5       	ldd	r20, Y+43	; 0x2b
    2414:	5c a5       	ldd	r21, Y+44	; 0x2c
    2416:	69 81       	ldd	r22, Y+1	; 0x01
    2418:	7a 81       	ldd	r23, Y+2	; 0x02
    241a:	8b 81       	ldd	r24, Y+3	; 0x03
    241c:	9c 81       	ldd	r25, Y+4	; 0x04
    241e:	0e 94 b1 2a 	call	0x5562	; 0x5562 <__mulsf3>
    2422:	9b 01       	movw	r18, r22
    2424:	ac 01       	movw	r20, r24
    2426:	c3 01       	movw	r24, r6
    2428:	b2 01       	movw	r22, r4
    242a:	0e 94 2c 28 	call	0x5058	; 0x5058 <__addsf3>
    242e:	2d 81       	ldd	r18, Y+5	; 0x05
    2430:	3e 81       	ldd	r19, Y+6	; 0x06
    2432:	4f 81       	ldd	r20, Y+7	; 0x07
    2434:	58 85       	ldd	r21, Y+8	; 0x08
    2436:	0e 94 b1 2a 	call	0x5562	; 0x5562 <__mulsf3>
    243a:	9b 01       	movw	r18, r22
    243c:	ac 01       	movw	r20, r24
    243e:	c7 01       	movw	r24, r14
    2440:	b6 01       	movw	r22, r12
    2442:	0e 94 2c 28 	call	0x5058	; 0x5058 <__addsf3>
    2446:	6b 01       	movw	r12, r22
    2448:	7c 01       	movw	r14, r24
    244a:	a5 01       	movw	r20, r10
    244c:	94 01       	movw	r18, r8
    244e:	69 85       	ldd	r22, Y+9	; 0x09
    2450:	7a 85       	ldd	r23, Y+10	; 0x0a
    2452:	8b 85       	ldd	r24, Y+11	; 0x0b
    2454:	9c 85       	ldd	r25, Y+12	; 0x0c
    2456:	0e 94 b1 2a 	call	0x5562	; 0x5562 <__mulsf3>
    245a:	4b 01       	movw	r8, r22
    245c:	5c 01       	movw	r10, r24
    245e:	2d a5       	ldd	r18, Y+45	; 0x2d
    2460:	3e a5       	ldd	r19, Y+46	; 0x2e
    2462:	4f a5       	ldd	r20, Y+47	; 0x2f
    2464:	58 a9       	ldd	r21, Y+48	; 0x30
    2466:	29 96       	adiw	r28, 0x09	; 9
    2468:	6c ad       	ldd	r22, Y+60	; 0x3c
    246a:	7d ad       	ldd	r23, Y+61	; 0x3d
    246c:	8e ad       	ldd	r24, Y+62	; 0x3e
    246e:	9f ad       	ldd	r25, Y+63	; 0x3f
    2470:	29 97       	sbiw	r28, 0x09	; 9
    2472:	0e 94 b1 2a 	call	0x5562	; 0x5562 <__mulsf3>
    2476:	9b 01       	movw	r18, r22
    2478:	ac 01       	movw	r20, r24
    247a:	c5 01       	movw	r24, r10
    247c:	b4 01       	movw	r22, r8
    247e:	0e 94 2b 28 	call	0x5056	; 0x5056 <__subsf3>
    2482:	2d 85       	ldd	r18, Y+13	; 0x0d
    2484:	3e 85       	ldd	r19, Y+14	; 0x0e
    2486:	4f 85       	ldd	r20, Y+15	; 0x0f
    2488:	58 89       	ldd	r21, Y+16	; 0x10
    248a:	0e 94 b1 2a 	call	0x5562	; 0x5562 <__mulsf3>
    248e:	9b 01       	movw	r18, r22
    2490:	ac 01       	movw	r20, r24
    2492:	c7 01       	movw	r24, r14
    2494:	b6 01       	movw	r22, r12
    2496:	0e 94 2c 28 	call	0x5058	; 0x5058 <__addsf3>
    249a:	69 8f       	std	Y+25, r22	; 0x19
    249c:	7a 8f       	std	Y+26, r23	; 0x1a
    249e:	8b 8f       	std	Y+27, r24	; 0x1b
    24a0:	9c 8f       	std	Y+28, r25	; 0x1c
		s2 = -_2q0 * (2.0f * q1q3 - _2q0q2 - ax) + _2q3 * (2.0f * q0q1 + _2q2q3 - ay) - 4.0f * q2 * (1 - 2.0f * q1q1 - 2.0f * q2q2 - az) + (-_4bx * q2 - _2bz * q0) * (_2bx * (0.5f - q2q2 - q3q3) + _2bz * (q1q3 - q0q2) - mx) + (_2bx * q1 + _2bz * q3) * (_2bx * (q1q2 - q0q3) + _2bz * (q0q1 + q2q3) - my) + (_2bx * q0 - _4bz * q2) * (_2bx * (q0q2 + q1q3) + _2bz * (0.5f - q1q1 - q2q2) - mz);
    24a2:	40 90 60 03 	lds	r4, 0x0360	; 0x800360 <q2>
    24a6:	50 90 61 03 	lds	r5, 0x0361	; 0x800361 <q2+0x1>
    24aa:	60 90 62 03 	lds	r6, 0x0362	; 0x800362 <q2+0x2>
    24ae:	70 90 63 03 	lds	r7, 0x0363	; 0x800363 <q2+0x3>
    24b2:	29 85       	ldd	r18, Y+9	; 0x09
    24b4:	3a 85       	ldd	r19, Y+10	; 0x0a
    24b6:	4b 85       	ldd	r20, Y+11	; 0x0b
    24b8:	5c 85       	ldd	r21, Y+12	; 0x0c
    24ba:	ca 01       	movw	r24, r20
    24bc:	b9 01       	movw	r22, r18
    24be:	0e 94 2c 28 	call	0x5058	; 0x5058 <__addsf3>
    24c2:	9b 01       	movw	r18, r22
    24c4:	ac 01       	movw	r20, r24
    24c6:	50 58       	subi	r21, 0x80	; 128
    24c8:	29 a7       	std	Y+41, r18	; 0x29
    24ca:	3a a7       	std	Y+42, r19	; 0x2a
    24cc:	4b a7       	std	Y+43, r20	; 0x2b
    24ce:	5c a7       	std	Y+44, r21	; 0x2c
    24d0:	c0 90 60 03 	lds	r12, 0x0360	; 0x800360 <q2>
    24d4:	d0 90 61 03 	lds	r13, 0x0361	; 0x800361 <q2+0x1>
    24d8:	e0 90 62 03 	lds	r14, 0x0362	; 0x800362 <q2+0x2>
    24dc:	f0 90 63 03 	lds	r15, 0x0363	; 0x800363 <q2+0x3>
    24e0:	80 91 00 01 	lds	r24, 0x0100	; 0x800100 <__data_start>
    24e4:	90 91 01 01 	lds	r25, 0x0101	; 0x800101 <__data_start+0x1>
    24e8:	a0 91 02 01 	lds	r26, 0x0102	; 0x800102 <__data_start+0x2>
    24ec:	b0 91 03 01 	lds	r27, 0x0103	; 0x800103 <__data_start+0x3>
    24f0:	8d a7       	std	Y+45, r24	; 0x2d
    24f2:	9e a7       	std	Y+46, r25	; 0x2e
    24f4:	af a7       	std	Y+47, r26	; 0x2f
    24f6:	b8 ab       	std	Y+48, r27	; 0x30
    24f8:	00 91 64 03 	lds	r16, 0x0364	; 0x800364 <q1>
    24fc:	10 91 65 03 	lds	r17, 0x0365	; 0x800365 <q1+0x1>
    2500:	20 91 66 03 	lds	r18, 0x0366	; 0x800366 <q1+0x2>
    2504:	30 91 67 03 	lds	r19, 0x0367	; 0x800367 <q1+0x3>
    2508:	09 af       	std	Y+57, r16	; 0x39
    250a:	1a af       	std	Y+58, r17	; 0x3a
    250c:	2b af       	std	Y+59, r18	; 0x3b
    250e:	3c af       	std	Y+60, r19	; 0x3c
    2510:	20 91 5c 03 	lds	r18, 0x035C	; 0x80035c <q3>
    2514:	30 91 5d 03 	lds	r19, 0x035D	; 0x80035d <q3+0x1>
    2518:	40 91 5e 03 	lds	r20, 0x035E	; 0x80035e <q3+0x2>
    251c:	50 91 5f 03 	lds	r21, 0x035F	; 0x80035f <q3+0x3>
    2520:	61 96       	adiw	r28, 0x11	; 17
    2522:	2c af       	std	Y+60, r18	; 0x3c
    2524:	3d af       	std	Y+61, r19	; 0x3d
    2526:	4e af       	std	Y+62, r20	; 0x3e
    2528:	5f af       	std	Y+63, r21	; 0x3f
    252a:	61 97       	sbiw	r28, 0x11	; 17
    252c:	80 90 00 01 	lds	r8, 0x0100	; 0x800100 <__data_start>
    2530:	90 90 01 01 	lds	r9, 0x0101	; 0x800101 <__data_start+0x1>
    2534:	a0 90 02 01 	lds	r10, 0x0102	; 0x800102 <__data_start+0x2>
    2538:	b0 90 03 01 	lds	r11, 0x0103	; 0x800103 <__data_start+0x3>
    253c:	80 91 60 03 	lds	r24, 0x0360	; 0x800360 <q2>
    2540:	90 91 61 03 	lds	r25, 0x0361	; 0x800361 <q2+0x1>
    2544:	a0 91 62 03 	lds	r26, 0x0362	; 0x800362 <q2+0x2>
    2548:	b0 91 63 03 	lds	r27, 0x0363	; 0x800363 <q2+0x3>
    254c:	65 96       	adiw	r28, 0x15	; 21
    254e:	8c af       	std	Y+60, r24	; 0x3c
    2550:	9d af       	std	Y+61, r25	; 0x3d
    2552:	ae af       	std	Y+62, r26	; 0x3e
    2554:	bf af       	std	Y+63, r27	; 0x3f
    2556:	65 97       	sbiw	r28, 0x15	; 21
    2558:	25 96       	adiw	r28, 0x05	; 5
    255a:	6c ad       	ldd	r22, Y+60	; 0x3c
    255c:	7d ad       	ldd	r23, Y+61	; 0x3d
    255e:	8e ad       	ldd	r24, Y+62	; 0x3e
    2560:	9f ad       	ldd	r25, Y+63	; 0x3f
    2562:	25 97       	sbiw	r28, 0x05	; 5
    2564:	90 58       	subi	r25, 0x80	; 128
    2566:	2d a1       	ldd	r18, Y+37	; 0x25
    2568:	3e a1       	ldd	r19, Y+38	; 0x26
    256a:	4f a1       	ldd	r20, Y+39	; 0x27
    256c:	58 a5       	ldd	r21, Y+40	; 0x28
    256e:	0e 94 b1 2a 	call	0x5562	; 0x5562 <__mulsf3>
    2572:	25 96       	adiw	r28, 0x05	; 5
    2574:	6c af       	std	Y+60, r22	; 0x3c
    2576:	7d af       	std	Y+61, r23	; 0x3d
    2578:	8e af       	std	Y+62, r24	; 0x3e
    257a:	9f af       	std	Y+63, r25	; 0x3f
    257c:	25 97       	sbiw	r28, 0x05	; 5
    257e:	21 96       	adiw	r28, 0x01	; 1
    2580:	2c ad       	ldd	r18, Y+60	; 0x3c
    2582:	3d ad       	ldd	r19, Y+61	; 0x3d
    2584:	4e ad       	ldd	r20, Y+62	; 0x3e
    2586:	5f ad       	ldd	r21, Y+63	; 0x3f
    2588:	21 97       	sbiw	r28, 0x01	; 1
    258a:	a9 96       	adiw	r28, 0x29	; 41
    258c:	6c ad       	ldd	r22, Y+60	; 0x3c
    258e:	7d ad       	ldd	r23, Y+61	; 0x3d
    2590:	8e ad       	ldd	r24, Y+62	; 0x3e
    2592:	9f ad       	ldd	r25, Y+63	; 0x3f
    2594:	a9 97       	sbiw	r28, 0x29	; 41
    2596:	0e 94 b1 2a 	call	0x5562	; 0x5562 <__mulsf3>
    259a:	9b 01       	movw	r18, r22
    259c:	ac 01       	movw	r20, r24
    259e:	25 96       	adiw	r28, 0x05	; 5
    25a0:	6c ad       	ldd	r22, Y+60	; 0x3c
    25a2:	7d ad       	ldd	r23, Y+61	; 0x3d
    25a4:	8e ad       	ldd	r24, Y+62	; 0x3e
    25a6:	9f ad       	ldd	r25, Y+63	; 0x3f
    25a8:	25 97       	sbiw	r28, 0x05	; 5
    25aa:	0e 94 2c 28 	call	0x5058	; 0x5058 <__addsf3>
    25ae:	25 96       	adiw	r28, 0x05	; 5
    25b0:	6c af       	std	Y+60, r22	; 0x3c
    25b2:	7d af       	std	Y+61, r23	; 0x3d
    25b4:	8e af       	std	Y+62, r24	; 0x3e
    25b6:	9f af       	std	Y+63, r25	; 0x3f
    25b8:	25 97       	sbiw	r28, 0x05	; 5
    25ba:	20 e0       	ldi	r18, 0x00	; 0
    25bc:	30 e0       	ldi	r19, 0x00	; 0
    25be:	40 e8       	ldi	r20, 0x80	; 128
    25c0:	50 e4       	ldi	r21, 0x40	; 64
    25c2:	c3 01       	movw	r24, r6
    25c4:	b2 01       	movw	r22, r4
    25c6:	0e 94 b1 2a 	call	0x5562	; 0x5562 <__mulsf3>
    25ca:	2d 8d       	ldd	r18, Y+29	; 0x1d
    25cc:	3e 8d       	ldd	r19, Y+30	; 0x1e
    25ce:	4f 8d       	ldd	r20, Y+31	; 0x1f
    25d0:	58 a1       	ldd	r21, Y+32	; 0x20
    25d2:	0e 94 b1 2a 	call	0x5562	; 0x5562 <__mulsf3>
    25d6:	9b 01       	movw	r18, r22
    25d8:	ac 01       	movw	r20, r24
    25da:	25 96       	adiw	r28, 0x05	; 5
    25dc:	6c ad       	ldd	r22, Y+60	; 0x3c
    25de:	7d ad       	ldd	r23, Y+61	; 0x3d
    25e0:	8e ad       	ldd	r24, Y+62	; 0x3e
    25e2:	9f ad       	ldd	r25, Y+63	; 0x3f
    25e4:	25 97       	sbiw	r28, 0x05	; 5
    25e6:	0e 94 2b 28 	call	0x5056	; 0x5056 <__subsf3>
    25ea:	2b 01       	movw	r4, r22
    25ec:	3c 01       	movw	r6, r24
    25ee:	a7 01       	movw	r20, r14
    25f0:	96 01       	movw	r18, r12
    25f2:	69 a5       	ldd	r22, Y+41	; 0x29
    25f4:	7a a5       	ldd	r23, Y+42	; 0x2a
    25f6:	8b a5       	ldd	r24, Y+43	; 0x2b
    25f8:	9c a5       	ldd	r25, Y+44	; 0x2c
    25fa:	0e 94 b1 2a 	call	0x5562	; 0x5562 <__mulsf3>
    25fe:	6b 01       	movw	r12, r22
    2600:	7c 01       	movw	r14, r24
    2602:	2d a5       	ldd	r18, Y+45	; 0x2d
    2604:	3e a5       	ldd	r19, Y+46	; 0x2e
    2606:	4f a5       	ldd	r20, Y+47	; 0x2f
    2608:	58 a9       	ldd	r21, Y+48	; 0x30
    260a:	69 81       	ldd	r22, Y+1	; 0x01
    260c:	7a 81       	ldd	r23, Y+2	; 0x02
    260e:	8b 81       	ldd	r24, Y+3	; 0x03
    2610:	9c 81       	ldd	r25, Y+4	; 0x04
    2612:	0e 94 b1 2a 	call	0x5562	; 0x5562 <__mulsf3>
    2616:	9b 01       	movw	r18, r22
    2618:	ac 01       	movw	r20, r24
    261a:	c7 01       	movw	r24, r14
    261c:	b6 01       	movw	r22, r12
    261e:	0e 94 2b 28 	call	0x5056	; 0x5056 <__subsf3>
    2622:	29 89       	ldd	r18, Y+17	; 0x11
    2624:	3a 89       	ldd	r19, Y+18	; 0x12
    2626:	4b 89       	ldd	r20, Y+19	; 0x13
    2628:	5c 89       	ldd	r21, Y+20	; 0x14
    262a:	0e 94 b1 2a 	call	0x5562	; 0x5562 <__mulsf3>
    262e:	9b 01       	movw	r18, r22
    2630:	ac 01       	movw	r20, r24
    2632:	c3 01       	movw	r24, r6
    2634:	b2 01       	movw	r22, r4
    2636:	0e 94 2c 28 	call	0x5058	; 0x5058 <__addsf3>
    263a:	6b 01       	movw	r12, r22
    263c:	7c 01       	movw	r14, r24
    263e:	29 ad       	ldd	r18, Y+57	; 0x39
    2640:	3a ad       	ldd	r19, Y+58	; 0x3a
    2642:	4b ad       	ldd	r20, Y+59	; 0x3b
    2644:	5c ad       	ldd	r21, Y+60	; 0x3c
    2646:	69 85       	ldd	r22, Y+9	; 0x09
    2648:	7a 85       	ldd	r23, Y+10	; 0x0a
    264a:	8b 85       	ldd	r24, Y+11	; 0x0b
    264c:	9c 85       	ldd	r25, Y+12	; 0x0c
    264e:	0e 94 b1 2a 	call	0x5562	; 0x5562 <__mulsf3>
    2652:	2b 01       	movw	r4, r22
    2654:	3c 01       	movw	r6, r24
    2656:	61 96       	adiw	r28, 0x11	; 17
    2658:	2c ad       	ldd	r18, Y+60	; 0x3c
    265a:	3d ad       	ldd	r19, Y+61	; 0x3d
    265c:	4e ad       	ldd	r20, Y+62	; 0x3e
    265e:	5f ad       	ldd	r21, Y+63	; 0x3f
    2660:	61 97       	sbiw	r28, 0x11	; 17
    2662:	69 81       	ldd	r22, Y+1	; 0x01
    2664:	7a 81       	ldd	r23, Y+2	; 0x02
    2666:	8b 81       	ldd	r24, Y+3	; 0x03
    2668:	9c 81       	ldd	r25, Y+4	; 0x04
    266a:	0e 94 b1 2a 	call	0x5562	; 0x5562 <__mulsf3>
    266e:	9b 01       	movw	r18, r22
    2670:	ac 01       	movw	r20, r24
    2672:	c3 01       	movw	r24, r6
    2674:	b2 01       	movw	r22, r4
    2676:	0e 94 2c 28 	call	0x5058	; 0x5058 <__addsf3>
    267a:	2d 81       	ldd	r18, Y+5	; 0x05
    267c:	3e 81       	ldd	r19, Y+6	; 0x06
    267e:	4f 81       	ldd	r20, Y+7	; 0x07
    2680:	58 85       	ldd	r21, Y+8	; 0x08
    2682:	0e 94 b1 2a 	call	0x5562	; 0x5562 <__mulsf3>
    2686:	9b 01       	movw	r18, r22
    2688:	ac 01       	movw	r20, r24
    268a:	c7 01       	movw	r24, r14
    268c:	b6 01       	movw	r22, r12
    268e:	0e 94 2c 28 	call	0x5058	; 0x5058 <__addsf3>
    2692:	6b 01       	movw	r12, r22
    2694:	7c 01       	movw	r14, r24
    2696:	a5 01       	movw	r20, r10
    2698:	94 01       	movw	r18, r8
    269a:	69 85       	ldd	r22, Y+9	; 0x09
    269c:	7a 85       	ldd	r23, Y+10	; 0x0a
    269e:	8b 85       	ldd	r24, Y+11	; 0x0b
    26a0:	9c 85       	ldd	r25, Y+12	; 0x0c
    26a2:	0e 94 b1 2a 	call	0x5562	; 0x5562 <__mulsf3>
    26a6:	4b 01       	movw	r8, r22
    26a8:	5c 01       	movw	r10, r24
    26aa:	65 96       	adiw	r28, 0x15	; 21
    26ac:	2c ad       	ldd	r18, Y+60	; 0x3c
    26ae:	3d ad       	ldd	r19, Y+61	; 0x3d
    26b0:	4e ad       	ldd	r20, Y+62	; 0x3e
    26b2:	5f ad       	ldd	r21, Y+63	; 0x3f
    26b4:	65 97       	sbiw	r28, 0x15	; 21
    26b6:	29 96       	adiw	r28, 0x09	; 9
    26b8:	6c ad       	ldd	r22, Y+60	; 0x3c
    26ba:	7d ad       	ldd	r23, Y+61	; 0x3d
    26bc:	8e ad       	ldd	r24, Y+62	; 0x3e
    26be:	9f ad       	ldd	r25, Y+63	; 0x3f
    26c0:	29 97       	sbiw	r28, 0x09	; 9
    26c2:	0e 94 b1 2a 	call	0x5562	; 0x5562 <__mulsf3>
    26c6:	9b 01       	movw	r18, r22
    26c8:	ac 01       	movw	r20, r24
    26ca:	c5 01       	movw	r24, r10
    26cc:	b4 01       	movw	r22, r8
    26ce:	0e 94 2b 28 	call	0x5056	; 0x5056 <__subsf3>
    26d2:	2d 85       	ldd	r18, Y+13	; 0x0d
    26d4:	3e 85       	ldd	r19, Y+14	; 0x0e
    26d6:	4f 85       	ldd	r20, Y+15	; 0x0f
    26d8:	58 89       	ldd	r21, Y+16	; 0x10
    26da:	0e 94 b1 2a 	call	0x5562	; 0x5562 <__mulsf3>
    26de:	9b 01       	movw	r18, r22
    26e0:	ac 01       	movw	r20, r24
    26e2:	c7 01       	movw	r24, r14
    26e4:	b6 01       	movw	r22, r12
    26e6:	0e 94 2c 28 	call	0x5058	; 0x5058 <__addsf3>
    26ea:	6d 8f       	std	Y+29, r22	; 0x1d
    26ec:	7e 8f       	std	Y+30, r23	; 0x1e
    26ee:	8f 8f       	std	Y+31, r24	; 0x1f
    26f0:	98 a3       	std	Y+32, r25	; 0x20
		s3 = _2q1 * (2.0f * q1q3 - _2q0q2 - ax) + _2q2 * (2.0f * q0q1 + _2q2q3 - ay) + (-_4bx * q3 + _2bz * q1) * (_2bx * (0.5f - q2q2 - q3q3) + _2bz * (q1q3 - q0q2) - mx) + (-_2bx * q0 + _2bz * q2) * (_2bx * (q1q2 - q0q3) + _2bz * (q0q1 + q2q3) - my) + _2bx * q1 * (_2bx * (q0q2 + q1q3) + _2bz * (0.5f - q1q1 - q2q2) - mz);
    26f2:	20 91 5c 03 	lds	r18, 0x035C	; 0x80035c <q3>
    26f6:	30 91 5d 03 	lds	r19, 0x035D	; 0x80035d <q3+0x1>
    26fa:	40 91 5e 03 	lds	r20, 0x035E	; 0x80035e <q3+0x2>
    26fe:	50 91 5f 03 	lds	r21, 0x035F	; 0x80035f <q3+0x3>
    2702:	40 90 64 03 	lds	r4, 0x0364	; 0x800364 <q1>
    2706:	50 90 65 03 	lds	r5, 0x0365	; 0x800365 <q1+0x1>
    270a:	60 90 66 03 	lds	r6, 0x0366	; 0x800366 <q1+0x2>
    270e:	70 90 67 03 	lds	r7, 0x0367	; 0x800367 <q1+0x3>
    2712:	c0 90 00 01 	lds	r12, 0x0100	; 0x800100 <__data_start>
    2716:	d0 90 01 01 	lds	r13, 0x0101	; 0x800101 <__data_start+0x1>
    271a:	e0 90 02 01 	lds	r14, 0x0102	; 0x800102 <__data_start+0x2>
    271e:	f0 90 03 01 	lds	r15, 0x0103	; 0x800103 <__data_start+0x3>
    2722:	80 91 60 03 	lds	r24, 0x0360	; 0x800360 <q2>
    2726:	90 91 61 03 	lds	r25, 0x0361	; 0x800361 <q2+0x1>
    272a:	a0 91 62 03 	lds	r26, 0x0362	; 0x800362 <q2+0x2>
    272e:	b0 91 63 03 	lds	r27, 0x0363	; 0x800363 <q2+0x3>
    2732:	8d a7       	std	Y+45, r24	; 0x2d
    2734:	9e a7       	std	Y+46, r25	; 0x2e
    2736:	af a7       	std	Y+47, r26	; 0x2f
    2738:	b8 ab       	std	Y+48, r27	; 0x30
    273a:	80 90 64 03 	lds	r8, 0x0364	; 0x800364 <q1>
    273e:	90 90 65 03 	lds	r9, 0x0365	; 0x800365 <q1+0x1>
    2742:	a0 90 66 03 	lds	r10, 0x0366	; 0x800366 <q1+0x2>
    2746:	b0 90 67 03 	lds	r11, 0x0367	; 0x800367 <q1+0x3>
    274a:	69 a5       	ldd	r22, Y+41	; 0x29
    274c:	7a a5       	ldd	r23, Y+42	; 0x2a
    274e:	8b a5       	ldd	r24, Y+43	; 0x2b
    2750:	9c a5       	ldd	r25, Y+44	; 0x2c
    2752:	0e 94 b1 2a 	call	0x5562	; 0x5562 <__mulsf3>
    2756:	69 a7       	std	Y+41, r22	; 0x29
    2758:	7a a7       	std	Y+42, r23	; 0x2a
    275a:	8b a7       	std	Y+43, r24	; 0x2b
    275c:	9c a7       	std	Y+44, r25	; 0x2c
    275e:	a3 01       	movw	r20, r6
    2760:	92 01       	movw	r18, r4
    2762:	69 81       	ldd	r22, Y+1	; 0x01
    2764:	7a 81       	ldd	r23, Y+2	; 0x02
    2766:	8b 81       	ldd	r24, Y+3	; 0x03
    2768:	9c 81       	ldd	r25, Y+4	; 0x04
    276a:	0e 94 b1 2a 	call	0x5562	; 0x5562 <__mulsf3>
    276e:	9b 01       	movw	r18, r22
    2770:	ac 01       	movw	r20, r24
    2772:	69 a5       	ldd	r22, Y+41	; 0x29
    2774:	7a a5       	ldd	r23, Y+42	; 0x2a
    2776:	8b a5       	ldd	r24, Y+43	; 0x2b
    2778:	9c a5       	ldd	r25, Y+44	; 0x2c
    277a:	0e 94 2c 28 	call	0x5058	; 0x5058 <__addsf3>
    277e:	29 89       	ldd	r18, Y+17	; 0x11
    2780:	3a 89       	ldd	r19, Y+18	; 0x12
    2782:	4b 89       	ldd	r20, Y+19	; 0x13
    2784:	5c 89       	ldd	r21, Y+20	; 0x14
    2786:	0e 94 b1 2a 	call	0x5562	; 0x5562 <__mulsf3>
    278a:	69 8b       	std	Y+17, r22	; 0x11
    278c:	7a 8b       	std	Y+18, r23	; 0x12
    278e:	8b 8b       	std	Y+19, r24	; 0x13
    2790:	9c 8b       	std	Y+20, r25	; 0x14
    2792:	2d a1       	ldd	r18, Y+37	; 0x25
    2794:	3e a1       	ldd	r19, Y+38	; 0x26
    2796:	4f a1       	ldd	r20, Y+39	; 0x27
    2798:	58 a5       	ldd	r21, Y+40	; 0x28
    279a:	69 a9       	ldd	r22, Y+49	; 0x31
    279c:	7a a9       	ldd	r23, Y+50	; 0x32
    279e:	8b a9       	ldd	r24, Y+51	; 0x33
    27a0:	9c a9       	ldd	r25, Y+52	; 0x34
    27a2:	0e 94 b1 2a 	call	0x5562	; 0x5562 <__mulsf3>
    27a6:	2b 01       	movw	r4, r22
    27a8:	3c 01       	movw	r6, r24
    27aa:	21 96       	adiw	r28, 0x01	; 1
    27ac:	2c ad       	ldd	r18, Y+60	; 0x3c
    27ae:	3d ad       	ldd	r19, Y+61	; 0x3d
    27b0:	4e ad       	ldd	r20, Y+62	; 0x3e
    27b2:	5f ad       	ldd	r21, Y+63	; 0x3f
    27b4:	21 97       	sbiw	r28, 0x01	; 1
    27b6:	6d a9       	ldd	r22, Y+53	; 0x35
    27b8:	7e a9       	ldd	r23, Y+54	; 0x36
    27ba:	8f a9       	ldd	r24, Y+55	; 0x37
    27bc:	98 ad       	ldd	r25, Y+56	; 0x38
    27be:	0e 94 b1 2a 	call	0x5562	; 0x5562 <__mulsf3>
    27c2:	9b 01       	movw	r18, r22
    27c4:	ac 01       	movw	r20, r24
    27c6:	c3 01       	movw	r24, r6
    27c8:	b2 01       	movw	r22, r4
    27ca:	0e 94 2c 28 	call	0x5058	; 0x5058 <__addsf3>
    27ce:	9b 01       	movw	r18, r22
    27d0:	ac 01       	movw	r20, r24
    27d2:	69 89       	ldd	r22, Y+17	; 0x11
    27d4:	7a 89       	ldd	r23, Y+18	; 0x12
    27d6:	8b 89       	ldd	r24, Y+19	; 0x13
    27d8:	9c 89       	ldd	r25, Y+20	; 0x14
    27da:	0e 94 2c 28 	call	0x5058	; 0x5058 <__addsf3>
    27de:	2b 01       	movw	r4, r22
    27e0:	3c 01       	movw	r6, r24
    27e2:	a7 01       	movw	r20, r14
    27e4:	96 01       	movw	r18, r12
    27e6:	69 a1       	ldd	r22, Y+33	; 0x21
    27e8:	7a a1       	ldd	r23, Y+34	; 0x22
    27ea:	8b a1       	ldd	r24, Y+35	; 0x23
    27ec:	9c a1       	ldd	r25, Y+36	; 0x24
    27ee:	0e 94 b1 2a 	call	0x5562	; 0x5562 <__mulsf3>
    27f2:	6b 01       	movw	r12, r22
    27f4:	7c 01       	movw	r14, r24
    27f6:	2d a5       	ldd	r18, Y+45	; 0x2d
    27f8:	3e a5       	ldd	r19, Y+46	; 0x2e
    27fa:	4f a5       	ldd	r20, Y+47	; 0x2f
    27fc:	58 a9       	ldd	r21, Y+48	; 0x30
    27fe:	69 81       	ldd	r22, Y+1	; 0x01
    2800:	7a 81       	ldd	r23, Y+2	; 0x02
    2802:	8b 81       	ldd	r24, Y+3	; 0x03
    2804:	9c 81       	ldd	r25, Y+4	; 0x04
    2806:	0e 94 b1 2a 	call	0x5562	; 0x5562 <__mulsf3>
    280a:	9b 01       	movw	r18, r22
    280c:	ac 01       	movw	r20, r24
    280e:	c7 01       	movw	r24, r14
    2810:	b6 01       	movw	r22, r12
    2812:	0e 94 2c 28 	call	0x5058	; 0x5058 <__addsf3>
    2816:	2d 81       	ldd	r18, Y+5	; 0x05
    2818:	3e 81       	ldd	r19, Y+6	; 0x06
    281a:	4f 81       	ldd	r20, Y+7	; 0x07
    281c:	58 85       	ldd	r21, Y+8	; 0x08
    281e:	0e 94 b1 2a 	call	0x5562	; 0x5562 <__mulsf3>
    2822:	9b 01       	movw	r18, r22
    2824:	ac 01       	movw	r20, r24
    2826:	c3 01       	movw	r24, r6
    2828:	b2 01       	movw	r22, r4
    282a:	0e 94 2c 28 	call	0x5058	; 0x5058 <__addsf3>
    282e:	6b 01       	movw	r12, r22
    2830:	7c 01       	movw	r14, r24
    2832:	a5 01       	movw	r20, r10
    2834:	94 01       	movw	r18, r8
    2836:	69 85       	ldd	r22, Y+9	; 0x09
    2838:	7a 85       	ldd	r23, Y+10	; 0x0a
    283a:	8b 85       	ldd	r24, Y+11	; 0x0b
    283c:	9c 85       	ldd	r25, Y+12	; 0x0c
    283e:	0e 94 b1 2a 	call	0x5562	; 0x5562 <__mulsf3>
    2842:	2d 85       	ldd	r18, Y+13	; 0x0d
    2844:	3e 85       	ldd	r19, Y+14	; 0x0e
    2846:	4f 85       	ldd	r20, Y+15	; 0x0f
    2848:	58 89       	ldd	r21, Y+16	; 0x10
    284a:	0e 94 b1 2a 	call	0x5562	; 0x5562 <__mulsf3>
    284e:	9b 01       	movw	r18, r22
    2850:	ac 01       	movw	r20, r24
    2852:	c7 01       	movw	r24, r14
    2854:	b6 01       	movw	r22, r12
    2856:	0e 94 2c 28 	call	0x5058	; 0x5058 <__addsf3>
    285a:	4b 01       	movw	r8, r22
    285c:	5c 01       	movw	r10, r24
		recipNorm = invSqrt(s0 * s0 + s1 * s1 + s2 * s2 + s3 * s3); // normalise step magnitude
    285e:	2d 89       	ldd	r18, Y+21	; 0x15
    2860:	3e 89       	ldd	r19, Y+22	; 0x16
    2862:	4f 89       	ldd	r20, Y+23	; 0x17
    2864:	58 8d       	ldd	r21, Y+24	; 0x18
    2866:	ca 01       	movw	r24, r20
    2868:	b9 01       	movw	r22, r18
    286a:	0e 94 b1 2a 	call	0x5562	; 0x5562 <__mulsf3>
    286e:	6b 01       	movw	r12, r22
    2870:	7c 01       	movw	r14, r24
    2872:	29 8d       	ldd	r18, Y+25	; 0x19
    2874:	3a 8d       	ldd	r19, Y+26	; 0x1a
    2876:	4b 8d       	ldd	r20, Y+27	; 0x1b
    2878:	5c 8d       	ldd	r21, Y+28	; 0x1c
    287a:	ca 01       	movw	r24, r20
    287c:	b9 01       	movw	r22, r18
    287e:	0e 94 b1 2a 	call	0x5562	; 0x5562 <__mulsf3>
    2882:	9b 01       	movw	r18, r22
    2884:	ac 01       	movw	r20, r24
    2886:	c7 01       	movw	r24, r14
    2888:	b6 01       	movw	r22, r12
    288a:	0e 94 2c 28 	call	0x5058	; 0x5058 <__addsf3>
    288e:	6b 01       	movw	r12, r22
    2890:	7c 01       	movw	r14, r24
    2892:	2d 8d       	ldd	r18, Y+29	; 0x1d
    2894:	3e 8d       	ldd	r19, Y+30	; 0x1e
    2896:	4f 8d       	ldd	r20, Y+31	; 0x1f
    2898:	58 a1       	ldd	r21, Y+32	; 0x20
    289a:	ca 01       	movw	r24, r20
    289c:	b9 01       	movw	r22, r18
    289e:	0e 94 b1 2a 	call	0x5562	; 0x5562 <__mulsf3>
    28a2:	9b 01       	movw	r18, r22
    28a4:	ac 01       	movw	r20, r24
    28a6:	c7 01       	movw	r24, r14
    28a8:	b6 01       	movw	r22, r12
    28aa:	0e 94 2c 28 	call	0x5058	; 0x5058 <__addsf3>
    28ae:	6b 01       	movw	r12, r22
    28b0:	7c 01       	movw	r14, r24
    28b2:	a5 01       	movw	r20, r10
    28b4:	94 01       	movw	r18, r8
    28b6:	c5 01       	movw	r24, r10
    28b8:	b4 01       	movw	r22, r8
    28ba:	0e 94 b1 2a 	call	0x5562	; 0x5562 <__mulsf3>
    28be:	9b 01       	movw	r18, r22
    28c0:	ac 01       	movw	r20, r24
    28c2:	c7 01       	movw	r24, r14
    28c4:	b6 01       	movw	r22, r12
    28c6:	0e 94 2c 28 	call	0x5058	; 0x5058 <__addsf3>
    28ca:	0e 94 56 01 	call	0x2ac	; 0x2ac <invSqrt>
    28ce:	6b 01       	movw	r12, r22
    28d0:	7c 01       	movw	r14, r24
		s1 *= recipNorm;
		s2 *= recipNorm;
		s3 *= recipNorm;

		// Apply feedback step
		qDot1 -= beta * s0;
    28d2:	40 90 04 01 	lds	r4, 0x0104	; 0x800104 <beta>
    28d6:	50 90 05 01 	lds	r5, 0x0105	; 0x800105 <beta+0x1>
    28da:	60 90 06 01 	lds	r6, 0x0106	; 0x800106 <beta+0x2>
    28de:	70 90 07 01 	lds	r7, 0x0107	; 0x800107 <beta+0x3>
    28e2:	9b 01       	movw	r18, r22
    28e4:	ac 01       	movw	r20, r24
    28e6:	6d 89       	ldd	r22, Y+21	; 0x15
    28e8:	7e 89       	ldd	r23, Y+22	; 0x16
    28ea:	8f 89       	ldd	r24, Y+23	; 0x17
    28ec:	98 8d       	ldd	r25, Y+24	; 0x18
    28ee:	0e 94 b1 2a 	call	0x5562	; 0x5562 <__mulsf3>
    28f2:	a3 01       	movw	r20, r6
    28f4:	92 01       	movw	r18, r4
    28f6:	0e 94 b1 2a 	call	0x5562	; 0x5562 <__mulsf3>
    28fa:	9b 01       	movw	r18, r22
    28fc:	ac 01       	movw	r20, r24
    28fe:	69 96       	adiw	r28, 0x19	; 25
    2900:	6c ad       	ldd	r22, Y+60	; 0x3c
    2902:	7d ad       	ldd	r23, Y+61	; 0x3d
    2904:	8e ad       	ldd	r24, Y+62	; 0x3e
    2906:	9f ad       	ldd	r25, Y+63	; 0x3f
    2908:	69 97       	sbiw	r28, 0x19	; 25
    290a:	0e 94 2b 28 	call	0x5056	; 0x5056 <__subsf3>
    290e:	69 96       	adiw	r28, 0x19	; 25
    2910:	6c af       	std	Y+60, r22	; 0x3c
    2912:	7d af       	std	Y+61, r23	; 0x3d
    2914:	8e af       	std	Y+62, r24	; 0x3e
    2916:	9f af       	std	Y+63, r25	; 0x3f
    2918:	69 97       	sbiw	r28, 0x19	; 25
		qDot2 -= beta * s1;
    291a:	40 90 04 01 	lds	r4, 0x0104	; 0x800104 <beta>
    291e:	50 90 05 01 	lds	r5, 0x0105	; 0x800105 <beta+0x1>
    2922:	60 90 06 01 	lds	r6, 0x0106	; 0x800106 <beta+0x2>
    2926:	70 90 07 01 	lds	r7, 0x0107	; 0x800107 <beta+0x3>
    292a:	a7 01       	movw	r20, r14
    292c:	96 01       	movw	r18, r12
    292e:	69 8d       	ldd	r22, Y+25	; 0x19
    2930:	7a 8d       	ldd	r23, Y+26	; 0x1a
    2932:	8b 8d       	ldd	r24, Y+27	; 0x1b
    2934:	9c 8d       	ldd	r25, Y+28	; 0x1c
    2936:	0e 94 b1 2a 	call	0x5562	; 0x5562 <__mulsf3>
    293a:	a3 01       	movw	r20, r6
    293c:	92 01       	movw	r18, r4
    293e:	0e 94 b1 2a 	call	0x5562	; 0x5562 <__mulsf3>
    2942:	9b 01       	movw	r18, r22
    2944:	ac 01       	movw	r20, r24
    2946:	6d 96       	adiw	r28, 0x1d	; 29
    2948:	6c ad       	ldd	r22, Y+60	; 0x3c
    294a:	7d ad       	ldd	r23, Y+61	; 0x3d
    294c:	8e ad       	ldd	r24, Y+62	; 0x3e
    294e:	9f ad       	ldd	r25, Y+63	; 0x3f
    2950:	6d 97       	sbiw	r28, 0x1d	; 29
    2952:	0e 94 2b 28 	call	0x5056	; 0x5056 <__subsf3>
    2956:	6d 96       	adiw	r28, 0x1d	; 29
    2958:	6c af       	std	Y+60, r22	; 0x3c
    295a:	7d af       	std	Y+61, r23	; 0x3d
    295c:	8e af       	std	Y+62, r24	; 0x3e
    295e:	9f af       	std	Y+63, r25	; 0x3f
    2960:	6d 97       	sbiw	r28, 0x1d	; 29
		qDot3 -= beta * s2;
    2962:	40 90 04 01 	lds	r4, 0x0104	; 0x800104 <beta>
    2966:	50 90 05 01 	lds	r5, 0x0105	; 0x800105 <beta+0x1>
    296a:	60 90 06 01 	lds	r6, 0x0106	; 0x800106 <beta+0x2>
    296e:	70 90 07 01 	lds	r7, 0x0107	; 0x800107 <beta+0x3>
    2972:	a7 01       	movw	r20, r14
    2974:	96 01       	movw	r18, r12
    2976:	6d 8d       	ldd	r22, Y+29	; 0x1d
    2978:	7e 8d       	ldd	r23, Y+30	; 0x1e
    297a:	8f 8d       	ldd	r24, Y+31	; 0x1f
    297c:	98 a1       	ldd	r25, Y+32	; 0x20
    297e:	0e 94 b1 2a 	call	0x5562	; 0x5562 <__mulsf3>
    2982:	a3 01       	movw	r20, r6
    2984:	92 01       	movw	r18, r4
    2986:	0e 94 b1 2a 	call	0x5562	; 0x5562 <__mulsf3>
    298a:	9b 01       	movw	r18, r22
    298c:	ac 01       	movw	r20, r24
    298e:	a1 96       	adiw	r28, 0x21	; 33
    2990:	6c ad       	ldd	r22, Y+60	; 0x3c
    2992:	7d ad       	ldd	r23, Y+61	; 0x3d
    2994:	8e ad       	ldd	r24, Y+62	; 0x3e
    2996:	9f ad       	ldd	r25, Y+63	; 0x3f
    2998:	a1 97       	sbiw	r28, 0x21	; 33
    299a:	0e 94 2b 28 	call	0x5056	; 0x5056 <__subsf3>
    299e:	a1 96       	adiw	r28, 0x21	; 33
    29a0:	6c af       	std	Y+60, r22	; 0x3c
    29a2:	7d af       	std	Y+61, r23	; 0x3d
    29a4:	8e af       	std	Y+62, r24	; 0x3e
    29a6:	9f af       	std	Y+63, r25	; 0x3f
    29a8:	a1 97       	sbiw	r28, 0x21	; 33
		qDot4 -= beta * s3;
    29aa:	40 90 04 01 	lds	r4, 0x0104	; 0x800104 <beta>
    29ae:	50 90 05 01 	lds	r5, 0x0105	; 0x800105 <beta+0x1>
    29b2:	60 90 06 01 	lds	r6, 0x0106	; 0x800106 <beta+0x2>
    29b6:	70 90 07 01 	lds	r7, 0x0107	; 0x800107 <beta+0x3>
    29ba:	a7 01       	movw	r20, r14
    29bc:	96 01       	movw	r18, r12
    29be:	c5 01       	movw	r24, r10
    29c0:	b4 01       	movw	r22, r8
    29c2:	0e 94 b1 2a 	call	0x5562	; 0x5562 <__mulsf3>
    29c6:	a3 01       	movw	r20, r6
    29c8:	92 01       	movw	r18, r4
    29ca:	0e 94 b1 2a 	call	0x5562	; 0x5562 <__mulsf3>
    29ce:	9b 01       	movw	r18, r22
    29d0:	ac 01       	movw	r20, r24
    29d2:	a5 96       	adiw	r28, 0x25	; 37
    29d4:	6c ad       	ldd	r22, Y+60	; 0x3c
    29d6:	7d ad       	ldd	r23, Y+61	; 0x3d
    29d8:	8e ad       	ldd	r24, Y+62	; 0x3e
    29da:	9f ad       	ldd	r25, Y+63	; 0x3f
    29dc:	a5 97       	sbiw	r28, 0x25	; 37
    29de:	0e 94 2b 28 	call	0x5056	; 0x5056 <__subsf3>
    29e2:	a5 96       	adiw	r28, 0x25	; 37
    29e4:	6c af       	std	Y+60, r22	; 0x3c
    29e6:	7d af       	std	Y+61, r23	; 0x3d
    29e8:	8e af       	std	Y+62, r24	; 0x3e
    29ea:	9f af       	std	Y+63, r25	; 0x3f
    29ec:	a5 97       	sbiw	r28, 0x25	; 37
	// Integrate rate of change of quaternion to yield quaternion
//	q0 += qDot1 * (1.0f / sampleFreq);
//	q1 += qDot2 * (1.0f / sampleFreq);
//	q2 += qDot3 * (1.0f / sampleFreq);
//	q3 += qDot4 * (1.0f / sampleFreq);
	q0 += qDot1 * dt;
    29ee:	20 91 4c 03 	lds	r18, 0x034C	; 0x80034c <__data_end>
    29f2:	30 91 4d 03 	lds	r19, 0x034D	; 0x80034d <__data_end+0x1>
    29f6:	40 91 4e 03 	lds	r20, 0x034E	; 0x80034e <__data_end+0x2>
    29fa:	50 91 4f 03 	lds	r21, 0x034F	; 0x80034f <__data_end+0x3>
    29fe:	c0 90 00 01 	lds	r12, 0x0100	; 0x800100 <__data_start>
    2a02:	d0 90 01 01 	lds	r13, 0x0101	; 0x800101 <__data_start+0x1>
    2a06:	e0 90 02 01 	lds	r14, 0x0102	; 0x800102 <__data_start+0x2>
    2a0a:	f0 90 03 01 	lds	r15, 0x0103	; 0x800103 <__data_start+0x3>
    2a0e:	69 96       	adiw	r28, 0x19	; 25
    2a10:	6c ad       	ldd	r22, Y+60	; 0x3c
    2a12:	7d ad       	ldd	r23, Y+61	; 0x3d
    2a14:	8e ad       	ldd	r24, Y+62	; 0x3e
    2a16:	9f ad       	ldd	r25, Y+63	; 0x3f
    2a18:	69 97       	sbiw	r28, 0x19	; 25
    2a1a:	0e 94 b1 2a 	call	0x5562	; 0x5562 <__mulsf3>
    2a1e:	a7 01       	movw	r20, r14
    2a20:	96 01       	movw	r18, r12
    2a22:	0e 94 2c 28 	call	0x5058	; 0x5058 <__addsf3>
    2a26:	60 93 00 01 	sts	0x0100, r22	; 0x800100 <__data_start>
    2a2a:	70 93 01 01 	sts	0x0101, r23	; 0x800101 <__data_start+0x1>
    2a2e:	80 93 02 01 	sts	0x0102, r24	; 0x800102 <__data_start+0x2>
    2a32:	90 93 03 01 	sts	0x0103, r25	; 0x800103 <__data_start+0x3>
	q1 += qDot2 * dt;
    2a36:	20 91 4c 03 	lds	r18, 0x034C	; 0x80034c <__data_end>
    2a3a:	30 91 4d 03 	lds	r19, 0x034D	; 0x80034d <__data_end+0x1>
    2a3e:	40 91 4e 03 	lds	r20, 0x034E	; 0x80034e <__data_end+0x2>
    2a42:	50 91 4f 03 	lds	r21, 0x034F	; 0x80034f <__data_end+0x3>
    2a46:	c0 90 64 03 	lds	r12, 0x0364	; 0x800364 <q1>
    2a4a:	d0 90 65 03 	lds	r13, 0x0365	; 0x800365 <q1+0x1>
    2a4e:	e0 90 66 03 	lds	r14, 0x0366	; 0x800366 <q1+0x2>
    2a52:	f0 90 67 03 	lds	r15, 0x0367	; 0x800367 <q1+0x3>
    2a56:	6d 96       	adiw	r28, 0x1d	; 29
    2a58:	6c ad       	ldd	r22, Y+60	; 0x3c
    2a5a:	7d ad       	ldd	r23, Y+61	; 0x3d
    2a5c:	8e ad       	ldd	r24, Y+62	; 0x3e
    2a5e:	9f ad       	ldd	r25, Y+63	; 0x3f
    2a60:	6d 97       	sbiw	r28, 0x1d	; 29
    2a62:	0e 94 b1 2a 	call	0x5562	; 0x5562 <__mulsf3>
    2a66:	a7 01       	movw	r20, r14
    2a68:	96 01       	movw	r18, r12
    2a6a:	0e 94 2c 28 	call	0x5058	; 0x5058 <__addsf3>
    2a6e:	60 93 64 03 	sts	0x0364, r22	; 0x800364 <q1>
    2a72:	70 93 65 03 	sts	0x0365, r23	; 0x800365 <q1+0x1>
    2a76:	80 93 66 03 	sts	0x0366, r24	; 0x800366 <q1+0x2>
    2a7a:	90 93 67 03 	sts	0x0367, r25	; 0x800367 <q1+0x3>
	q2 += qDot3 * dt;
    2a7e:	20 91 4c 03 	lds	r18, 0x034C	; 0x80034c <__data_end>
    2a82:	30 91 4d 03 	lds	r19, 0x034D	; 0x80034d <__data_end+0x1>
    2a86:	40 91 4e 03 	lds	r20, 0x034E	; 0x80034e <__data_end+0x2>
    2a8a:	50 91 4f 03 	lds	r21, 0x034F	; 0x80034f <__data_end+0x3>
    2a8e:	c0 90 60 03 	lds	r12, 0x0360	; 0x800360 <q2>
    2a92:	d0 90 61 03 	lds	r13, 0x0361	; 0x800361 <q2+0x1>
    2a96:	e0 90 62 03 	lds	r14, 0x0362	; 0x800362 <q2+0x2>
    2a9a:	f0 90 63 03 	lds	r15, 0x0363	; 0x800363 <q2+0x3>
    2a9e:	a1 96       	adiw	r28, 0x21	; 33
    2aa0:	6c ad       	ldd	r22, Y+60	; 0x3c
    2aa2:	7d ad       	ldd	r23, Y+61	; 0x3d
    2aa4:	8e ad       	ldd	r24, Y+62	; 0x3e
    2aa6:	9f ad       	ldd	r25, Y+63	; 0x3f
    2aa8:	a1 97       	sbiw	r28, 0x21	; 33
    2aaa:	0e 94 b1 2a 	call	0x5562	; 0x5562 <__mulsf3>
    2aae:	a7 01       	movw	r20, r14
    2ab0:	96 01       	movw	r18, r12
    2ab2:	0e 94 2c 28 	call	0x5058	; 0x5058 <__addsf3>
    2ab6:	60 93 60 03 	sts	0x0360, r22	; 0x800360 <q2>
    2aba:	70 93 61 03 	sts	0x0361, r23	; 0x800361 <q2+0x1>
    2abe:	80 93 62 03 	sts	0x0362, r24	; 0x800362 <q2+0x2>
    2ac2:	90 93 63 03 	sts	0x0363, r25	; 0x800363 <q2+0x3>
	q3 += qDot4 * dt;
    2ac6:	20 91 4c 03 	lds	r18, 0x034C	; 0x80034c <__data_end>
    2aca:	30 91 4d 03 	lds	r19, 0x034D	; 0x80034d <__data_end+0x1>
    2ace:	40 91 4e 03 	lds	r20, 0x034E	; 0x80034e <__data_end+0x2>
    2ad2:	50 91 4f 03 	lds	r21, 0x034F	; 0x80034f <__data_end+0x3>
    2ad6:	c0 90 5c 03 	lds	r12, 0x035C	; 0x80035c <q3>
    2ada:	d0 90 5d 03 	lds	r13, 0x035D	; 0x80035d <q3+0x1>
    2ade:	e0 90 5e 03 	lds	r14, 0x035E	; 0x80035e <q3+0x2>
    2ae2:	f0 90 5f 03 	lds	r15, 0x035F	; 0x80035f <q3+0x3>
    2ae6:	a5 96       	adiw	r28, 0x25	; 37
    2ae8:	6c ad       	ldd	r22, Y+60	; 0x3c
    2aea:	7d ad       	ldd	r23, Y+61	; 0x3d
    2aec:	8e ad       	ldd	r24, Y+62	; 0x3e
    2aee:	9f ad       	ldd	r25, Y+63	; 0x3f
    2af0:	a5 97       	sbiw	r28, 0x25	; 37
    2af2:	0e 94 b1 2a 	call	0x5562	; 0x5562 <__mulsf3>
    2af6:	a7 01       	movw	r20, r14
    2af8:	96 01       	movw	r18, r12
    2afa:	0e 94 2c 28 	call	0x5058	; 0x5058 <__addsf3>
    2afe:	60 93 5c 03 	sts	0x035C, r22	; 0x80035c <q3>
    2b02:	70 93 5d 03 	sts	0x035D, r23	; 0x80035d <q3+0x1>
    2b06:	80 93 5e 03 	sts	0x035E, r24	; 0x80035e <q3+0x2>
    2b0a:	90 93 5f 03 	sts	0x035F, r25	; 0x80035f <q3+0x3>

	// Normalise quaternion
	recipNorm = invSqrt(q0 * q0 + q1 * q1 + q2 * q2 + q3 * q3);
    2b0e:	60 91 00 01 	lds	r22, 0x0100	; 0x800100 <__data_start>
    2b12:	70 91 01 01 	lds	r23, 0x0101	; 0x800101 <__data_start+0x1>
    2b16:	80 91 02 01 	lds	r24, 0x0102	; 0x800102 <__data_start+0x2>
    2b1a:	90 91 03 01 	lds	r25, 0x0103	; 0x800103 <__data_start+0x3>
    2b1e:	20 91 00 01 	lds	r18, 0x0100	; 0x800100 <__data_start>
    2b22:	30 91 01 01 	lds	r19, 0x0101	; 0x800101 <__data_start+0x1>
    2b26:	40 91 02 01 	lds	r20, 0x0102	; 0x800102 <__data_start+0x2>
    2b2a:	50 91 03 01 	lds	r21, 0x0103	; 0x800103 <__data_start+0x3>
    2b2e:	80 90 64 03 	lds	r8, 0x0364	; 0x800364 <q1>
    2b32:	90 90 65 03 	lds	r9, 0x0365	; 0x800365 <q1+0x1>
    2b36:	a0 90 66 03 	lds	r10, 0x0366	; 0x800366 <q1+0x2>
    2b3a:	b0 90 67 03 	lds	r11, 0x0367	; 0x800367 <q1+0x3>
    2b3e:	40 90 64 03 	lds	r4, 0x0364	; 0x800364 <q1>
    2b42:	50 90 65 03 	lds	r5, 0x0365	; 0x800365 <q1+0x1>
    2b46:	60 90 66 03 	lds	r6, 0x0366	; 0x800366 <q1+0x2>
    2b4a:	70 90 67 03 	lds	r7, 0x0367	; 0x800367 <q1+0x3>
    2b4e:	e0 90 60 03 	lds	r14, 0x0360	; 0x800360 <q2>
    2b52:	f0 90 61 03 	lds	r15, 0x0361	; 0x800361 <q2+0x1>
    2b56:	00 91 62 03 	lds	r16, 0x0362	; 0x800362 <q2+0x2>
    2b5a:	10 91 63 03 	lds	r17, 0x0363	; 0x800363 <q2+0x3>
    2b5e:	e9 82       	std	Y+1, r14	; 0x01
    2b60:	fa 82       	std	Y+2, r15	; 0x02
    2b62:	0b 83       	std	Y+3, r16	; 0x03
    2b64:	1c 83       	std	Y+4, r17	; 0x04
    2b66:	e0 90 60 03 	lds	r14, 0x0360	; 0x800360 <q2>
    2b6a:	f0 90 61 03 	lds	r15, 0x0361	; 0x800361 <q2+0x1>
    2b6e:	00 91 62 03 	lds	r16, 0x0362	; 0x800362 <q2+0x2>
    2b72:	10 91 63 03 	lds	r17, 0x0363	; 0x800363 <q2+0x3>
    2b76:	e9 86       	std	Y+9, r14	; 0x09
    2b78:	fa 86       	std	Y+10, r15	; 0x0a
    2b7a:	0b 87       	std	Y+11, r16	; 0x0b
    2b7c:	1c 87       	std	Y+12, r17	; 0x0c
    2b7e:	e0 90 5c 03 	lds	r14, 0x035C	; 0x80035c <q3>
    2b82:	f0 90 5d 03 	lds	r15, 0x035D	; 0x80035d <q3+0x1>
    2b86:	00 91 5e 03 	lds	r16, 0x035E	; 0x80035e <q3+0x2>
    2b8a:	10 91 5f 03 	lds	r17, 0x035F	; 0x80035f <q3+0x3>
    2b8e:	e9 8a       	std	Y+17, r14	; 0x11
    2b90:	fa 8a       	std	Y+18, r15	; 0x12
    2b92:	0b 8b       	std	Y+19, r16	; 0x13
    2b94:	1c 8b       	std	Y+20, r17	; 0x14
    2b96:	e0 90 5c 03 	lds	r14, 0x035C	; 0x80035c <q3>
    2b9a:	f0 90 5d 03 	lds	r15, 0x035D	; 0x80035d <q3+0x1>
    2b9e:	00 91 5e 03 	lds	r16, 0x035E	; 0x80035e <q3+0x2>
    2ba2:	10 91 5f 03 	lds	r17, 0x035F	; 0x80035f <q3+0x3>
    2ba6:	ed 82       	std	Y+5, r14	; 0x05
    2ba8:	fe 82       	std	Y+6, r15	; 0x06
    2baa:	0f 83       	std	Y+7, r16	; 0x07
    2bac:	18 87       	std	Y+8, r17	; 0x08
    2bae:	0e 94 b1 2a 	call	0x5562	; 0x5562 <__mulsf3>
    2bb2:	6b 01       	movw	r12, r22
    2bb4:	7c 01       	movw	r14, r24
    2bb6:	a3 01       	movw	r20, r6
    2bb8:	92 01       	movw	r18, r4
    2bba:	c5 01       	movw	r24, r10
    2bbc:	b4 01       	movw	r22, r8
    2bbe:	0e 94 b1 2a 	call	0x5562	; 0x5562 <__mulsf3>
    2bc2:	9b 01       	movw	r18, r22
    2bc4:	ac 01       	movw	r20, r24
    2bc6:	c7 01       	movw	r24, r14
    2bc8:	b6 01       	movw	r22, r12
    2bca:	0e 94 2c 28 	call	0x5058	; 0x5058 <__addsf3>
    2bce:	4b 01       	movw	r8, r22
    2bd0:	5c 01       	movw	r10, r24
    2bd2:	29 85       	ldd	r18, Y+9	; 0x09
    2bd4:	3a 85       	ldd	r19, Y+10	; 0x0a
    2bd6:	4b 85       	ldd	r20, Y+11	; 0x0b
    2bd8:	5c 85       	ldd	r21, Y+12	; 0x0c
    2bda:	69 81       	ldd	r22, Y+1	; 0x01
    2bdc:	7a 81       	ldd	r23, Y+2	; 0x02
    2bde:	8b 81       	ldd	r24, Y+3	; 0x03
    2be0:	9c 81       	ldd	r25, Y+4	; 0x04
    2be2:	0e 94 b1 2a 	call	0x5562	; 0x5562 <__mulsf3>
    2be6:	9b 01       	movw	r18, r22
    2be8:	ac 01       	movw	r20, r24
    2bea:	c5 01       	movw	r24, r10
    2bec:	b4 01       	movw	r22, r8
    2bee:	0e 94 2c 28 	call	0x5058	; 0x5058 <__addsf3>
    2bf2:	4b 01       	movw	r8, r22
    2bf4:	5c 01       	movw	r10, r24
    2bf6:	2d 81       	ldd	r18, Y+5	; 0x05
    2bf8:	3e 81       	ldd	r19, Y+6	; 0x06
    2bfa:	4f 81       	ldd	r20, Y+7	; 0x07
    2bfc:	58 85       	ldd	r21, Y+8	; 0x08
    2bfe:	69 89       	ldd	r22, Y+17	; 0x11
    2c00:	7a 89       	ldd	r23, Y+18	; 0x12
    2c02:	8b 89       	ldd	r24, Y+19	; 0x13
    2c04:	9c 89       	ldd	r25, Y+20	; 0x14
    2c06:	0e 94 b1 2a 	call	0x5562	; 0x5562 <__mulsf3>
    2c0a:	9b 01       	movw	r18, r22
    2c0c:	ac 01       	movw	r20, r24
    2c0e:	c5 01       	movw	r24, r10
    2c10:	b4 01       	movw	r22, r8
    2c12:	0e 94 2c 28 	call	0x5058	; 0x5058 <__addsf3>
    2c16:	0e 94 56 01 	call	0x2ac	; 0x2ac <invSqrt>
    2c1a:	6b 01       	movw	r12, r22
    2c1c:	7c 01       	movw	r14, r24
	q0 *= recipNorm;
    2c1e:	20 91 00 01 	lds	r18, 0x0100	; 0x800100 <__data_start>
    2c22:	30 91 01 01 	lds	r19, 0x0101	; 0x800101 <__data_start+0x1>
    2c26:	40 91 02 01 	lds	r20, 0x0102	; 0x800102 <__data_start+0x2>
    2c2a:	50 91 03 01 	lds	r21, 0x0103	; 0x800103 <__data_start+0x3>
    2c2e:	0e 94 b1 2a 	call	0x5562	; 0x5562 <__mulsf3>
    2c32:	60 93 00 01 	sts	0x0100, r22	; 0x800100 <__data_start>
    2c36:	70 93 01 01 	sts	0x0101, r23	; 0x800101 <__data_start+0x1>
    2c3a:	80 93 02 01 	sts	0x0102, r24	; 0x800102 <__data_start+0x2>
    2c3e:	90 93 03 01 	sts	0x0103, r25	; 0x800103 <__data_start+0x3>
	q1 *= recipNorm;
    2c42:	20 91 64 03 	lds	r18, 0x0364	; 0x800364 <q1>
    2c46:	30 91 65 03 	lds	r19, 0x0365	; 0x800365 <q1+0x1>
    2c4a:	40 91 66 03 	lds	r20, 0x0366	; 0x800366 <q1+0x2>
    2c4e:	50 91 67 03 	lds	r21, 0x0367	; 0x800367 <q1+0x3>
    2c52:	c7 01       	movw	r24, r14
    2c54:	b6 01       	movw	r22, r12
    2c56:	0e 94 b1 2a 	call	0x5562	; 0x5562 <__mulsf3>
    2c5a:	60 93 64 03 	sts	0x0364, r22	; 0x800364 <q1>
    2c5e:	70 93 65 03 	sts	0x0365, r23	; 0x800365 <q1+0x1>
    2c62:	80 93 66 03 	sts	0x0366, r24	; 0x800366 <q1+0x2>
    2c66:	90 93 67 03 	sts	0x0367, r25	; 0x800367 <q1+0x3>
	q2 *= recipNorm;
    2c6a:	20 91 60 03 	lds	r18, 0x0360	; 0x800360 <q2>
    2c6e:	30 91 61 03 	lds	r19, 0x0361	; 0x800361 <q2+0x1>
    2c72:	40 91 62 03 	lds	r20, 0x0362	; 0x800362 <q2+0x2>
    2c76:	50 91 63 03 	lds	r21, 0x0363	; 0x800363 <q2+0x3>
    2c7a:	c7 01       	movw	r24, r14
    2c7c:	b6 01       	movw	r22, r12
    2c7e:	0e 94 b1 2a 	call	0x5562	; 0x5562 <__mulsf3>
    2c82:	60 93 60 03 	sts	0x0360, r22	; 0x800360 <q2>
    2c86:	70 93 61 03 	sts	0x0361, r23	; 0x800361 <q2+0x1>
    2c8a:	80 93 62 03 	sts	0x0362, r24	; 0x800362 <q2+0x2>
    2c8e:	90 93 63 03 	sts	0x0363, r25	; 0x800363 <q2+0x3>
	q3 *= recipNorm;
    2c92:	20 91 5c 03 	lds	r18, 0x035C	; 0x80035c <q3>
    2c96:	30 91 5d 03 	lds	r19, 0x035D	; 0x80035d <q3+0x1>
    2c9a:	40 91 5e 03 	lds	r20, 0x035E	; 0x80035e <q3+0x2>
    2c9e:	50 91 5f 03 	lds	r21, 0x035F	; 0x80035f <q3+0x3>
    2ca2:	c7 01       	movw	r24, r14
    2ca4:	b6 01       	movw	r22, r12
    2ca6:	0e 94 b1 2a 	call	0x5562	; 0x5562 <__mulsf3>
    2caa:	60 93 5c 03 	sts	0x035C, r22	; 0x80035c <q3>
    2cae:	70 93 5d 03 	sts	0x035D, r23	; 0x80035d <q3+0x1>
    2cb2:	80 93 5e 03 	sts	0x035E, r24	; 0x80035e <q3+0x2>
    2cb6:	90 93 5f 03 	sts	0x035F, r25	; 0x80035f <q3+0x3>
}
    2cba:	cc 56       	subi	r28, 0x6C	; 108
    2cbc:	df 4f       	sbci	r29, 0xFF	; 255
    2cbe:	0f b6       	in	r0, 0x3f	; 63
    2cc0:	f8 94       	cli
    2cc2:	de bf       	out	0x3e, r29	; 62
    2cc4:	0f be       	out	0x3f, r0	; 63
    2cc6:	cd bf       	out	0x3d, r28	; 61
    2cc8:	df 91       	pop	r29
    2cca:	cf 91       	pop	r28
    2ccc:	1f 91       	pop	r17
    2cce:	0f 91       	pop	r16
    2cd0:	ff 90       	pop	r15
    2cd2:	ef 90       	pop	r14
    2cd4:	df 90       	pop	r13
    2cd6:	cf 90       	pop	r12
    2cd8:	bf 90       	pop	r11
    2cda:	af 90       	pop	r10
    2cdc:	9f 90       	pop	r9
    2cde:	8f 90       	pop	r8
    2ce0:	7f 90       	pop	r7
    2ce2:	6f 90       	pop	r6
    2ce4:	5f 90       	pop	r5
    2ce6:	4f 90       	pop	r4
    2ce8:	3f 90       	pop	r3
    2cea:	2f 90       	pop	r2
    2cec:	08 95       	ret

00002cee <MadgwickAHRSupdateRollPitchYaw>:
	return y;
}

//----------------------------------------------------------------------------------------------------
// Updates Roll, Pitch and Yaw using quaternions
void MadgwickAHRSupdateRollPitchYaw(){
    2cee:	4f 92       	push	r4
    2cf0:	5f 92       	push	r5
    2cf2:	6f 92       	push	r6
    2cf4:	7f 92       	push	r7
    2cf6:	8f 92       	push	r8
    2cf8:	9f 92       	push	r9
    2cfa:	af 92       	push	r10
    2cfc:	bf 92       	push	r11
    2cfe:	cf 92       	push	r12
    2d00:	df 92       	push	r13
    2d02:	ef 92       	push	r14
    2d04:	ff 92       	push	r15
    2d06:	0f 93       	push	r16
    2d08:	1f 93       	push	r17
    2d0a:	cf 93       	push	r28
    2d0c:	df 93       	push	r29
    2d0e:	cd b7       	in	r28, 0x3d	; 61
    2d10:	de b7       	in	r29, 0x3e	; 62
    2d12:	64 97       	sbiw	r28, 0x14	; 20
    2d14:	0f b6       	in	r0, 0x3f	; 63
    2d16:	f8 94       	cli
    2d18:	de bf       	out	0x3e, r29	; 62
    2d1a:	0f be       	out	0x3f, r0	; 63
    2d1c:	cd bf       	out	0x3d, r28	; 61
	roll = atan2(q0*q1 + q2*q3, 0.5f - q1*q1 - q2*q2) * 57.29578f;
    2d1e:	60 91 64 03 	lds	r22, 0x0364	; 0x800364 <q1>
    2d22:	70 91 65 03 	lds	r23, 0x0365	; 0x800365 <q1+0x1>
    2d26:	80 91 66 03 	lds	r24, 0x0366	; 0x800366 <q1+0x2>
    2d2a:	90 91 67 03 	lds	r25, 0x0367	; 0x800367 <q1+0x3>
    2d2e:	20 91 64 03 	lds	r18, 0x0364	; 0x800364 <q1>
    2d32:	30 91 65 03 	lds	r19, 0x0365	; 0x800365 <q1+0x1>
    2d36:	40 91 66 03 	lds	r20, 0x0366	; 0x800366 <q1+0x2>
    2d3a:	50 91 67 03 	lds	r21, 0x0367	; 0x800367 <q1+0x3>
    2d3e:	80 90 60 03 	lds	r8, 0x0360	; 0x800360 <q2>
    2d42:	90 90 61 03 	lds	r9, 0x0361	; 0x800361 <q2+0x1>
    2d46:	a0 90 62 03 	lds	r10, 0x0362	; 0x800362 <q2+0x2>
    2d4a:	b0 90 63 03 	lds	r11, 0x0363	; 0x800363 <q2+0x3>
    2d4e:	40 90 60 03 	lds	r4, 0x0360	; 0x800360 <q2>
    2d52:	50 90 61 03 	lds	r5, 0x0361	; 0x800361 <q2+0x1>
    2d56:	60 90 62 03 	lds	r6, 0x0362	; 0x800362 <q2+0x2>
    2d5a:	70 90 63 03 	lds	r7, 0x0363	; 0x800363 <q2+0x3>
    2d5e:	e0 90 00 01 	lds	r14, 0x0100	; 0x800100 <__data_start>
    2d62:	f0 90 01 01 	lds	r15, 0x0101	; 0x800101 <__data_start+0x1>
    2d66:	00 91 02 01 	lds	r16, 0x0102	; 0x800102 <__data_start+0x2>
    2d6a:	10 91 03 01 	lds	r17, 0x0103	; 0x800103 <__data_start+0x3>
    2d6e:	e9 82       	std	Y+1, r14	; 0x01
    2d70:	fa 82       	std	Y+2, r15	; 0x02
    2d72:	0b 83       	std	Y+3, r16	; 0x03
    2d74:	1c 83       	std	Y+4, r17	; 0x04
    2d76:	e0 90 64 03 	lds	r14, 0x0364	; 0x800364 <q1>
    2d7a:	f0 90 65 03 	lds	r15, 0x0365	; 0x800365 <q1+0x1>
    2d7e:	00 91 66 03 	lds	r16, 0x0366	; 0x800366 <q1+0x2>
    2d82:	10 91 67 03 	lds	r17, 0x0367	; 0x800367 <q1+0x3>
    2d86:	ed 82       	std	Y+5, r14	; 0x05
    2d88:	fe 82       	std	Y+6, r15	; 0x06
    2d8a:	0f 83       	std	Y+7, r16	; 0x07
    2d8c:	18 87       	std	Y+8, r17	; 0x08
    2d8e:	e0 90 60 03 	lds	r14, 0x0360	; 0x800360 <q2>
    2d92:	f0 90 61 03 	lds	r15, 0x0361	; 0x800361 <q2+0x1>
    2d96:	00 91 62 03 	lds	r16, 0x0362	; 0x800362 <q2+0x2>
    2d9a:	10 91 63 03 	lds	r17, 0x0363	; 0x800363 <q2+0x3>
    2d9e:	e9 8a       	std	Y+17, r14	; 0x11
    2da0:	fa 8a       	std	Y+18, r15	; 0x12
    2da2:	0b 8b       	std	Y+19, r16	; 0x13
    2da4:	1c 8b       	std	Y+20, r17	; 0x14
    2da6:	e0 90 5c 03 	lds	r14, 0x035C	; 0x80035c <q3>
    2daa:	f0 90 5d 03 	lds	r15, 0x035D	; 0x80035d <q3+0x1>
    2dae:	00 91 5e 03 	lds	r16, 0x035E	; 0x80035e <q3+0x2>
    2db2:	10 91 5f 03 	lds	r17, 0x035F	; 0x80035f <q3+0x3>
    2db6:	e9 86       	std	Y+9, r14	; 0x09
    2db8:	fa 86       	std	Y+10, r15	; 0x0a
    2dba:	0b 87       	std	Y+11, r16	; 0x0b
    2dbc:	1c 87       	std	Y+12, r17	; 0x0c
    2dbe:	0e 94 b1 2a 	call	0x5562	; 0x5562 <__mulsf3>
    2dc2:	9b 01       	movw	r18, r22
    2dc4:	ac 01       	movw	r20, r24
    2dc6:	60 e0       	ldi	r22, 0x00	; 0
    2dc8:	70 e0       	ldi	r23, 0x00	; 0
    2dca:	80 e0       	ldi	r24, 0x00	; 0
    2dcc:	9f e3       	ldi	r25, 0x3F	; 63
    2dce:	0e 94 2b 28 	call	0x5056	; 0x5056 <__subsf3>
    2dd2:	6b 01       	movw	r12, r22
    2dd4:	7c 01       	movw	r14, r24
    2dd6:	a3 01       	movw	r20, r6
    2dd8:	92 01       	movw	r18, r4
    2dda:	c5 01       	movw	r24, r10
    2ddc:	b4 01       	movw	r22, r8
    2dde:	0e 94 b1 2a 	call	0x5562	; 0x5562 <__mulsf3>
    2de2:	9b 01       	movw	r18, r22
    2de4:	ac 01       	movw	r20, r24
    2de6:	c7 01       	movw	r24, r14
    2de8:	b6 01       	movw	r22, r12
    2dea:	0e 94 2b 28 	call	0x5056	; 0x5056 <__subsf3>
    2dee:	2b 01       	movw	r4, r22
    2df0:	3c 01       	movw	r6, r24
    2df2:	2d 81       	ldd	r18, Y+5	; 0x05
    2df4:	3e 81       	ldd	r19, Y+6	; 0x06
    2df6:	4f 81       	ldd	r20, Y+7	; 0x07
    2df8:	58 85       	ldd	r21, Y+8	; 0x08
    2dfa:	69 81       	ldd	r22, Y+1	; 0x01
    2dfc:	7a 81       	ldd	r23, Y+2	; 0x02
    2dfe:	8b 81       	ldd	r24, Y+3	; 0x03
    2e00:	9c 81       	ldd	r25, Y+4	; 0x04
    2e02:	0e 94 b1 2a 	call	0x5562	; 0x5562 <__mulsf3>
    2e06:	4b 01       	movw	r8, r22
    2e08:	5c 01       	movw	r10, r24
    2e0a:	29 85       	ldd	r18, Y+9	; 0x09
    2e0c:	3a 85       	ldd	r19, Y+10	; 0x0a
    2e0e:	4b 85       	ldd	r20, Y+11	; 0x0b
    2e10:	5c 85       	ldd	r21, Y+12	; 0x0c
    2e12:	69 89       	ldd	r22, Y+17	; 0x11
    2e14:	7a 89       	ldd	r23, Y+18	; 0x12
    2e16:	8b 89       	ldd	r24, Y+19	; 0x13
    2e18:	9c 89       	ldd	r25, Y+20	; 0x14
    2e1a:	0e 94 b1 2a 	call	0x5562	; 0x5562 <__mulsf3>
    2e1e:	9b 01       	movw	r18, r22
    2e20:	ac 01       	movw	r20, r24
    2e22:	c5 01       	movw	r24, r10
    2e24:	b4 01       	movw	r22, r8
    2e26:	0e 94 2c 28 	call	0x5058	; 0x5058 <__addsf3>
    2e2a:	a3 01       	movw	r20, r6
    2e2c:	92 01       	movw	r18, r4
    2e2e:	0e 94 c6 28 	call	0x518c	; 0x518c <atan2>
    2e32:	21 ee       	ldi	r18, 0xE1	; 225
    2e34:	3e e2       	ldi	r19, 0x2E	; 46
    2e36:	45 e6       	ldi	r20, 0x65	; 101
    2e38:	52 e4       	ldi	r21, 0x42	; 66
    2e3a:	0e 94 b1 2a 	call	0x5562	; 0x5562 <__mulsf3>
    2e3e:	60 93 58 03 	sts	0x0358, r22	; 0x800358 <roll>
    2e42:	70 93 59 03 	sts	0x0359, r23	; 0x800359 <roll+0x1>
    2e46:	80 93 5a 03 	sts	0x035A, r24	; 0x80035a <roll+0x2>
    2e4a:	90 93 5b 03 	sts	0x035B, r25	; 0x80035b <roll+0x3>
	pitch = asin(-2.0f * (q1*q3 - q0*q2)) * 57.29578f;
    2e4e:	60 91 64 03 	lds	r22, 0x0364	; 0x800364 <q1>
    2e52:	70 91 65 03 	lds	r23, 0x0365	; 0x800365 <q1+0x1>
    2e56:	80 91 66 03 	lds	r24, 0x0366	; 0x800366 <q1+0x2>
    2e5a:	90 91 67 03 	lds	r25, 0x0367	; 0x800367 <q1+0x3>
    2e5e:	20 91 5c 03 	lds	r18, 0x035C	; 0x80035c <q3>
    2e62:	30 91 5d 03 	lds	r19, 0x035D	; 0x80035d <q3+0x1>
    2e66:	40 91 5e 03 	lds	r20, 0x035E	; 0x80035e <q3+0x2>
    2e6a:	50 91 5f 03 	lds	r21, 0x035F	; 0x80035f <q3+0x3>
    2e6e:	80 90 00 01 	lds	r8, 0x0100	; 0x800100 <__data_start>
    2e72:	90 90 01 01 	lds	r9, 0x0101	; 0x800101 <__data_start+0x1>
    2e76:	a0 90 02 01 	lds	r10, 0x0102	; 0x800102 <__data_start+0x2>
    2e7a:	b0 90 03 01 	lds	r11, 0x0103	; 0x800103 <__data_start+0x3>
    2e7e:	40 90 60 03 	lds	r4, 0x0360	; 0x800360 <q2>
    2e82:	50 90 61 03 	lds	r5, 0x0361	; 0x800361 <q2+0x1>
    2e86:	60 90 62 03 	lds	r6, 0x0362	; 0x800362 <q2+0x2>
    2e8a:	70 90 63 03 	lds	r7, 0x0363	; 0x800363 <q2+0x3>
    2e8e:	0e 94 b1 2a 	call	0x5562	; 0x5562 <__mulsf3>
    2e92:	6b 01       	movw	r12, r22
    2e94:	7c 01       	movw	r14, r24
    2e96:	a3 01       	movw	r20, r6
    2e98:	92 01       	movw	r18, r4
    2e9a:	c5 01       	movw	r24, r10
    2e9c:	b4 01       	movw	r22, r8
    2e9e:	0e 94 b1 2a 	call	0x5562	; 0x5562 <__mulsf3>
    2ea2:	9b 01       	movw	r18, r22
    2ea4:	ac 01       	movw	r20, r24
    2ea6:	c7 01       	movw	r24, r14
    2ea8:	b6 01       	movw	r22, r12
    2eaa:	0e 94 2b 28 	call	0x5056	; 0x5056 <__subsf3>
    2eae:	20 e0       	ldi	r18, 0x00	; 0
    2eb0:	30 e0       	ldi	r19, 0x00	; 0
    2eb2:	40 e0       	ldi	r20, 0x00	; 0
    2eb4:	50 ec       	ldi	r21, 0xC0	; 192
    2eb6:	0e 94 b1 2a 	call	0x5562	; 0x5562 <__mulsf3>
    2eba:	0e 94 98 28 	call	0x5130	; 0x5130 <asin>
    2ebe:	21 ee       	ldi	r18, 0xE1	; 225
    2ec0:	3e e2       	ldi	r19, 0x2E	; 46
    2ec2:	45 e6       	ldi	r20, 0x65	; 101
    2ec4:	52 e4       	ldi	r21, 0x42	; 66
    2ec6:	0e 94 b1 2a 	call	0x5562	; 0x5562 <__mulsf3>
    2eca:	60 93 54 03 	sts	0x0354, r22	; 0x800354 <pitch>
    2ece:	70 93 55 03 	sts	0x0355, r23	; 0x800355 <pitch+0x1>
    2ed2:	80 93 56 03 	sts	0x0356, r24	; 0x800356 <pitch+0x2>
    2ed6:	90 93 57 03 	sts	0x0357, r25	; 0x800357 <pitch+0x3>
	yaw = atan2(q1*q2 + q0*q3, 0.5f - q2*q2 - q3*q3) * 57.29578f + 180.0f;
    2eda:	60 91 60 03 	lds	r22, 0x0360	; 0x800360 <q2>
    2ede:	70 91 61 03 	lds	r23, 0x0361	; 0x800361 <q2+0x1>
    2ee2:	80 91 62 03 	lds	r24, 0x0362	; 0x800362 <q2+0x2>
    2ee6:	90 91 63 03 	lds	r25, 0x0363	; 0x800363 <q2+0x3>
    2eea:	20 91 60 03 	lds	r18, 0x0360	; 0x800360 <q2>
    2eee:	30 91 61 03 	lds	r19, 0x0361	; 0x800361 <q2+0x1>
    2ef2:	40 91 62 03 	lds	r20, 0x0362	; 0x800362 <q2+0x2>
    2ef6:	50 91 63 03 	lds	r21, 0x0363	; 0x800363 <q2+0x3>
    2efa:	80 90 5c 03 	lds	r8, 0x035C	; 0x80035c <q3>
    2efe:	90 90 5d 03 	lds	r9, 0x035D	; 0x80035d <q3+0x1>
    2f02:	a0 90 5e 03 	lds	r10, 0x035E	; 0x80035e <q3+0x2>
    2f06:	b0 90 5f 03 	lds	r11, 0x035F	; 0x80035f <q3+0x3>
    2f0a:	40 90 5c 03 	lds	r4, 0x035C	; 0x80035c <q3>
    2f0e:	50 90 5d 03 	lds	r5, 0x035D	; 0x80035d <q3+0x1>
    2f12:	60 90 5e 03 	lds	r6, 0x035E	; 0x80035e <q3+0x2>
    2f16:	70 90 5f 03 	lds	r7, 0x035F	; 0x80035f <q3+0x3>
    2f1a:	e0 90 64 03 	lds	r14, 0x0364	; 0x800364 <q1>
    2f1e:	f0 90 65 03 	lds	r15, 0x0365	; 0x800365 <q1+0x1>
    2f22:	00 91 66 03 	lds	r16, 0x0366	; 0x800366 <q1+0x2>
    2f26:	10 91 67 03 	lds	r17, 0x0367	; 0x800367 <q1+0x3>
    2f2a:	e9 82       	std	Y+1, r14	; 0x01
    2f2c:	fa 82       	std	Y+2, r15	; 0x02
    2f2e:	0b 83       	std	Y+3, r16	; 0x03
    2f30:	1c 83       	std	Y+4, r17	; 0x04
    2f32:	e0 90 60 03 	lds	r14, 0x0360	; 0x800360 <q2>
    2f36:	f0 90 61 03 	lds	r15, 0x0361	; 0x800361 <q2+0x1>
    2f3a:	00 91 62 03 	lds	r16, 0x0362	; 0x800362 <q2+0x2>
    2f3e:	10 91 63 03 	lds	r17, 0x0363	; 0x800363 <q2+0x3>
    2f42:	ed 82       	std	Y+5, r14	; 0x05
    2f44:	fe 82       	std	Y+6, r15	; 0x06
    2f46:	0f 83       	std	Y+7, r16	; 0x07
    2f48:	18 87       	std	Y+8, r17	; 0x08
    2f4a:	e0 90 00 01 	lds	r14, 0x0100	; 0x800100 <__data_start>
    2f4e:	f0 90 01 01 	lds	r15, 0x0101	; 0x800101 <__data_start+0x1>
    2f52:	00 91 02 01 	lds	r16, 0x0102	; 0x800102 <__data_start+0x2>
    2f56:	10 91 03 01 	lds	r17, 0x0103	; 0x800103 <__data_start+0x3>
    2f5a:	e9 8a       	std	Y+17, r14	; 0x11
    2f5c:	fa 8a       	std	Y+18, r15	; 0x12
    2f5e:	0b 8b       	std	Y+19, r16	; 0x13
    2f60:	1c 8b       	std	Y+20, r17	; 0x14
    2f62:	e0 90 5c 03 	lds	r14, 0x035C	; 0x80035c <q3>
    2f66:	f0 90 5d 03 	lds	r15, 0x035D	; 0x80035d <q3+0x1>
    2f6a:	00 91 5e 03 	lds	r16, 0x035E	; 0x80035e <q3+0x2>
    2f6e:	10 91 5f 03 	lds	r17, 0x035F	; 0x80035f <q3+0x3>
    2f72:	e9 86       	std	Y+9, r14	; 0x09
    2f74:	fa 86       	std	Y+10, r15	; 0x0a
    2f76:	0b 87       	std	Y+11, r16	; 0x0b
    2f78:	1c 87       	std	Y+12, r17	; 0x0c
    2f7a:	0e 94 b1 2a 	call	0x5562	; 0x5562 <__mulsf3>
    2f7e:	9b 01       	movw	r18, r22
    2f80:	ac 01       	movw	r20, r24
    2f82:	60 e0       	ldi	r22, 0x00	; 0
    2f84:	70 e0       	ldi	r23, 0x00	; 0
    2f86:	80 e0       	ldi	r24, 0x00	; 0
    2f88:	9f e3       	ldi	r25, 0x3F	; 63
    2f8a:	0e 94 2b 28 	call	0x5056	; 0x5056 <__subsf3>
    2f8e:	6b 01       	movw	r12, r22
    2f90:	7c 01       	movw	r14, r24
    2f92:	a3 01       	movw	r20, r6
    2f94:	92 01       	movw	r18, r4
    2f96:	c5 01       	movw	r24, r10
    2f98:	b4 01       	movw	r22, r8
    2f9a:	0e 94 b1 2a 	call	0x5562	; 0x5562 <__mulsf3>
    2f9e:	9b 01       	movw	r18, r22
    2fa0:	ac 01       	movw	r20, r24
    2fa2:	c7 01       	movw	r24, r14
    2fa4:	b6 01       	movw	r22, r12
    2fa6:	0e 94 2b 28 	call	0x5056	; 0x5056 <__subsf3>
    2faa:	2b 01       	movw	r4, r22
    2fac:	3c 01       	movw	r6, r24
    2fae:	2d 81       	ldd	r18, Y+5	; 0x05
    2fb0:	3e 81       	ldd	r19, Y+6	; 0x06
    2fb2:	4f 81       	ldd	r20, Y+7	; 0x07
    2fb4:	58 85       	ldd	r21, Y+8	; 0x08
    2fb6:	69 81       	ldd	r22, Y+1	; 0x01
    2fb8:	7a 81       	ldd	r23, Y+2	; 0x02
    2fba:	8b 81       	ldd	r24, Y+3	; 0x03
    2fbc:	9c 81       	ldd	r25, Y+4	; 0x04
    2fbe:	0e 94 b1 2a 	call	0x5562	; 0x5562 <__mulsf3>
    2fc2:	4b 01       	movw	r8, r22
    2fc4:	5c 01       	movw	r10, r24
    2fc6:	29 85       	ldd	r18, Y+9	; 0x09
    2fc8:	3a 85       	ldd	r19, Y+10	; 0x0a
    2fca:	4b 85       	ldd	r20, Y+11	; 0x0b
    2fcc:	5c 85       	ldd	r21, Y+12	; 0x0c
    2fce:	69 89       	ldd	r22, Y+17	; 0x11
    2fd0:	7a 89       	ldd	r23, Y+18	; 0x12
    2fd2:	8b 89       	ldd	r24, Y+19	; 0x13
    2fd4:	9c 89       	ldd	r25, Y+20	; 0x14
    2fd6:	0e 94 b1 2a 	call	0x5562	; 0x5562 <__mulsf3>
    2fda:	9b 01       	movw	r18, r22
    2fdc:	ac 01       	movw	r20, r24
    2fde:	c5 01       	movw	r24, r10
    2fe0:	b4 01       	movw	r22, r8
    2fe2:	0e 94 2c 28 	call	0x5058	; 0x5058 <__addsf3>
    2fe6:	a3 01       	movw	r20, r6
    2fe8:	92 01       	movw	r18, r4
    2fea:	0e 94 c6 28 	call	0x518c	; 0x518c <atan2>
    2fee:	21 ee       	ldi	r18, 0xE1	; 225
    2ff0:	3e e2       	ldi	r19, 0x2E	; 46
    2ff2:	45 e6       	ldi	r20, 0x65	; 101
    2ff4:	52 e4       	ldi	r21, 0x42	; 66
    2ff6:	0e 94 b1 2a 	call	0x5562	; 0x5562 <__mulsf3>
    2ffa:	20 e0       	ldi	r18, 0x00	; 0
    2ffc:	30 e0       	ldi	r19, 0x00	; 0
    2ffe:	44 e3       	ldi	r20, 0x34	; 52
    3000:	53 e4       	ldi	r21, 0x43	; 67
    3002:	0e 94 2c 28 	call	0x5058	; 0x5058 <__addsf3>
    3006:	60 93 50 03 	sts	0x0350, r22	; 0x800350 <yaw>
    300a:	70 93 51 03 	sts	0x0351, r23	; 0x800351 <yaw+0x1>
    300e:	80 93 52 03 	sts	0x0352, r24	; 0x800352 <yaw+0x2>
    3012:	90 93 53 03 	sts	0x0353, r25	; 0x800353 <yaw+0x3>
}
    3016:	64 96       	adiw	r28, 0x14	; 20
    3018:	0f b6       	in	r0, 0x3f	; 63
    301a:	f8 94       	cli
    301c:	de bf       	out	0x3e, r29	; 62
    301e:	0f be       	out	0x3f, r0	; 63
    3020:	cd bf       	out	0x3d, r28	; 61
    3022:	df 91       	pop	r29
    3024:	cf 91       	pop	r28
    3026:	1f 91       	pop	r17
    3028:	0f 91       	pop	r16
    302a:	ff 90       	pop	r15
    302c:	ef 90       	pop	r14
    302e:	df 90       	pop	r13
    3030:	cf 90       	pop	r12
    3032:	bf 90       	pop	r11
    3034:	af 90       	pop	r10
    3036:	9f 90       	pop	r9
    3038:	8f 90       	pop	r8
    303a:	7f 90       	pop	r7
    303c:	6f 90       	pop	r6
    303e:	5f 90       	pop	r5
    3040:	4f 90       	pop	r4
    3042:	08 95       	ret

00003044 <MPU_9250_initialise>:
uint8_t apply_soft_iron_correction(float* magneto_data){
	magneto_data[0] = magneto_data[0] * soft_iron_correction[0];
	magneto_data[1] = magneto_data[1] * soft_iron_correction[1];
	magneto_data[2] = magneto_data[2] * soft_iron_correction[2];
	return 0;
}
    3044:	ef 92       	push	r14
    3046:	ff 92       	push	r15
    3048:	0f 93       	push	r16
    304a:	1f 93       	push	r17
    304c:	cf 93       	push	r28
    304e:	df 93       	push	r29
    3050:	00 d0       	rcall	.+0      	; 0x3052 <MPU_9250_initialise+0xe>
    3052:	1f 92       	push	r1
    3054:	cd b7       	in	r28, 0x3d	; 61
    3056:	de b7       	in	r29, 0x3e	; 62
    3058:	0f 2e       	mov	r0, r31
    305a:	f0 ed       	ldi	r31, 0xD0	; 208
    305c:	ff 2e       	mov	r15, r31
    305e:	f0 2d       	mov	r31, r0
    3060:	f9 82       	std	Y+1, r15	; 0x01
    3062:	0f 2e       	mov	r0, r31
    3064:	fb e6       	ldi	r31, 0x6B	; 107
    3066:	ef 2e       	mov	r14, r31
    3068:	f0 2d       	mov	r31, r0
    306a:	ea 82       	std	Y+2, r14	; 0x02
    306c:	80 e8       	ldi	r24, 0x80	; 128
    306e:	8b 83       	std	Y+3, r24	; 0x03
    3070:	63 e0       	ldi	r22, 0x03	; 3
    3072:	8e 01       	movw	r16, r28
    3074:	0f 5f       	subi	r16, 0xFF	; 255
    3076:	1f 4f       	sbci	r17, 0xFF	; 255
    3078:	c8 01       	movw	r24, r16
    307a:	0e 94 0e 26 	call	0x4c1c	; 0x4c1c <TWI_Start_Transceiver_With_Data>
    307e:	ea 82       	std	Y+2, r14	; 0x02
    3080:	81 e0       	ldi	r24, 0x01	; 1
    3082:	8b 83       	std	Y+3, r24	; 0x03
    3084:	63 e0       	ldi	r22, 0x03	; 3
    3086:	c8 01       	movw	r24, r16
    3088:	0e 94 0e 26 	call	0x4c1c	; 0x4c1c <TWI_Start_Transceiver_With_Data>
    308c:	83 e0       	ldi	r24, 0x03	; 3
    308e:	f8 01       	movw	r30, r16
    3090:	11 92       	st	Z+, r1
    3092:	8a 95       	dec	r24
    3094:	e9 f7       	brne	.-6      	; 0x3090 <MPU_9250_initialise+0x4c>
    3096:	f9 82       	std	Y+1, r15	; 0x01
    3098:	87 e3       	ldi	r24, 0x37	; 55
    309a:	8a 83       	std	Y+2, r24	; 0x02
    309c:	82 e0       	ldi	r24, 0x02	; 2
    309e:	8b 83       	std	Y+3, r24	; 0x03
    30a0:	63 e0       	ldi	r22, 0x03	; 3
    30a2:	c8 01       	movw	r24, r16
    30a4:	0e 94 0e 26 	call	0x4c1c	; 0x4c1c <TWI_Start_Transceiver_With_Data>
    30a8:	0f 90       	pop	r0
    30aa:	0f 90       	pop	r0
    30ac:	0f 90       	pop	r0
    30ae:	df 91       	pop	r29
    30b0:	cf 91       	pop	r28
    30b2:	1f 91       	pop	r17
    30b4:	0f 91       	pop	r16
    30b6:	ff 90       	pop	r15
    30b8:	ef 90       	pop	r14
    30ba:	08 95       	ret

000030bc <apply_accelerometer_offset>:
    30bc:	fc 01       	movw	r30, r24
    30be:	ae ea       	ldi	r26, 0xAE	; 174
    30c0:	b3 e0       	ldi	r27, 0x03	; 3
    30c2:	80 81       	ld	r24, Z
    30c4:	91 81       	ldd	r25, Z+1	; 0x01
    30c6:	2d 91       	ld	r18, X+
    30c8:	3c 91       	ld	r19, X
    30ca:	11 97       	sbiw	r26, 0x01	; 1
    30cc:	82 1b       	sub	r24, r18
    30ce:	93 0b       	sbc	r25, r19
    30d0:	91 83       	std	Z+1, r25	; 0x01
    30d2:	80 83       	st	Z, r24
    30d4:	82 81       	ldd	r24, Z+2	; 0x02
    30d6:	93 81       	ldd	r25, Z+3	; 0x03
    30d8:	12 96       	adiw	r26, 0x02	; 2
    30da:	2d 91       	ld	r18, X+
    30dc:	3c 91       	ld	r19, X
    30de:	13 97       	sbiw	r26, 0x03	; 3
    30e0:	82 1b       	sub	r24, r18
    30e2:	93 0b       	sbc	r25, r19
    30e4:	93 83       	std	Z+3, r25	; 0x03
    30e6:	82 83       	std	Z+2, r24	; 0x02
    30e8:	84 81       	ldd	r24, Z+4	; 0x04
    30ea:	95 81       	ldd	r25, Z+5	; 0x05
    30ec:	14 96       	adiw	r26, 0x04	; 4
    30ee:	2d 91       	ld	r18, X+
    30f0:	3c 91       	ld	r19, X
    30f2:	15 97       	sbiw	r26, 0x05	; 5
    30f4:	82 1b       	sub	r24, r18
    30f6:	93 0b       	sbc	r25, r19
    30f8:	95 83       	std	Z+5, r25	; 0x05
    30fa:	84 83       	std	Z+4, r24	; 0x04
    30fc:	08 95       	ret

000030fe <read_accelerometer_data>:
    30fe:	0f 93       	push	r16
    3100:	1f 93       	push	r17
    3102:	cf 93       	push	r28
    3104:	df 93       	push	r29
    3106:	cd b7       	in	r28, 0x3d	; 61
    3108:	de b7       	in	r29, 0x3e	; 62
    310a:	2a 97       	sbiw	r28, 0x0a	; 10
    310c:	0f b6       	in	r0, 0x3f	; 63
    310e:	f8 94       	cli
    3110:	de bf       	out	0x3e, r29	; 62
    3112:	0f be       	out	0x3f, r0	; 63
    3114:	cd bf       	out	0x3d, r28	; 61
    3116:	8c 01       	movw	r16, r24
    3118:	80 ed       	ldi	r24, 0xD0	; 208
    311a:	89 83       	std	Y+1, r24	; 0x01
    311c:	8b e3       	ldi	r24, 0x3B	; 59
    311e:	8a 83       	std	Y+2, r24	; 0x02
    3120:	81 ed       	ldi	r24, 0xD1	; 209
    3122:	8c 83       	std	Y+4, r24	; 0x04
    3124:	62 e0       	ldi	r22, 0x02	; 2
    3126:	ce 01       	movw	r24, r28
    3128:	01 96       	adiw	r24, 0x01	; 1
    312a:	0e 94 0e 26 	call	0x4c1c	; 0x4c1c <TWI_Start_Transceiver_With_Data>
    312e:	67 e0       	ldi	r22, 0x07	; 7
    3130:	ce 01       	movw	r24, r28
    3132:	04 96       	adiw	r24, 0x04	; 4
    3134:	0e 94 0e 26 	call	0x4c1c	; 0x4c1c <TWI_Start_Transceiver_With_Data>
    3138:	67 e0       	ldi	r22, 0x07	; 7
    313a:	ce 01       	movw	r24, r28
    313c:	04 96       	adiw	r24, 0x04	; 4
    313e:	0e 94 3b 26 	call	0x4c76	; 0x4c76 <TWI_Get_Data_From_Transceiver>
    3142:	8d 81       	ldd	r24, Y+5	; 0x05
    3144:	90 e0       	ldi	r25, 0x00	; 0
    3146:	98 2f       	mov	r25, r24
    3148:	88 27       	eor	r24, r24
    314a:	2e 81       	ldd	r18, Y+6	; 0x06
    314c:	82 2b       	or	r24, r18
    314e:	f8 01       	movw	r30, r16
    3150:	91 83       	std	Z+1, r25	; 0x01
    3152:	80 83       	st	Z, r24
    3154:	8f 81       	ldd	r24, Y+7	; 0x07
    3156:	90 e0       	ldi	r25, 0x00	; 0
    3158:	98 2f       	mov	r25, r24
    315a:	88 27       	eor	r24, r24
    315c:	28 85       	ldd	r18, Y+8	; 0x08
    315e:	82 2b       	or	r24, r18
    3160:	93 83       	std	Z+3, r25	; 0x03
    3162:	82 83       	std	Z+2, r24	; 0x02
    3164:	89 85       	ldd	r24, Y+9	; 0x09
    3166:	90 e0       	ldi	r25, 0x00	; 0
    3168:	98 2f       	mov	r25, r24
    316a:	88 27       	eor	r24, r24
    316c:	2a 85       	ldd	r18, Y+10	; 0x0a
    316e:	82 2b       	or	r24, r18
    3170:	95 83       	std	Z+5, r25	; 0x05
    3172:	84 83       	std	Z+4, r24	; 0x04
    3174:	80 e0       	ldi	r24, 0x00	; 0
    3176:	2a 96       	adiw	r28, 0x0a	; 10
    3178:	0f b6       	in	r0, 0x3f	; 63
    317a:	f8 94       	cli
    317c:	de bf       	out	0x3e, r29	; 62
    317e:	0f be       	out	0x3f, r0	; 63
    3180:	cd bf       	out	0x3d, r28	; 61
    3182:	df 91       	pop	r29
    3184:	cf 91       	pop	r28
    3186:	1f 91       	pop	r17
    3188:	0f 91       	pop	r16
    318a:	08 95       	ret

0000318c <calibrate_accelerometer>:
    318c:	3f 92       	push	r3
    318e:	4f 92       	push	r4
    3190:	5f 92       	push	r5
    3192:	6f 92       	push	r6
    3194:	7f 92       	push	r7
    3196:	8f 92       	push	r8
    3198:	9f 92       	push	r9
    319a:	af 92       	push	r10
    319c:	bf 92       	push	r11
    319e:	cf 92       	push	r12
    31a0:	df 92       	push	r13
    31a2:	ef 92       	push	r14
    31a4:	ff 92       	push	r15
    31a6:	0f 93       	push	r16
    31a8:	1f 93       	push	r17
    31aa:	cf 93       	push	r28
    31ac:	df 93       	push	r29
    31ae:	cd b7       	in	r28, 0x3d	; 61
    31b0:	de b7       	in	r29, 0x3e	; 62
    31b2:	29 97       	sbiw	r28, 0x09	; 9
    31b4:	0f b6       	in	r0, 0x3f	; 63
    31b6:	f8 94       	cli
    31b8:	de bf       	out	0x3e, r29	; 62
    31ba:	0f be       	out	0x3f, r0	; 63
    31bc:	cd bf       	out	0x3d, r28	; 61
    31be:	80 ed       	ldi	r24, 0xD0	; 208
    31c0:	89 83       	std	Y+1, r24	; 0x01
    31c2:	8c e1       	ldi	r24, 0x1C	; 28
    31c4:	8a 83       	std	Y+2, r24	; 0x02
    31c6:	88 e0       	ldi	r24, 0x08	; 8
    31c8:	8b 83       	std	Y+3, r24	; 0x03
    31ca:	63 e0       	ldi	r22, 0x03	; 3
    31cc:	ce 01       	movw	r24, r28
    31ce:	01 96       	adiw	r24, 0x01	; 1
    31d0:	0e 94 0e 26 	call	0x4c1c	; 0x4c1c <TWI_Start_Transceiver_With_Data>
    31d4:	1d 82       	std	Y+5, r1	; 0x05
    31d6:	1c 82       	std	Y+4, r1	; 0x04
    31d8:	1f 82       	std	Y+7, r1	; 0x07
    31da:	1e 82       	std	Y+6, r1	; 0x06
    31dc:	19 86       	std	Y+9, r1	; 0x09
    31de:	18 86       	std	Y+8, r1	; 0x08
    31e0:	00 e0       	ldi	r16, 0x00	; 0
    31e2:	18 e0       	ldi	r17, 0x08	; 8
    31e4:	41 2c       	mov	r4, r1
    31e6:	51 2c       	mov	r5, r1
    31e8:	32 01       	movw	r6, r4
    31ea:	81 2c       	mov	r8, r1
    31ec:	91 2c       	mov	r9, r1
    31ee:	54 01       	movw	r10, r8
    31f0:	c1 2c       	mov	r12, r1
    31f2:	d1 2c       	mov	r13, r1
    31f4:	76 01       	movw	r14, r12
    31f6:	ce 01       	movw	r24, r28
    31f8:	04 96       	adiw	r24, 0x04	; 4
    31fa:	0e 94 7f 18 	call	0x30fe	; 0x30fe <read_accelerometer_data>
    31fe:	8c 81       	ldd	r24, Y+4	; 0x04
    3200:	9d 81       	ldd	r25, Y+5	; 0x05
    3202:	09 2e       	mov	r0, r25
    3204:	00 0c       	add	r0, r0
    3206:	aa 0b       	sbc	r26, r26
    3208:	bb 0b       	sbc	r27, r27
    320a:	48 0e       	add	r4, r24
    320c:	59 1e       	adc	r5, r25
    320e:	6a 1e       	adc	r6, r26
    3210:	7b 1e       	adc	r7, r27
    3212:	8e 81       	ldd	r24, Y+6	; 0x06
    3214:	9f 81       	ldd	r25, Y+7	; 0x07
    3216:	09 2e       	mov	r0, r25
    3218:	00 0c       	add	r0, r0
    321a:	aa 0b       	sbc	r26, r26
    321c:	bb 0b       	sbc	r27, r27
    321e:	88 0e       	add	r8, r24
    3220:	99 1e       	adc	r9, r25
    3222:	aa 1e       	adc	r10, r26
    3224:	bb 1e       	adc	r11, r27
    3226:	88 85       	ldd	r24, Y+8	; 0x08
    3228:	99 85       	ldd	r25, Y+9	; 0x09
    322a:	09 2e       	mov	r0, r25
    322c:	00 0c       	add	r0, r0
    322e:	aa 0b       	sbc	r26, r26
    3230:	bb 0b       	sbc	r27, r27
    3232:	c8 0e       	add	r12, r24
    3234:	d9 1e       	adc	r13, r25
    3236:	ea 1e       	adc	r14, r26
    3238:	fb 1e       	adc	r15, r27
    323a:	87 e9       	ldi	r24, 0x97	; 151
    323c:	98 e0       	ldi	r25, 0x08	; 8
    323e:	01 97       	sbiw	r24, 0x01	; 1
    3240:	f1 f7       	brne	.-4      	; 0x323e <calibrate_accelerometer+0xb2>
    3242:	00 c0       	rjmp	.+0      	; 0x3244 <calibrate_accelerometer+0xb8>
    3244:	00 00       	nop
    3246:	01 50       	subi	r16, 0x01	; 1
    3248:	11 09       	sbc	r17, r1
    324a:	a9 f6       	brne	.-86     	; 0x31f6 <calibrate_accelerometer+0x6a>
    324c:	7f 92       	push	r7
    324e:	6f 92       	push	r6
    3250:	5f 92       	push	r5
    3252:	4f 92       	push	r4
    3254:	85 e1       	ldi	r24, 0x15	; 21
    3256:	91 e0       	ldi	r25, 0x01	; 1
    3258:	9f 93       	push	r25
    325a:	8f 93       	push	r24
    325c:	0c e7       	ldi	r16, 0x7C	; 124
    325e:	13 e0       	ldi	r17, 0x03	; 3
    3260:	1f 93       	push	r17
    3262:	0f 93       	push	r16
    3264:	0e 94 be 2b 	call	0x577c	; 0x577c <sprintf>
    3268:	f8 01       	movw	r30, r16
    326a:	01 90       	ld	r0, Z+
    326c:	00 20       	and	r0, r0
    326e:	e9 f7       	brne	.-6      	; 0x326a <calibrate_accelerometer+0xde>
    3270:	31 97       	sbiw	r30, 0x01	; 1
    3272:	af 01       	movw	r20, r30
    3274:	4c 57       	subi	r20, 0x7C	; 124
    3276:	53 40       	sbci	r21, 0x03	; 3
    3278:	60 e0       	ldi	r22, 0x00	; 0
    327a:	70 e0       	ldi	r23, 0x00	; 0
    327c:	c8 01       	movw	r24, r16
    327e:	0e 94 f1 26 	call	0x4de2	; 0x4de2 <UART_tx>
    3282:	0f 2e       	mov	r0, r31
    3284:	f2 e3       	ldi	r31, 0x32	; 50
    3286:	3f 2e       	mov	r3, r31
    3288:	f0 2d       	mov	r31, r0
    328a:	f8 01       	movw	r30, r16
    328c:	23 2d       	mov	r18, r3
    328e:	11 92       	st	Z+, r1
    3290:	2a 95       	dec	r18
    3292:	e9 f7       	brne	.-6      	; 0x328e <calibrate_accelerometer+0x102>
    3294:	bf 92       	push	r11
    3296:	af 92       	push	r10
    3298:	9f 92       	push	r9
    329a:	8f 92       	push	r8
    329c:	83 e2       	ldi	r24, 0x23	; 35
    329e:	91 e0       	ldi	r25, 0x01	; 1
    32a0:	9f 93       	push	r25
    32a2:	8f 93       	push	r24
    32a4:	1f 93       	push	r17
    32a6:	0f 93       	push	r16
    32a8:	0e 94 be 2b 	call	0x577c	; 0x577c <sprintf>
    32ac:	f8 01       	movw	r30, r16
    32ae:	01 90       	ld	r0, Z+
    32b0:	00 20       	and	r0, r0
    32b2:	e9 f7       	brne	.-6      	; 0x32ae <calibrate_accelerometer+0x122>
    32b4:	31 97       	sbiw	r30, 0x01	; 1
    32b6:	af 01       	movw	r20, r30
    32b8:	4c 57       	subi	r20, 0x7C	; 124
    32ba:	53 40       	sbci	r21, 0x03	; 3
    32bc:	60 e0       	ldi	r22, 0x00	; 0
    32be:	70 e0       	ldi	r23, 0x00	; 0
    32c0:	c8 01       	movw	r24, r16
    32c2:	0e 94 f1 26 	call	0x4de2	; 0x4de2 <UART_tx>
    32c6:	f8 01       	movw	r30, r16
    32c8:	23 2d       	mov	r18, r3
    32ca:	11 92       	st	Z+, r1
    32cc:	2a 95       	dec	r18
    32ce:	e9 f7       	brne	.-6      	; 0x32ca <calibrate_accelerometer+0x13e>
    32d0:	ff 92       	push	r15
    32d2:	ef 92       	push	r14
    32d4:	df 92       	push	r13
    32d6:	cf 92       	push	r12
    32d8:	81 e3       	ldi	r24, 0x31	; 49
    32da:	91 e0       	ldi	r25, 0x01	; 1
    32dc:	9f 93       	push	r25
    32de:	8f 93       	push	r24
    32e0:	1f 93       	push	r17
    32e2:	0f 93       	push	r16
    32e4:	0e 94 be 2b 	call	0x577c	; 0x577c <sprintf>
    32e8:	f8 01       	movw	r30, r16
    32ea:	01 90       	ld	r0, Z+
    32ec:	00 20       	and	r0, r0
    32ee:	e9 f7       	brne	.-6      	; 0x32ea <calibrate_accelerometer+0x15e>
    32f0:	31 97       	sbiw	r30, 0x01	; 1
    32f2:	af 01       	movw	r20, r30
    32f4:	4c 57       	subi	r20, 0x7C	; 124
    32f6:	53 40       	sbci	r21, 0x03	; 3
    32f8:	60 e0       	ldi	r22, 0x00	; 0
    32fa:	70 e0       	ldi	r23, 0x00	; 0
    32fc:	c8 01       	movw	r24, r16
    32fe:	0e 94 f1 26 	call	0x4de2	; 0x4de2 <UART_tx>
    3302:	f8 01       	movw	r30, r16
    3304:	11 92       	st	Z+, r1
    3306:	3a 94       	dec	r3
    3308:	e9 f7       	brne	.-6      	; 0x3304 <calibrate_accelerometer+0x178>
    330a:	d3 01       	movw	r26, r6
    330c:	c2 01       	movw	r24, r4
    330e:	0f b6       	in	r0, 0x3f	; 63
    3310:	f8 94       	cli
    3312:	de bf       	out	0x3e, r29	; 62
    3314:	0f be       	out	0x3f, r0	; 63
    3316:	cd bf       	out	0x3d, r28	; 61
    3318:	77 20       	and	r7, r7
    331a:	24 f4       	brge	.+8      	; 0x3324 <calibrate_accelerometer+0x198>
    331c:	81 50       	subi	r24, 0x01	; 1
    331e:	98 4f       	sbci	r25, 0xF8	; 248
    3320:	af 4f       	sbci	r26, 0xFF	; 255
    3322:	bf 4f       	sbci	r27, 0xFF	; 255
    3324:	2c 01       	movw	r4, r24
    3326:	3d 01       	movw	r6, r26
    3328:	03 2e       	mov	r0, r19
    332a:	3b e0       	ldi	r19, 0x0B	; 11
    332c:	75 94       	asr	r7
    332e:	67 94       	ror	r6
    3330:	57 94       	ror	r5
    3332:	47 94       	ror	r4
    3334:	3a 95       	dec	r19
    3336:	d1 f7       	brne	.-12     	; 0x332c <calibrate_accelerometer+0x1a0>
    3338:	30 2d       	mov	r19, r0
    333a:	d5 01       	movw	r26, r10
    333c:	c4 01       	movw	r24, r8
    333e:	bb 20       	and	r11, r11
    3340:	24 f4       	brge	.+8      	; 0x334a <calibrate_accelerometer+0x1be>
    3342:	81 50       	subi	r24, 0x01	; 1
    3344:	98 4f       	sbci	r25, 0xF8	; 248
    3346:	af 4f       	sbci	r26, 0xFF	; 255
    3348:	bf 4f       	sbci	r27, 0xFF	; 255
    334a:	4c 01       	movw	r8, r24
    334c:	5d 01       	movw	r10, r26
    334e:	07 2e       	mov	r0, r23
    3350:	7b e0       	ldi	r23, 0x0B	; 11
    3352:	b5 94       	asr	r11
    3354:	a7 94       	ror	r10
    3356:	97 94       	ror	r9
    3358:	87 94       	ror	r8
    335a:	7a 95       	dec	r23
    335c:	d1 f7       	brne	.-12     	; 0x3352 <calibrate_accelerometer+0x1c6>
    335e:	70 2d       	mov	r23, r0
    3360:	d7 01       	movw	r26, r14
    3362:	c6 01       	movw	r24, r12
    3364:	ff 20       	and	r15, r15
    3366:	24 f4       	brge	.+8      	; 0x3370 <calibrate_accelerometer+0x1e4>
    3368:	81 50       	subi	r24, 0x01	; 1
    336a:	98 4f       	sbci	r25, 0xF8	; 248
    336c:	af 4f       	sbci	r26, 0xFF	; 255
    336e:	bf 4f       	sbci	r27, 0xFF	; 255
    3370:	6c 01       	movw	r12, r24
    3372:	7d 01       	movw	r14, r26
    3374:	0b 2e       	mov	r0, r27
    3376:	bb e0       	ldi	r27, 0x0B	; 11
    3378:	f5 94       	asr	r15
    337a:	e7 94       	ror	r14
    337c:	d7 94       	ror	r13
    337e:	c7 94       	ror	r12
    3380:	ba 95       	dec	r27
    3382:	d1 f7       	brne	.-12     	; 0x3378 <calibrate_accelerometer+0x1ec>
    3384:	b0 2d       	mov	r27, r0
    3386:	7f 92       	push	r7
    3388:	6f 92       	push	r6
    338a:	5f 92       	push	r5
    338c:	4f 92       	push	r4
    338e:	8f e3       	ldi	r24, 0x3F	; 63
    3390:	91 e0       	ldi	r25, 0x01	; 1
    3392:	9f 93       	push	r25
    3394:	8f 93       	push	r24
    3396:	0c e7       	ldi	r16, 0x7C	; 124
    3398:	13 e0       	ldi	r17, 0x03	; 3
    339a:	1f 93       	push	r17
    339c:	0f 93       	push	r16
    339e:	0e 94 be 2b 	call	0x577c	; 0x577c <sprintf>
    33a2:	f8 01       	movw	r30, r16
    33a4:	01 90       	ld	r0, Z+
    33a6:	00 20       	and	r0, r0
    33a8:	e9 f7       	brne	.-6      	; 0x33a4 <calibrate_accelerometer+0x218>
    33aa:	31 97       	sbiw	r30, 0x01	; 1
    33ac:	af 01       	movw	r20, r30
    33ae:	4c 57       	subi	r20, 0x7C	; 124
    33b0:	53 40       	sbci	r21, 0x03	; 3
    33b2:	60 e0       	ldi	r22, 0x00	; 0
    33b4:	70 e0       	ldi	r23, 0x00	; 0
    33b6:	c8 01       	movw	r24, r16
    33b8:	0e 94 f1 26 	call	0x4de2	; 0x4de2 <UART_tx>
    33bc:	0f 2e       	mov	r0, r31
    33be:	f2 e3       	ldi	r31, 0x32	; 50
    33c0:	3f 2e       	mov	r3, r31
    33c2:	f0 2d       	mov	r31, r0
    33c4:	f8 01       	movw	r30, r16
    33c6:	23 2d       	mov	r18, r3
    33c8:	11 92       	st	Z+, r1
    33ca:	2a 95       	dec	r18
    33cc:	e9 f7       	brne	.-6      	; 0x33c8 <calibrate_accelerometer+0x23c>
    33ce:	bf 92       	push	r11
    33d0:	af 92       	push	r10
    33d2:	9f 92       	push	r9
    33d4:	8f 92       	push	r8
    33d6:	8d e4       	ldi	r24, 0x4D	; 77
    33d8:	91 e0       	ldi	r25, 0x01	; 1
    33da:	9f 93       	push	r25
    33dc:	8f 93       	push	r24
    33de:	1f 93       	push	r17
    33e0:	0f 93       	push	r16
    33e2:	0e 94 be 2b 	call	0x577c	; 0x577c <sprintf>
    33e6:	f8 01       	movw	r30, r16
    33e8:	01 90       	ld	r0, Z+
    33ea:	00 20       	and	r0, r0
    33ec:	e9 f7       	brne	.-6      	; 0x33e8 <calibrate_accelerometer+0x25c>
    33ee:	31 97       	sbiw	r30, 0x01	; 1
    33f0:	af 01       	movw	r20, r30
    33f2:	4c 57       	subi	r20, 0x7C	; 124
    33f4:	53 40       	sbci	r21, 0x03	; 3
    33f6:	60 e0       	ldi	r22, 0x00	; 0
    33f8:	70 e0       	ldi	r23, 0x00	; 0
    33fa:	c8 01       	movw	r24, r16
    33fc:	0e 94 f1 26 	call	0x4de2	; 0x4de2 <UART_tx>
    3400:	f8 01       	movw	r30, r16
    3402:	23 2d       	mov	r18, r3
    3404:	11 92       	st	Z+, r1
    3406:	2a 95       	dec	r18
    3408:	e9 f7       	brne	.-6      	; 0x3404 <calibrate_accelerometer+0x278>
    340a:	ff 92       	push	r15
    340c:	ef 92       	push	r14
    340e:	df 92       	push	r13
    3410:	cf 92       	push	r12
    3412:	8b e5       	ldi	r24, 0x5B	; 91
    3414:	91 e0       	ldi	r25, 0x01	; 1
    3416:	9f 93       	push	r25
    3418:	8f 93       	push	r24
    341a:	1f 93       	push	r17
    341c:	0f 93       	push	r16
    341e:	0e 94 be 2b 	call	0x577c	; 0x577c <sprintf>
    3422:	f8 01       	movw	r30, r16
    3424:	01 90       	ld	r0, Z+
    3426:	00 20       	and	r0, r0
    3428:	e9 f7       	brne	.-6      	; 0x3424 <calibrate_accelerometer+0x298>
    342a:	31 97       	sbiw	r30, 0x01	; 1
    342c:	af 01       	movw	r20, r30
    342e:	4c 57       	subi	r20, 0x7C	; 124
    3430:	53 40       	sbci	r21, 0x03	; 3
    3432:	60 e0       	ldi	r22, 0x00	; 0
    3434:	70 e0       	ldi	r23, 0x00	; 0
    3436:	c8 01       	movw	r24, r16
    3438:	0e 94 f1 26 	call	0x4de2	; 0x4de2 <UART_tx>
    343c:	f8 01       	movw	r30, r16
    343e:	11 92       	st	Z+, r1
    3440:	3a 94       	dec	r3
    3442:	e9 f7       	brne	.-6      	; 0x343e <calibrate_accelerometer+0x2b2>
    3444:	24 2d       	mov	r18, r4
    3446:	ee ea       	ldi	r30, 0xAE	; 174
    3448:	f3 e0       	ldi	r31, 0x03	; 3
    344a:	40 82       	st	Z, r4
    344c:	51 82       	std	Z+1, r5	; 0x01
    344e:	82 82       	std	Z+2, r8	; 0x02
    3450:	93 82       	std	Z+3, r9	; 0x03
    3452:	8c 2d       	mov	r24, r12
    3454:	9d 2d       	mov	r25, r13
    3456:	0f b6       	in	r0, 0x3f	; 63
    3458:	f8 94       	cli
    345a:	de bf       	out	0x3e, r29	; 62
    345c:	0f be       	out	0x3f, r0	; 63
    345e:	cd bf       	out	0x3d, r28	; 61
    3460:	18 16       	cp	r1, r24
    3462:	19 06       	cpc	r1, r25
    3464:	34 f4       	brge	.+12     	; 0x3472 <calibrate_accelerometer+0x2e6>
    3466:	90 52       	subi	r25, 0x20	; 32
    3468:	90 93 b3 03 	sts	0x03B3, r25	; 0x8003b3 <accelerometer_offset+0x5>
    346c:	80 93 b2 03 	sts	0x03B2, r24	; 0x8003b2 <accelerometer_offset+0x4>
    3470:	05 c0       	rjmp	.+10     	; 0x347c <calibrate_accelerometer+0x2f0>
    3472:	90 5e       	subi	r25, 0xE0	; 224
    3474:	90 93 b3 03 	sts	0x03B3, r25	; 0x8003b3 <accelerometer_offset+0x5>
    3478:	80 93 b2 03 	sts	0x03B2, r24	; 0x8003b2 <accelerometer_offset+0x4>
    347c:	5f 92       	push	r5
    347e:	2f 93       	push	r18
    3480:	0f 2e       	mov	r0, r31
    3482:	f9 e6       	ldi	r31, 0x69	; 105
    3484:	ef 2e       	mov	r14, r31
    3486:	f1 e0       	ldi	r31, 0x01	; 1
    3488:	ff 2e       	mov	r15, r31
    348a:	f0 2d       	mov	r31, r0
    348c:	ff 92       	push	r15
    348e:	ef 92       	push	r14
    3490:	0c e7       	ldi	r16, 0x7C	; 124
    3492:	13 e0       	ldi	r17, 0x03	; 3
    3494:	1f 93       	push	r17
    3496:	0f 93       	push	r16
    3498:	0e 94 be 2b 	call	0x577c	; 0x577c <sprintf>
    349c:	f8 01       	movw	r30, r16
    349e:	01 90       	ld	r0, Z+
    34a0:	00 20       	and	r0, r0
    34a2:	e9 f7       	brne	.-6      	; 0x349e <calibrate_accelerometer+0x312>
    34a4:	31 97       	sbiw	r30, 0x01	; 1
    34a6:	af 01       	movw	r20, r30
    34a8:	4c 57       	subi	r20, 0x7C	; 124
    34aa:	53 40       	sbci	r21, 0x03	; 3
    34ac:	60 e0       	ldi	r22, 0x00	; 0
    34ae:	70 e0       	ldi	r23, 0x00	; 0
    34b0:	c8 01       	movw	r24, r16
    34b2:	0e 94 f1 26 	call	0x4de2	; 0x4de2 <UART_tx>
    34b6:	0f 2e       	mov	r0, r31
    34b8:	f2 e3       	ldi	r31, 0x32	; 50
    34ba:	bf 2e       	mov	r11, r31
    34bc:	f0 2d       	mov	r31, r0
    34be:	f8 01       	movw	r30, r16
    34c0:	2b 2d       	mov	r18, r11
    34c2:	11 92       	st	Z+, r1
    34c4:	2a 95       	dec	r18
    34c6:	e9 f7       	brne	.-6      	; 0x34c2 <calibrate_accelerometer+0x336>
    34c8:	0f 2e       	mov	r0, r31
    34ca:	fe ea       	ldi	r31, 0xAE	; 174
    34cc:	cf 2e       	mov	r12, r31
    34ce:	f3 e0       	ldi	r31, 0x03	; 3
    34d0:	df 2e       	mov	r13, r31
    34d2:	f0 2d       	mov	r31, r0
    34d4:	f6 01       	movw	r30, r12
    34d6:	83 81       	ldd	r24, Z+3	; 0x03
    34d8:	8f 93       	push	r24
    34da:	82 81       	ldd	r24, Z+2	; 0x02
    34dc:	8f 93       	push	r24
    34de:	ff 92       	push	r15
    34e0:	ef 92       	push	r14
    34e2:	1f 93       	push	r17
    34e4:	0f 93       	push	r16
    34e6:	0e 94 be 2b 	call	0x577c	; 0x577c <sprintf>
    34ea:	f8 01       	movw	r30, r16
    34ec:	01 90       	ld	r0, Z+
    34ee:	00 20       	and	r0, r0
    34f0:	e9 f7       	brne	.-6      	; 0x34ec <calibrate_accelerometer+0x360>
    34f2:	31 97       	sbiw	r30, 0x01	; 1
    34f4:	af 01       	movw	r20, r30
    34f6:	4c 57       	subi	r20, 0x7C	; 124
    34f8:	53 40       	sbci	r21, 0x03	; 3
    34fa:	60 e0       	ldi	r22, 0x00	; 0
    34fc:	70 e0       	ldi	r23, 0x00	; 0
    34fe:	c8 01       	movw	r24, r16
    3500:	0e 94 f1 26 	call	0x4de2	; 0x4de2 <UART_tx>
    3504:	f8 01       	movw	r30, r16
    3506:	2b 2d       	mov	r18, r11
    3508:	11 92       	st	Z+, r1
    350a:	2a 95       	dec	r18
    350c:	e9 f7       	brne	.-6      	; 0x3508 <calibrate_accelerometer+0x37c>
    350e:	f6 01       	movw	r30, r12
    3510:	85 81       	ldd	r24, Z+5	; 0x05
    3512:	8f 93       	push	r24
    3514:	84 81       	ldd	r24, Z+4	; 0x04
    3516:	8f 93       	push	r24
    3518:	ff 92       	push	r15
    351a:	ef 92       	push	r14
    351c:	1f 93       	push	r17
    351e:	0f 93       	push	r16
    3520:	0e 94 be 2b 	call	0x577c	; 0x577c <sprintf>
    3524:	f8 01       	movw	r30, r16
    3526:	01 90       	ld	r0, Z+
    3528:	00 20       	and	r0, r0
    352a:	e9 f7       	brne	.-6      	; 0x3526 <calibrate_accelerometer+0x39a>
    352c:	31 97       	sbiw	r30, 0x01	; 1
    352e:	af 01       	movw	r20, r30
    3530:	4c 57       	subi	r20, 0x7C	; 124
    3532:	53 40       	sbci	r21, 0x03	; 3
    3534:	60 e0       	ldi	r22, 0x00	; 0
    3536:	70 e0       	ldi	r23, 0x00	; 0
    3538:	c8 01       	movw	r24, r16
    353a:	0e 94 f1 26 	call	0x4de2	; 0x4de2 <UART_tx>
    353e:	f8 01       	movw	r30, r16
    3540:	11 92       	st	Z+, r1
    3542:	ba 94       	dec	r11
    3544:	e9 f7       	brne	.-6      	; 0x3540 <calibrate_accelerometer+0x3b4>
    3546:	0f b6       	in	r0, 0x3f	; 63
    3548:	f8 94       	cli
    354a:	de bf       	out	0x3e, r29	; 62
    354c:	0f be       	out	0x3f, r0	; 63
    354e:	cd bf       	out	0x3d, r28	; 61
    3550:	80 e0       	ldi	r24, 0x00	; 0
    3552:	29 96       	adiw	r28, 0x09	; 9
    3554:	0f b6       	in	r0, 0x3f	; 63
    3556:	f8 94       	cli
    3558:	de bf       	out	0x3e, r29	; 62
    355a:	0f be       	out	0x3f, r0	; 63
    355c:	cd bf       	out	0x3d, r28	; 61
    355e:	df 91       	pop	r29
    3560:	cf 91       	pop	r28
    3562:	1f 91       	pop	r17
    3564:	0f 91       	pop	r16
    3566:	ff 90       	pop	r15
    3568:	ef 90       	pop	r14
    356a:	df 90       	pop	r13
    356c:	cf 90       	pop	r12
    356e:	bf 90       	pop	r11
    3570:	af 90       	pop	r10
    3572:	9f 90       	pop	r9
    3574:	8f 90       	pop	r8
    3576:	7f 90       	pop	r7
    3578:	6f 90       	pop	r6
    357a:	5f 90       	pop	r5
    357c:	4f 90       	pop	r4
    357e:	3f 90       	pop	r3
    3580:	08 95       	ret

00003582 <read_gyroscope_data>:
    3582:	0f 93       	push	r16
    3584:	1f 93       	push	r17
    3586:	cf 93       	push	r28
    3588:	df 93       	push	r29
    358a:	cd b7       	in	r28, 0x3d	; 61
    358c:	de b7       	in	r29, 0x3e	; 62
    358e:	29 97       	sbiw	r28, 0x09	; 9
    3590:	0f b6       	in	r0, 0x3f	; 63
    3592:	f8 94       	cli
    3594:	de bf       	out	0x3e, r29	; 62
    3596:	0f be       	out	0x3f, r0	; 63
    3598:	cd bf       	out	0x3d, r28	; 61
    359a:	8c 01       	movw	r16, r24
    359c:	80 ed       	ldi	r24, 0xD0	; 208
    359e:	89 83       	std	Y+1, r24	; 0x01
    35a0:	83 e4       	ldi	r24, 0x43	; 67
    35a2:	8a 83       	std	Y+2, r24	; 0x02
    35a4:	81 ed       	ldi	r24, 0xD1	; 209
    35a6:	8b 83       	std	Y+3, r24	; 0x03
    35a8:	62 e0       	ldi	r22, 0x02	; 2
    35aa:	ce 01       	movw	r24, r28
    35ac:	01 96       	adiw	r24, 0x01	; 1
    35ae:	0e 94 0e 26 	call	0x4c1c	; 0x4c1c <TWI_Start_Transceiver_With_Data>
    35b2:	67 e0       	ldi	r22, 0x07	; 7
    35b4:	ce 01       	movw	r24, r28
    35b6:	03 96       	adiw	r24, 0x03	; 3
    35b8:	0e 94 0e 26 	call	0x4c1c	; 0x4c1c <TWI_Start_Transceiver_With_Data>
    35bc:	67 e0       	ldi	r22, 0x07	; 7
    35be:	ce 01       	movw	r24, r28
    35c0:	03 96       	adiw	r24, 0x03	; 3
    35c2:	0e 94 3b 26 	call	0x4c76	; 0x4c76 <TWI_Get_Data_From_Transceiver>
    35c6:	8c 81       	ldd	r24, Y+4	; 0x04
    35c8:	90 e0       	ldi	r25, 0x00	; 0
    35ca:	98 2f       	mov	r25, r24
    35cc:	88 27       	eor	r24, r24
    35ce:	2d 81       	ldd	r18, Y+5	; 0x05
    35d0:	82 2b       	or	r24, r18
    35d2:	f8 01       	movw	r30, r16
    35d4:	91 83       	std	Z+1, r25	; 0x01
    35d6:	80 83       	st	Z, r24
    35d8:	8e 81       	ldd	r24, Y+6	; 0x06
    35da:	90 e0       	ldi	r25, 0x00	; 0
    35dc:	98 2f       	mov	r25, r24
    35de:	88 27       	eor	r24, r24
    35e0:	2f 81       	ldd	r18, Y+7	; 0x07
    35e2:	82 2b       	or	r24, r18
    35e4:	93 83       	std	Z+3, r25	; 0x03
    35e6:	82 83       	std	Z+2, r24	; 0x02
    35e8:	88 85       	ldd	r24, Y+8	; 0x08
    35ea:	90 e0       	ldi	r25, 0x00	; 0
    35ec:	98 2f       	mov	r25, r24
    35ee:	88 27       	eor	r24, r24
    35f0:	29 85       	ldd	r18, Y+9	; 0x09
    35f2:	82 2b       	or	r24, r18
    35f4:	95 83       	std	Z+5, r25	; 0x05
    35f6:	84 83       	std	Z+4, r24	; 0x04
    35f8:	80 e0       	ldi	r24, 0x00	; 0
    35fa:	29 96       	adiw	r28, 0x09	; 9
    35fc:	0f b6       	in	r0, 0x3f	; 63
    35fe:	f8 94       	cli
    3600:	de bf       	out	0x3e, r29	; 62
    3602:	0f be       	out	0x3f, r0	; 63
    3604:	cd bf       	out	0x3d, r28	; 61
    3606:	df 91       	pop	r29
    3608:	cf 91       	pop	r28
    360a:	1f 91       	pop	r17
    360c:	0f 91       	pop	r16
    360e:	08 95       	ret

00003610 <set_gyro_bias>:
    3610:	cf 93       	push	r28
    3612:	df 93       	push	r29
    3614:	cd b7       	in	r28, 0x3d	; 61
    3616:	de b7       	in	r29, 0x3e	; 62
    3618:	28 97       	sbiw	r28, 0x08	; 8
    361a:	0f b6       	in	r0, 0x3f	; 63
    361c:	f8 94       	cli
    361e:	de bf       	out	0x3e, r29	; 62
    3620:	0f be       	out	0x3f, r0	; 63
    3622:	cd bf       	out	0x3d, r28	; 61
    3624:	fc 01       	movw	r30, r24
    3626:	40 81       	ld	r20, Z
    3628:	51 81       	ldd	r21, Z+1	; 0x01
    362a:	51 95       	neg	r21
    362c:	41 95       	neg	r20
    362e:	51 09       	sbc	r21, r1
    3630:	51 83       	std	Z+1, r21	; 0x01
    3632:	40 83       	st	Z, r20
    3634:	22 81       	ldd	r18, Z+2	; 0x02
    3636:	33 81       	ldd	r19, Z+3	; 0x03
    3638:	31 95       	neg	r19
    363a:	21 95       	neg	r18
    363c:	31 09       	sbc	r19, r1
    363e:	33 83       	std	Z+3, r19	; 0x03
    3640:	22 83       	std	Z+2, r18	; 0x02
    3642:	84 81       	ldd	r24, Z+4	; 0x04
    3644:	95 81       	ldd	r25, Z+5	; 0x05
    3646:	91 95       	neg	r25
    3648:	81 95       	neg	r24
    364a:	91 09       	sbc	r25, r1
    364c:	95 83       	std	Z+5, r25	; 0x05
    364e:	84 83       	std	Z+4, r24	; 0x04
    3650:	51 81       	ldd	r21, Z+1	; 0x01
    3652:	33 81       	ldd	r19, Z+3	; 0x03
    3654:	95 81       	ldd	r25, Z+5	; 0x05
    3656:	60 ed       	ldi	r22, 0xD0	; 208
    3658:	69 83       	std	Y+1, r22	; 0x01
    365a:	63 e1       	ldi	r22, 0x13	; 19
    365c:	6a 83       	std	Y+2, r22	; 0x02
    365e:	5b 83       	std	Y+3, r21	; 0x03
    3660:	4c 83       	std	Y+4, r20	; 0x04
    3662:	3d 83       	std	Y+5, r19	; 0x05
    3664:	2e 83       	std	Y+6, r18	; 0x06
    3666:	9f 83       	std	Y+7, r25	; 0x07
    3668:	88 87       	std	Y+8, r24	; 0x08
    366a:	68 e0       	ldi	r22, 0x08	; 8
    366c:	ce 01       	movw	r24, r28
    366e:	01 96       	adiw	r24, 0x01	; 1
    3670:	0e 94 0e 26 	call	0x4c1c	; 0x4c1c <TWI_Start_Transceiver_With_Data>
    3674:	80 e0       	ldi	r24, 0x00	; 0
    3676:	28 96       	adiw	r28, 0x08	; 8
    3678:	0f b6       	in	r0, 0x3f	; 63
    367a:	f8 94       	cli
    367c:	de bf       	out	0x3e, r29	; 62
    367e:	0f be       	out	0x3f, r0	; 63
    3680:	cd bf       	out	0x3d, r28	; 61
    3682:	df 91       	pop	r29
    3684:	cf 91       	pop	r28
    3686:	08 95       	ret

00003688 <calibrate_gyroscope>:
    3688:	3f 92       	push	r3
    368a:	4f 92       	push	r4
    368c:	5f 92       	push	r5
    368e:	6f 92       	push	r6
    3690:	7f 92       	push	r7
    3692:	8f 92       	push	r8
    3694:	9f 92       	push	r9
    3696:	af 92       	push	r10
    3698:	bf 92       	push	r11
    369a:	cf 92       	push	r12
    369c:	df 92       	push	r13
    369e:	ef 92       	push	r14
    36a0:	ff 92       	push	r15
    36a2:	0f 93       	push	r16
    36a4:	1f 93       	push	r17
    36a6:	cf 93       	push	r28
    36a8:	df 93       	push	r29
    36aa:	cd b7       	in	r28, 0x3d	; 61
    36ac:	de b7       	in	r29, 0x3e	; 62
    36ae:	2f 97       	sbiw	r28, 0x0f	; 15
    36b0:	0f b6       	in	r0, 0x3f	; 63
    36b2:	f8 94       	cli
    36b4:	de bf       	out	0x3e, r29	; 62
    36b6:	0f be       	out	0x3f, r0	; 63
    36b8:	cd bf       	out	0x3d, r28	; 61
    36ba:	80 ed       	ldi	r24, 0xD0	; 208
    36bc:	89 83       	std	Y+1, r24	; 0x01
    36be:	8b e1       	ldi	r24, 0x1B	; 27
    36c0:	8a 83       	std	Y+2, r24	; 0x02
    36c2:	80 e1       	ldi	r24, 0x10	; 16
    36c4:	8b 83       	std	Y+3, r24	; 0x03
    36c6:	63 e0       	ldi	r22, 0x03	; 3
    36c8:	ce 01       	movw	r24, r28
    36ca:	01 96       	adiw	r24, 0x01	; 1
    36cc:	0e 94 0e 26 	call	0x4c1c	; 0x4c1c <TWI_Start_Transceiver_With_Data>
    36d0:	00 e0       	ldi	r16, 0x00	; 0
    36d2:	18 e0       	ldi	r17, 0x08	; 8
    36d4:	41 2c       	mov	r4, r1
    36d6:	51 2c       	mov	r5, r1
    36d8:	32 01       	movw	r6, r4
    36da:	81 2c       	mov	r8, r1
    36dc:	91 2c       	mov	r9, r1
    36de:	54 01       	movw	r10, r8
    36e0:	c1 2c       	mov	r12, r1
    36e2:	d1 2c       	mov	r13, r1
    36e4:	76 01       	movw	r14, r12
    36e6:	ce 01       	movw	r24, r28
    36e8:	04 96       	adiw	r24, 0x04	; 4
    36ea:	0e 94 c1 1a 	call	0x3582	; 0x3582 <read_gyroscope_data>
    36ee:	8c 81       	ldd	r24, Y+4	; 0x04
    36f0:	9d 81       	ldd	r25, Y+5	; 0x05
    36f2:	09 2e       	mov	r0, r25
    36f4:	00 0c       	add	r0, r0
    36f6:	aa 0b       	sbc	r26, r26
    36f8:	bb 0b       	sbc	r27, r27
    36fa:	48 0e       	add	r4, r24
    36fc:	59 1e       	adc	r5, r25
    36fe:	6a 1e       	adc	r6, r26
    3700:	7b 1e       	adc	r7, r27
    3702:	8e 81       	ldd	r24, Y+6	; 0x06
    3704:	9f 81       	ldd	r25, Y+7	; 0x07
    3706:	09 2e       	mov	r0, r25
    3708:	00 0c       	add	r0, r0
    370a:	aa 0b       	sbc	r26, r26
    370c:	bb 0b       	sbc	r27, r27
    370e:	88 0e       	add	r8, r24
    3710:	99 1e       	adc	r9, r25
    3712:	aa 1e       	adc	r10, r26
    3714:	bb 1e       	adc	r11, r27
    3716:	88 85       	ldd	r24, Y+8	; 0x08
    3718:	99 85       	ldd	r25, Y+9	; 0x09
    371a:	09 2e       	mov	r0, r25
    371c:	00 0c       	add	r0, r0
    371e:	aa 0b       	sbc	r26, r26
    3720:	bb 0b       	sbc	r27, r27
    3722:	c8 0e       	add	r12, r24
    3724:	d9 1e       	adc	r13, r25
    3726:	ea 1e       	adc	r14, r26
    3728:	fb 1e       	adc	r15, r27
    372a:	89 ef       	ldi	r24, 0xF9	; 249
    372c:	90 e0       	ldi	r25, 0x00	; 0
    372e:	01 97       	sbiw	r24, 0x01	; 1
    3730:	f1 f7       	brne	.-4      	; 0x372e <calibrate_gyroscope+0xa6>
    3732:	00 c0       	rjmp	.+0      	; 0x3734 <calibrate_gyroscope+0xac>
    3734:	00 00       	nop
    3736:	01 50       	subi	r16, 0x01	; 1
    3738:	11 09       	sbc	r17, r1
    373a:	a9 f6       	brne	.-86     	; 0x36e6 <calibrate_gyroscope+0x5e>
    373c:	7f 92       	push	r7
    373e:	6f 92       	push	r6
    3740:	5f 92       	push	r5
    3742:	4f 92       	push	r4
    3744:	81 e8       	ldi	r24, 0x81	; 129
    3746:	91 e0       	ldi	r25, 0x01	; 1
    3748:	9f 93       	push	r25
    374a:	8f 93       	push	r24
    374c:	0c e7       	ldi	r16, 0x7C	; 124
    374e:	13 e0       	ldi	r17, 0x03	; 3
    3750:	1f 93       	push	r17
    3752:	0f 93       	push	r16
    3754:	0e 94 be 2b 	call	0x577c	; 0x577c <sprintf>
    3758:	f8 01       	movw	r30, r16
    375a:	01 90       	ld	r0, Z+
    375c:	00 20       	and	r0, r0
    375e:	e9 f7       	brne	.-6      	; 0x375a <calibrate_gyroscope+0xd2>
    3760:	31 97       	sbiw	r30, 0x01	; 1
    3762:	af 01       	movw	r20, r30
    3764:	4c 57       	subi	r20, 0x7C	; 124
    3766:	53 40       	sbci	r21, 0x03	; 3
    3768:	60 e0       	ldi	r22, 0x00	; 0
    376a:	70 e0       	ldi	r23, 0x00	; 0
    376c:	c8 01       	movw	r24, r16
    376e:	0e 94 f1 26 	call	0x4de2	; 0x4de2 <UART_tx>
    3772:	0f 2e       	mov	r0, r31
    3774:	f2 e3       	ldi	r31, 0x32	; 50
    3776:	3f 2e       	mov	r3, r31
    3778:	f0 2d       	mov	r31, r0
    377a:	f8 01       	movw	r30, r16
    377c:	23 2d       	mov	r18, r3
    377e:	11 92       	st	Z+, r1
    3780:	2a 95       	dec	r18
    3782:	e9 f7       	brne	.-6      	; 0x377e <calibrate_gyroscope+0xf6>
    3784:	bf 92       	push	r11
    3786:	af 92       	push	r10
    3788:	9f 92       	push	r9
    378a:	8f 92       	push	r8
    378c:	8f e8       	ldi	r24, 0x8F	; 143
    378e:	91 e0       	ldi	r25, 0x01	; 1
    3790:	9f 93       	push	r25
    3792:	8f 93       	push	r24
    3794:	1f 93       	push	r17
    3796:	0f 93       	push	r16
    3798:	0e 94 be 2b 	call	0x577c	; 0x577c <sprintf>
    379c:	f8 01       	movw	r30, r16
    379e:	01 90       	ld	r0, Z+
    37a0:	00 20       	and	r0, r0
    37a2:	e9 f7       	brne	.-6      	; 0x379e <calibrate_gyroscope+0x116>
    37a4:	31 97       	sbiw	r30, 0x01	; 1
    37a6:	af 01       	movw	r20, r30
    37a8:	4c 57       	subi	r20, 0x7C	; 124
    37aa:	53 40       	sbci	r21, 0x03	; 3
    37ac:	60 e0       	ldi	r22, 0x00	; 0
    37ae:	70 e0       	ldi	r23, 0x00	; 0
    37b0:	c8 01       	movw	r24, r16
    37b2:	0e 94 f1 26 	call	0x4de2	; 0x4de2 <UART_tx>
    37b6:	f8 01       	movw	r30, r16
    37b8:	23 2d       	mov	r18, r3
    37ba:	11 92       	st	Z+, r1
    37bc:	2a 95       	dec	r18
    37be:	e9 f7       	brne	.-6      	; 0x37ba <calibrate_gyroscope+0x132>
    37c0:	ff 92       	push	r15
    37c2:	ef 92       	push	r14
    37c4:	df 92       	push	r13
    37c6:	cf 92       	push	r12
    37c8:	8d e9       	ldi	r24, 0x9D	; 157
    37ca:	91 e0       	ldi	r25, 0x01	; 1
    37cc:	9f 93       	push	r25
    37ce:	8f 93       	push	r24
    37d0:	1f 93       	push	r17
    37d2:	0f 93       	push	r16
    37d4:	0e 94 be 2b 	call	0x577c	; 0x577c <sprintf>
    37d8:	f8 01       	movw	r30, r16
    37da:	01 90       	ld	r0, Z+
    37dc:	00 20       	and	r0, r0
    37de:	e9 f7       	brne	.-6      	; 0x37da <calibrate_gyroscope+0x152>
    37e0:	31 97       	sbiw	r30, 0x01	; 1
    37e2:	af 01       	movw	r20, r30
    37e4:	4c 57       	subi	r20, 0x7C	; 124
    37e6:	53 40       	sbci	r21, 0x03	; 3
    37e8:	60 e0       	ldi	r22, 0x00	; 0
    37ea:	70 e0       	ldi	r23, 0x00	; 0
    37ec:	c8 01       	movw	r24, r16
    37ee:	0e 94 f1 26 	call	0x4de2	; 0x4de2 <UART_tx>
    37f2:	f8 01       	movw	r30, r16
    37f4:	11 92       	st	Z+, r1
    37f6:	3a 94       	dec	r3
    37f8:	e9 f7       	brne	.-6      	; 0x37f4 <calibrate_gyroscope+0x16c>
    37fa:	d3 01       	movw	r26, r6
    37fc:	c2 01       	movw	r24, r4
    37fe:	0f b6       	in	r0, 0x3f	; 63
    3800:	f8 94       	cli
    3802:	de bf       	out	0x3e, r29	; 62
    3804:	0f be       	out	0x3f, r0	; 63
    3806:	cd bf       	out	0x3d, r28	; 61
    3808:	77 20       	and	r7, r7
    380a:	24 f4       	brge	.+8      	; 0x3814 <calibrate_gyroscope+0x18c>
    380c:	81 50       	subi	r24, 0x01	; 1
    380e:	98 4f       	sbci	r25, 0xF8	; 248
    3810:	af 4f       	sbci	r26, 0xFF	; 255
    3812:	bf 4f       	sbci	r27, 0xFF	; 255
    3814:	07 2e       	mov	r0, r23
    3816:	7b e0       	ldi	r23, 0x0B	; 11
    3818:	b5 95       	asr	r27
    381a:	a7 95       	ror	r26
    381c:	97 95       	ror	r25
    381e:	87 95       	ror	r24
    3820:	7a 95       	dec	r23
    3822:	d1 f7       	brne	.-12     	; 0x3818 <calibrate_gyroscope+0x190>
    3824:	70 2d       	mov	r23, r0
    3826:	8a 87       	std	Y+10, r24	; 0x0a
    3828:	9b 87       	std	Y+11, r25	; 0x0b
    382a:	b5 01       	movw	r22, r10
    382c:	a4 01       	movw	r20, r8
    382e:	bb 20       	and	r11, r11
    3830:	24 f4       	brge	.+8      	; 0x383a <calibrate_gyroscope+0x1b2>
    3832:	41 50       	subi	r20, 0x01	; 1
    3834:	58 4f       	sbci	r21, 0xF8	; 248
    3836:	6f 4f       	sbci	r22, 0xFF	; 255
    3838:	7f 4f       	sbci	r23, 0xFF	; 255
    383a:	03 2e       	mov	r0, r19
    383c:	3b e0       	ldi	r19, 0x0B	; 11
    383e:	75 95       	asr	r23
    3840:	67 95       	ror	r22
    3842:	57 95       	ror	r21
    3844:	47 95       	ror	r20
    3846:	3a 95       	dec	r19
    3848:	d1 f7       	brne	.-12     	; 0x383e <calibrate_gyroscope+0x1b6>
    384a:	30 2d       	mov	r19, r0
    384c:	5d 87       	std	Y+13, r21	; 0x0d
    384e:	4c 87       	std	Y+12, r20	; 0x0c
    3850:	b7 01       	movw	r22, r14
    3852:	a6 01       	movw	r20, r12
    3854:	ff 20       	and	r15, r15
    3856:	24 f4       	brge	.+8      	; 0x3860 <calibrate_gyroscope+0x1d8>
    3858:	41 50       	subi	r20, 0x01	; 1
    385a:	58 4f       	sbci	r21, 0xF8	; 248
    385c:	6f 4f       	sbci	r22, 0xFF	; 255
    385e:	7f 4f       	sbci	r23, 0xFF	; 255
    3860:	03 2e       	mov	r0, r19
    3862:	3b e0       	ldi	r19, 0x0B	; 11
    3864:	75 95       	asr	r23
    3866:	67 95       	ror	r22
    3868:	57 95       	ror	r21
    386a:	47 95       	ror	r20
    386c:	3a 95       	dec	r19
    386e:	d1 f7       	brne	.-12     	; 0x3864 <calibrate_gyroscope+0x1dc>
    3870:	30 2d       	mov	r19, r0
    3872:	5f 87       	std	Y+15, r21	; 0x0f
    3874:	4e 87       	std	Y+14, r20	; 0x0e
    3876:	9f 93       	push	r25
    3878:	8f 93       	push	r24
    387a:	0f 2e       	mov	r0, r31
    387c:	f9 e6       	ldi	r31, 0x69	; 105
    387e:	cf 2e       	mov	r12, r31
    3880:	f1 e0       	ldi	r31, 0x01	; 1
    3882:	df 2e       	mov	r13, r31
    3884:	f0 2d       	mov	r31, r0
    3886:	df 92       	push	r13
    3888:	cf 92       	push	r12
    388a:	0c e7       	ldi	r16, 0x7C	; 124
    388c:	13 e0       	ldi	r17, 0x03	; 3
    388e:	1f 93       	push	r17
    3890:	0f 93       	push	r16
    3892:	0e 94 be 2b 	call	0x577c	; 0x577c <sprintf>
    3896:	f8 01       	movw	r30, r16
    3898:	01 90       	ld	r0, Z+
    389a:	00 20       	and	r0, r0
    389c:	e9 f7       	brne	.-6      	; 0x3898 <calibrate_gyroscope+0x210>
    389e:	31 97       	sbiw	r30, 0x01	; 1
    38a0:	af 01       	movw	r20, r30
    38a2:	4c 57       	subi	r20, 0x7C	; 124
    38a4:	53 40       	sbci	r21, 0x03	; 3
    38a6:	60 e0       	ldi	r22, 0x00	; 0
    38a8:	70 e0       	ldi	r23, 0x00	; 0
    38aa:	c8 01       	movw	r24, r16
    38ac:	0e 94 f1 26 	call	0x4de2	; 0x4de2 <UART_tx>
    38b0:	0f 2e       	mov	r0, r31
    38b2:	f2 e3       	ldi	r31, 0x32	; 50
    38b4:	ff 2e       	mov	r15, r31
    38b6:	f0 2d       	mov	r31, r0
    38b8:	f8 01       	movw	r30, r16
    38ba:	2f 2d       	mov	r18, r15
    38bc:	11 92       	st	Z+, r1
    38be:	2a 95       	dec	r18
    38c0:	e9 f7       	brne	.-6      	; 0x38bc <calibrate_gyroscope+0x234>
    38c2:	8d 85       	ldd	r24, Y+13	; 0x0d
    38c4:	8f 93       	push	r24
    38c6:	8c 85       	ldd	r24, Y+12	; 0x0c
    38c8:	8f 93       	push	r24
    38ca:	df 92       	push	r13
    38cc:	cf 92       	push	r12
    38ce:	1f 93       	push	r17
    38d0:	0f 93       	push	r16
    38d2:	0e 94 be 2b 	call	0x577c	; 0x577c <sprintf>
    38d6:	f8 01       	movw	r30, r16
    38d8:	01 90       	ld	r0, Z+
    38da:	00 20       	and	r0, r0
    38dc:	e9 f7       	brne	.-6      	; 0x38d8 <calibrate_gyroscope+0x250>
    38de:	31 97       	sbiw	r30, 0x01	; 1
    38e0:	af 01       	movw	r20, r30
    38e2:	4c 57       	subi	r20, 0x7C	; 124
    38e4:	53 40       	sbci	r21, 0x03	; 3
    38e6:	60 e0       	ldi	r22, 0x00	; 0
    38e8:	70 e0       	ldi	r23, 0x00	; 0
    38ea:	c8 01       	movw	r24, r16
    38ec:	0e 94 f1 26 	call	0x4de2	; 0x4de2 <UART_tx>
    38f0:	f8 01       	movw	r30, r16
    38f2:	2f 2d       	mov	r18, r15
    38f4:	11 92       	st	Z+, r1
    38f6:	2a 95       	dec	r18
    38f8:	e9 f7       	brne	.-6      	; 0x38f4 <calibrate_gyroscope+0x26c>
    38fa:	8f 85       	ldd	r24, Y+15	; 0x0f
    38fc:	8f 93       	push	r24
    38fe:	8e 85       	ldd	r24, Y+14	; 0x0e
    3900:	8f 93       	push	r24
    3902:	df 92       	push	r13
    3904:	cf 92       	push	r12
    3906:	1f 93       	push	r17
    3908:	0f 93       	push	r16
    390a:	0e 94 be 2b 	call	0x577c	; 0x577c <sprintf>
    390e:	f8 01       	movw	r30, r16
    3910:	01 90       	ld	r0, Z+
    3912:	00 20       	and	r0, r0
    3914:	e9 f7       	brne	.-6      	; 0x3910 <calibrate_gyroscope+0x288>
    3916:	31 97       	sbiw	r30, 0x01	; 1
    3918:	af 01       	movw	r20, r30
    391a:	4c 57       	subi	r20, 0x7C	; 124
    391c:	53 40       	sbci	r21, 0x03	; 3
    391e:	60 e0       	ldi	r22, 0x00	; 0
    3920:	70 e0       	ldi	r23, 0x00	; 0
    3922:	c8 01       	movw	r24, r16
    3924:	0e 94 f1 26 	call	0x4de2	; 0x4de2 <UART_tx>
    3928:	f8 01       	movw	r30, r16
    392a:	11 92       	st	Z+, r1
    392c:	fa 94       	dec	r15
    392e:	e9 f7       	brne	.-6      	; 0x392a <calibrate_gyroscope+0x2a2>
    3930:	ce 01       	movw	r24, r28
    3932:	0a 96       	adiw	r24, 0x0a	; 10
    3934:	0e 94 08 1b 	call	0x3610	; 0x3610 <set_gyro_bias>
    3938:	0f b6       	in	r0, 0x3f	; 63
    393a:	f8 94       	cli
    393c:	de bf       	out	0x3e, r29	; 62
    393e:	0f be       	out	0x3f, r0	; 63
    3940:	cd bf       	out	0x3d, r28	; 61
    3942:	80 e0       	ldi	r24, 0x00	; 0
    3944:	2f 96       	adiw	r28, 0x0f	; 15
    3946:	0f b6       	in	r0, 0x3f	; 63
    3948:	f8 94       	cli
    394a:	de bf       	out	0x3e, r29	; 62
    394c:	0f be       	out	0x3f, r0	; 63
    394e:	cd bf       	out	0x3d, r28	; 61
    3950:	df 91       	pop	r29
    3952:	cf 91       	pop	r28
    3954:	1f 91       	pop	r17
    3956:	0f 91       	pop	r16
    3958:	ff 90       	pop	r15
    395a:	ef 90       	pop	r14
    395c:	df 90       	pop	r13
    395e:	cf 90       	pop	r12
    3960:	bf 90       	pop	r11
    3962:	af 90       	pop	r10
    3964:	9f 90       	pop	r9
    3966:	8f 90       	pop	r8
    3968:	7f 90       	pop	r7
    396a:	6f 90       	pop	r6
    396c:	5f 90       	pop	r5
    396e:	4f 90       	pop	r4
    3970:	3f 90       	pop	r3
    3972:	08 95       	ret

00003974 <scale_magnetometer>:
    3974:	0f 93       	push	r16
    3976:	1f 93       	push	r17
    3978:	cf 93       	push	r28
    397a:	df 93       	push	r29
    397c:	ec 01       	movw	r28, r24
    397e:	04 eb       	ldi	r16, 0xB4	; 180
    3980:	13 e0       	ldi	r17, 0x03	; 3
    3982:	f8 01       	movw	r30, r16
    3984:	60 81       	ld	r22, Z
    3986:	70 e0       	ldi	r23, 0x00	; 0
    3988:	80 e0       	ldi	r24, 0x00	; 0
    398a:	90 e0       	ldi	r25, 0x00	; 0
    398c:	0e 94 9c 29 	call	0x5338	; 0x5338 <__floatunsisf>
    3990:	20 e0       	ldi	r18, 0x00	; 0
    3992:	30 e0       	ldi	r19, 0x00	; 0
    3994:	40 e0       	ldi	r20, 0x00	; 0
    3996:	53 e4       	ldi	r21, 0x43	; 67
    3998:	0e 94 2b 28 	call	0x5056	; 0x5056 <__subsf3>
    399c:	20 e0       	ldi	r18, 0x00	; 0
    399e:	30 e0       	ldi	r19, 0x00	; 0
    39a0:	40 e0       	ldi	r20, 0x00	; 0
    39a2:	5f e3       	ldi	r21, 0x3F	; 63
    39a4:	0e 94 b1 2a 	call	0x5562	; 0x5562 <__mulsf3>
    39a8:	20 e0       	ldi	r18, 0x00	; 0
    39aa:	30 e0       	ldi	r19, 0x00	; 0
    39ac:	40 e0       	ldi	r20, 0x00	; 0
    39ae:	5c e3       	ldi	r21, 0x3C	; 60
    39b0:	0e 94 b1 2a 	call	0x5562	; 0x5562 <__mulsf3>
    39b4:	20 e0       	ldi	r18, 0x00	; 0
    39b6:	30 e0       	ldi	r19, 0x00	; 0
    39b8:	40 e8       	ldi	r20, 0x80	; 128
    39ba:	5f e3       	ldi	r21, 0x3F	; 63
    39bc:	0e 94 2c 28 	call	0x5058	; 0x5058 <__addsf3>
    39c0:	9b 01       	movw	r18, r22
    39c2:	ac 01       	movw	r20, r24
    39c4:	68 81       	ld	r22, Y
    39c6:	79 81       	ldd	r23, Y+1	; 0x01
    39c8:	8a 81       	ldd	r24, Y+2	; 0x02
    39ca:	9b 81       	ldd	r25, Y+3	; 0x03
    39cc:	0e 94 b1 2a 	call	0x5562	; 0x5562 <__mulsf3>
    39d0:	68 83       	st	Y, r22
    39d2:	79 83       	std	Y+1, r23	; 0x01
    39d4:	8a 83       	std	Y+2, r24	; 0x02
    39d6:	9b 83       	std	Y+3, r25	; 0x03
    39d8:	f8 01       	movw	r30, r16
    39da:	61 81       	ldd	r22, Z+1	; 0x01
    39dc:	70 e0       	ldi	r23, 0x00	; 0
    39de:	80 e0       	ldi	r24, 0x00	; 0
    39e0:	90 e0       	ldi	r25, 0x00	; 0
    39e2:	0e 94 9c 29 	call	0x5338	; 0x5338 <__floatunsisf>
    39e6:	20 e0       	ldi	r18, 0x00	; 0
    39e8:	30 e0       	ldi	r19, 0x00	; 0
    39ea:	40 e0       	ldi	r20, 0x00	; 0
    39ec:	53 e4       	ldi	r21, 0x43	; 67
    39ee:	0e 94 2b 28 	call	0x5056	; 0x5056 <__subsf3>
    39f2:	20 e0       	ldi	r18, 0x00	; 0
    39f4:	30 e0       	ldi	r19, 0x00	; 0
    39f6:	40 e0       	ldi	r20, 0x00	; 0
    39f8:	5f e3       	ldi	r21, 0x3F	; 63
    39fa:	0e 94 b1 2a 	call	0x5562	; 0x5562 <__mulsf3>
    39fe:	20 e0       	ldi	r18, 0x00	; 0
    3a00:	30 e0       	ldi	r19, 0x00	; 0
    3a02:	40 e0       	ldi	r20, 0x00	; 0
    3a04:	5c e3       	ldi	r21, 0x3C	; 60
    3a06:	0e 94 b1 2a 	call	0x5562	; 0x5562 <__mulsf3>
    3a0a:	20 e0       	ldi	r18, 0x00	; 0
    3a0c:	30 e0       	ldi	r19, 0x00	; 0
    3a0e:	40 e8       	ldi	r20, 0x80	; 128
    3a10:	5f e3       	ldi	r21, 0x3F	; 63
    3a12:	0e 94 2c 28 	call	0x5058	; 0x5058 <__addsf3>
    3a16:	9b 01       	movw	r18, r22
    3a18:	ac 01       	movw	r20, r24
    3a1a:	6c 81       	ldd	r22, Y+4	; 0x04
    3a1c:	7d 81       	ldd	r23, Y+5	; 0x05
    3a1e:	8e 81       	ldd	r24, Y+6	; 0x06
    3a20:	9f 81       	ldd	r25, Y+7	; 0x07
    3a22:	0e 94 b1 2a 	call	0x5562	; 0x5562 <__mulsf3>
    3a26:	6c 83       	std	Y+4, r22	; 0x04
    3a28:	7d 83       	std	Y+5, r23	; 0x05
    3a2a:	8e 83       	std	Y+6, r24	; 0x06
    3a2c:	9f 83       	std	Y+7, r25	; 0x07
    3a2e:	f8 01       	movw	r30, r16
    3a30:	62 81       	ldd	r22, Z+2	; 0x02
    3a32:	70 e0       	ldi	r23, 0x00	; 0
    3a34:	80 e0       	ldi	r24, 0x00	; 0
    3a36:	90 e0       	ldi	r25, 0x00	; 0
    3a38:	0e 94 9c 29 	call	0x5338	; 0x5338 <__floatunsisf>
    3a3c:	20 e0       	ldi	r18, 0x00	; 0
    3a3e:	30 e0       	ldi	r19, 0x00	; 0
    3a40:	40 e0       	ldi	r20, 0x00	; 0
    3a42:	53 e4       	ldi	r21, 0x43	; 67
    3a44:	0e 94 2b 28 	call	0x5056	; 0x5056 <__subsf3>
    3a48:	20 e0       	ldi	r18, 0x00	; 0
    3a4a:	30 e0       	ldi	r19, 0x00	; 0
    3a4c:	40 e0       	ldi	r20, 0x00	; 0
    3a4e:	5f e3       	ldi	r21, 0x3F	; 63
    3a50:	0e 94 b1 2a 	call	0x5562	; 0x5562 <__mulsf3>
    3a54:	20 e0       	ldi	r18, 0x00	; 0
    3a56:	30 e0       	ldi	r19, 0x00	; 0
    3a58:	40 e0       	ldi	r20, 0x00	; 0
    3a5a:	5c e3       	ldi	r21, 0x3C	; 60
    3a5c:	0e 94 b1 2a 	call	0x5562	; 0x5562 <__mulsf3>
    3a60:	20 e0       	ldi	r18, 0x00	; 0
    3a62:	30 e0       	ldi	r19, 0x00	; 0
    3a64:	40 e8       	ldi	r20, 0x80	; 128
    3a66:	5f e3       	ldi	r21, 0x3F	; 63
    3a68:	0e 94 2c 28 	call	0x5058	; 0x5058 <__addsf3>
    3a6c:	9b 01       	movw	r18, r22
    3a6e:	ac 01       	movw	r20, r24
    3a70:	68 85       	ldd	r22, Y+8	; 0x08
    3a72:	79 85       	ldd	r23, Y+9	; 0x09
    3a74:	8a 85       	ldd	r24, Y+10	; 0x0a
    3a76:	9b 85       	ldd	r25, Y+11	; 0x0b
    3a78:	0e 94 b1 2a 	call	0x5562	; 0x5562 <__mulsf3>
    3a7c:	68 87       	std	Y+8, r22	; 0x08
    3a7e:	79 87       	std	Y+9, r23	; 0x09
    3a80:	8a 87       	std	Y+10, r24	; 0x0a
    3a82:	9b 87       	std	Y+11, r25	; 0x0b
    3a84:	80 e0       	ldi	r24, 0x00	; 0
    3a86:	df 91       	pop	r29
    3a88:	cf 91       	pop	r28
    3a8a:	1f 91       	pop	r17
    3a8c:	0f 91       	pop	r16
    3a8e:	08 95       	ret

00003a90 <read_magnetometer>:
    3a90:	0f 93       	push	r16
    3a92:	1f 93       	push	r17
    3a94:	cf 93       	push	r28
    3a96:	df 93       	push	r29
    3a98:	cd b7       	in	r28, 0x3d	; 61
    3a9a:	de b7       	in	r29, 0x3e	; 62
    3a9c:	2a 97       	sbiw	r28, 0x0a	; 10
    3a9e:	0f b6       	in	r0, 0x3f	; 63
    3aa0:	f8 94       	cli
    3aa2:	de bf       	out	0x3e, r29	; 62
    3aa4:	0f be       	out	0x3f, r0	; 63
    3aa6:	cd bf       	out	0x3d, r28	; 61
    3aa8:	8c 01       	movw	r16, r24
    3aaa:	88 e1       	ldi	r24, 0x18	; 24
    3aac:	89 83       	std	Y+1, r24	; 0x01
    3aae:	83 e0       	ldi	r24, 0x03	; 3
    3ab0:	8a 83       	std	Y+2, r24	; 0x02
    3ab2:	89 e1       	ldi	r24, 0x19	; 25
    3ab4:	8b 83       	std	Y+3, r24	; 0x03
    3ab6:	62 e0       	ldi	r22, 0x02	; 2
    3ab8:	ce 01       	movw	r24, r28
    3aba:	01 96       	adiw	r24, 0x01	; 1
    3abc:	0e 94 0e 26 	call	0x4c1c	; 0x4c1c <TWI_Start_Transceiver_With_Data>
    3ac0:	68 e0       	ldi	r22, 0x08	; 8
    3ac2:	ce 01       	movw	r24, r28
    3ac4:	03 96       	adiw	r24, 0x03	; 3
    3ac6:	0e 94 0e 26 	call	0x4c1c	; 0x4c1c <TWI_Start_Transceiver_With_Data>
    3aca:	68 e0       	ldi	r22, 0x08	; 8
    3acc:	ce 01       	movw	r24, r28
    3ace:	03 96       	adiw	r24, 0x03	; 3
    3ad0:	0e 94 3b 26 	call	0x4c76	; 0x4c76 <TWI_Get_Data_From_Transceiver>
    3ad4:	8d 81       	ldd	r24, Y+5	; 0x05
    3ad6:	90 e0       	ldi	r25, 0x00	; 0
    3ad8:	98 2f       	mov	r25, r24
    3ada:	88 27       	eor	r24, r24
    3adc:	2c 81       	ldd	r18, Y+4	; 0x04
    3ade:	82 2b       	or	r24, r18
    3ae0:	f8 01       	movw	r30, r16
    3ae2:	91 83       	std	Z+1, r25	; 0x01
    3ae4:	80 83       	st	Z, r24
    3ae6:	8f 81       	ldd	r24, Y+7	; 0x07
    3ae8:	90 e0       	ldi	r25, 0x00	; 0
    3aea:	98 2f       	mov	r25, r24
    3aec:	88 27       	eor	r24, r24
    3aee:	2e 81       	ldd	r18, Y+6	; 0x06
    3af0:	82 2b       	or	r24, r18
    3af2:	93 83       	std	Z+3, r25	; 0x03
    3af4:	82 83       	std	Z+2, r24	; 0x02
    3af6:	89 85       	ldd	r24, Y+9	; 0x09
    3af8:	90 e0       	ldi	r25, 0x00	; 0
    3afa:	98 2f       	mov	r25, r24
    3afc:	88 27       	eor	r24, r24
    3afe:	28 85       	ldd	r18, Y+8	; 0x08
    3b00:	82 2b       	or	r24, r18
    3b02:	95 83       	std	Z+5, r25	; 0x05
    3b04:	84 83       	std	Z+4, r24	; 0x04
    3b06:	96 85       	ldd	r25, Z+14	; 0x0e
    3b08:	81 e0       	ldi	r24, 0x01	; 1
    3b0a:	93 ff       	sbrs	r25, 3
    3b0c:	80 e0       	ldi	r24, 0x00	; 0
    3b0e:	2a 96       	adiw	r28, 0x0a	; 10
    3b10:	0f b6       	in	r0, 0x3f	; 63
    3b12:	f8 94       	cli
    3b14:	de bf       	out	0x3e, r29	; 62
    3b16:	0f be       	out	0x3f, r0	; 63
    3b18:	cd bf       	out	0x3d, r28	; 61
    3b1a:	df 91       	pop	r29
    3b1c:	cf 91       	pop	r28
    3b1e:	1f 91       	pop	r17
    3b20:	0f 91       	pop	r16
    3b22:	08 95       	ret

00003b24 <calibrate_magnetometer>:
    3b24:	2f 92       	push	r2
    3b26:	3f 92       	push	r3
    3b28:	4f 92       	push	r4
    3b2a:	5f 92       	push	r5
    3b2c:	6f 92       	push	r6
    3b2e:	7f 92       	push	r7
    3b30:	8f 92       	push	r8
    3b32:	9f 92       	push	r9
    3b34:	af 92       	push	r10
    3b36:	bf 92       	push	r11
    3b38:	cf 92       	push	r12
    3b3a:	df 92       	push	r13
    3b3c:	ef 92       	push	r14
    3b3e:	ff 92       	push	r15
    3b40:	0f 93       	push	r16
    3b42:	1f 93       	push	r17
    3b44:	cf 93       	push	r28
    3b46:	df 93       	push	r29
    3b48:	cd b7       	in	r28, 0x3d	; 61
    3b4a:	de b7       	in	r29, 0x3e	; 62
    3b4c:	a9 97       	sbiw	r28, 0x29	; 41
    3b4e:	0f b6       	in	r0, 0x3f	; 63
    3b50:	f8 94       	cli
    3b52:	de bf       	out	0x3e, r29	; 62
    3b54:	0f be       	out	0x3f, r0	; 63
    3b56:	cd bf       	out	0x3d, r28	; 61
    3b58:	88 e1       	ldi	r24, 0x18	; 24
    3b5a:	89 83       	std	Y+1, r24	; 0x01
    3b5c:	8a e0       	ldi	r24, 0x0A	; 10
    3b5e:	8a 83       	std	Y+2, r24	; 0x02
    3b60:	86 e1       	ldi	r24, 0x16	; 22
    3b62:	8b 83       	std	Y+3, r24	; 0x03
    3b64:	63 e0       	ldi	r22, 0x03	; 3
    3b66:	ce 01       	movw	r24, r28
    3b68:	01 96       	adiw	r24, 0x01	; 1
    3b6a:	0e 94 0e 26 	call	0x4c1c	; 0x4c1c <TWI_Start_Transceiver_With_Data>
    3b6e:	86 e0       	ldi	r24, 0x06	; 6
    3b70:	e9 e0       	ldi	r30, 0x09	; 9
    3b72:	f1 e0       	ldi	r31, 0x01	; 1
    3b74:	de 01       	movw	r26, r28
    3b76:	1a 96       	adiw	r26, 0x0a	; 10
    3b78:	01 90       	ld	r0, Z+
    3b7a:	0d 92       	st	X+, r0
    3b7c:	8a 95       	dec	r24
    3b7e:	e1 f7       	brne	.-8      	; 0x3b78 <calibrate_magnetometer+0x54>
    3b80:	86 e0       	ldi	r24, 0x06	; 6
    3b82:	ef e0       	ldi	r30, 0x0F	; 15
    3b84:	f1 e0       	ldi	r31, 0x01	; 1
    3b86:	de 01       	movw	r26, r28
    3b88:	50 96       	adiw	r26, 0x10	; 16
    3b8a:	01 90       	ld	r0, Z+
    3b8c:	0d 92       	st	X+, r0
    3b8e:	8a 95       	dec	r24
    3b90:	e1 f7       	brne	.-8      	; 0x3b8a <calibrate_magnetometer+0x66>
    3b92:	a1 2c       	mov	r10, r1
    3b94:	68 94       	set
    3b96:	bb 24       	eor	r11, r11
    3b98:	b3 f8       	bld	r11, 3
    3b9a:	6e 01       	movw	r12, r28
    3b9c:	26 e1       	ldi	r18, 0x16	; 22
    3b9e:	c2 0e       	add	r12, r18
    3ba0:	d1 1c       	adc	r13, r1
    3ba2:	ce 01       	movw	r24, r28
    3ba4:	04 96       	adiw	r24, 0x04	; 4
    3ba6:	0e 94 48 1d 	call	0x3a90	; 0x3a90 <read_magnetometer>
    3baa:	9e 01       	movw	r18, r28
    3bac:	2c 5f       	subi	r18, 0xFC	; 252
    3bae:	3f 4f       	sbci	r19, 0xFF	; 255
    3bb0:	7e 01       	movw	r14, r28
    3bb2:	80 e1       	ldi	r24, 0x10	; 16
    3bb4:	e8 0e       	add	r14, r24
    3bb6:	f1 1c       	adc	r15, r1
    3bb8:	8e 01       	movw	r16, r28
    3bba:	06 5f       	subi	r16, 0xF6	; 246
    3bbc:	1f 4f       	sbci	r17, 0xFF	; 255
    3bbe:	b8 01       	movw	r22, r16
    3bc0:	f7 01       	movw	r30, r14
    3bc2:	d9 01       	movw	r26, r18
    3bc4:	8d 91       	ld	r24, X+
    3bc6:	9d 91       	ld	r25, X+
    3bc8:	9d 01       	movw	r18, r26
    3bca:	40 81       	ld	r20, Z
    3bcc:	51 81       	ldd	r21, Z+1	; 0x01
    3bce:	84 17       	cp	r24, r20
    3bd0:	95 07       	cpc	r25, r21
    3bd2:	14 f4       	brge	.+4      	; 0x3bd8 <calibrate_magnetometer+0xb4>
    3bd4:	91 83       	std	Z+1, r25	; 0x01
    3bd6:	80 83       	st	Z, r24
    3bd8:	db 01       	movw	r26, r22
    3bda:	4d 91       	ld	r20, X+
    3bdc:	5c 91       	ld	r21, X
    3bde:	11 97       	sbiw	r26, 0x01	; 1
    3be0:	48 17       	cp	r20, r24
    3be2:	59 07       	cpc	r21, r25
    3be4:	14 f4       	brge	.+4      	; 0x3bea <calibrate_magnetometer+0xc6>
    3be6:	8d 93       	st	X+, r24
    3be8:	9c 93       	st	X, r25
    3bea:	32 96       	adiw	r30, 0x02	; 2
    3bec:	6e 5f       	subi	r22, 0xFE	; 254
    3bee:	7f 4f       	sbci	r23, 0xFF	; 255
    3bf0:	ec 15       	cp	r30, r12
    3bf2:	fd 05       	cpc	r31, r13
    3bf4:	31 f7       	brne	.-52     	; 0x3bc2 <calibrate_magnetometer+0x9e>
    3bf6:	ef e1       	ldi	r30, 0x1F	; 31
    3bf8:	fe e4       	ldi	r31, 0x4E	; 78
    3bfa:	31 97       	sbiw	r30, 0x01	; 1
    3bfc:	f1 f7       	brne	.-4      	; 0x3bfa <calibrate_magnetometer+0xd6>
    3bfe:	00 c0       	rjmp	.+0      	; 0x3c00 <calibrate_magnetometer+0xdc>
    3c00:	00 00       	nop
    3c02:	f1 e0       	ldi	r31, 0x01	; 1
    3c04:	af 1a       	sub	r10, r31
    3c06:	b1 08       	sbc	r11, r1
    3c08:	61 f6       	brne	.-104    	; 0x3ba2 <calibrate_magnetometer+0x7e>
    3c0a:	4e 01       	movw	r8, r28
    3c0c:	20 e1       	ldi	r18, 0x10	; 16
    3c0e:	82 0e       	add	r8, r18
    3c10:	91 1c       	adc	r9, r1
    3c12:	0f 2e       	mov	r0, r31
    3c14:	fb ea       	ldi	r31, 0xAB	; 171
    3c16:	af 2e       	mov	r10, r31
    3c18:	f1 e0       	ldi	r31, 0x01	; 1
    3c1a:	bf 2e       	mov	r11, r31
    3c1c:	f0 2d       	mov	r31, r0
    3c1e:	0f 2e       	mov	r0, r31
    3c20:	fc e7       	ldi	r31, 0x7C	; 124
    3c22:	cf 2e       	mov	r12, r31
    3c24:	f3 e0       	ldi	r31, 0x03	; 3
    3c26:	df 2e       	mov	r13, r31
    3c28:	f0 2d       	mov	r31, r0
    3c2a:	0f 2e       	mov	r0, r31
    3c2c:	f2 e3       	ldi	r31, 0x32	; 50
    3c2e:	5f 2e       	mov	r5, r31
    3c30:	f0 2d       	mov	r31, r0
    3c32:	0f 2e       	mov	r0, r31
    3c34:	f7 eb       	ldi	r31, 0xB7	; 183
    3c36:	6f 2e       	mov	r6, r31
    3c38:	f1 e0       	ldi	r31, 0x01	; 1
    3c3a:	7f 2e       	mov	r7, r31
    3c3c:	f0 2d       	mov	r31, r0
    3c3e:	d8 01       	movw	r26, r16
    3c40:	8c 91       	ld	r24, X
    3c42:	11 96       	adiw	r26, 0x01	; 1
    3c44:	9c 91       	ld	r25, X
    3c46:	0e 5f       	subi	r16, 0xFE	; 254
    3c48:	1f 4f       	sbci	r17, 0xFF	; 255
    3c4a:	9f 93       	push	r25
    3c4c:	8f 93       	push	r24
    3c4e:	bf 92       	push	r11
    3c50:	af 92       	push	r10
    3c52:	df 92       	push	r13
    3c54:	cf 92       	push	r12
    3c56:	0e 94 be 2b 	call	0x577c	; 0x577c <sprintf>
    3c5a:	f6 01       	movw	r30, r12
    3c5c:	01 90       	ld	r0, Z+
    3c5e:	00 20       	and	r0, r0
    3c60:	e9 f7       	brne	.-6      	; 0x3c5c <calibrate_magnetometer+0x138>
    3c62:	31 97       	sbiw	r30, 0x01	; 1
    3c64:	af 01       	movw	r20, r30
    3c66:	4c 57       	subi	r20, 0x7C	; 124
    3c68:	53 40       	sbci	r21, 0x03	; 3
    3c6a:	60 e0       	ldi	r22, 0x00	; 0
    3c6c:	70 e0       	ldi	r23, 0x00	; 0
    3c6e:	c6 01       	movw	r24, r12
    3c70:	0e 94 f1 26 	call	0x4de2	; 0x4de2 <UART_tx>
    3c74:	f6 01       	movw	r30, r12
    3c76:	25 2d       	mov	r18, r5
    3c78:	11 92       	st	Z+, r1
    3c7a:	2a 95       	dec	r18
    3c7c:	e9 f7       	brne	.-6      	; 0x3c78 <calibrate_magnetometer+0x154>
    3c7e:	d7 01       	movw	r26, r14
    3c80:	8c 91       	ld	r24, X
    3c82:	11 96       	adiw	r26, 0x01	; 1
    3c84:	9c 91       	ld	r25, X
    3c86:	b2 e0       	ldi	r27, 0x02	; 2
    3c88:	eb 0e       	add	r14, r27
    3c8a:	f1 1c       	adc	r15, r1
    3c8c:	9f 93       	push	r25
    3c8e:	8f 93       	push	r24
    3c90:	7f 92       	push	r7
    3c92:	6f 92       	push	r6
    3c94:	df 92       	push	r13
    3c96:	cf 92       	push	r12
    3c98:	0e 94 be 2b 	call	0x577c	; 0x577c <sprintf>
    3c9c:	f6 01       	movw	r30, r12
    3c9e:	01 90       	ld	r0, Z+
    3ca0:	00 20       	and	r0, r0
    3ca2:	e9 f7       	brne	.-6      	; 0x3c9e <calibrate_magnetometer+0x17a>
    3ca4:	31 97       	sbiw	r30, 0x01	; 1
    3ca6:	af 01       	movw	r20, r30
    3ca8:	4c 57       	subi	r20, 0x7C	; 124
    3caa:	53 40       	sbci	r21, 0x03	; 3
    3cac:	60 e0       	ldi	r22, 0x00	; 0
    3cae:	70 e0       	ldi	r23, 0x00	; 0
    3cb0:	c6 01       	movw	r24, r12
    3cb2:	0e 94 f1 26 	call	0x4de2	; 0x4de2 <UART_tx>
    3cb6:	f6 01       	movw	r30, r12
    3cb8:	25 2d       	mov	r18, r5
    3cba:	11 92       	st	Z+, r1
    3cbc:	2a 95       	dec	r18
    3cbe:	e9 f7       	brne	.-6      	; 0x3cba <calibrate_magnetometer+0x196>
    3cc0:	0f b6       	in	r0, 0x3f	; 63
    3cc2:	f8 94       	cli
    3cc4:	de bf       	out	0x3e, r29	; 62
    3cc6:	0f be       	out	0x3f, r0	; 63
    3cc8:	cd bf       	out	0x3d, r28	; 61
    3cca:	08 15       	cp	r16, r8
    3ccc:	19 05       	cpc	r17, r9
    3cce:	09 f0       	breq	.+2      	; 0x3cd2 <calibrate_magnetometer+0x1ae>
    3cd0:	b6 cf       	rjmp	.-148    	; 0x3c3e <calibrate_magnetometer+0x11a>
    3cd2:	ca 84       	ldd	r12, Y+10	; 0x0a
    3cd4:	db 84       	ldd	r13, Y+11	; 0x0b
    3cd6:	88 88       	ldd	r8, Y+16	; 0x10
    3cd8:	99 88       	ldd	r9, Y+17	; 0x11
    3cda:	c6 01       	movw	r24, r12
    3cdc:	88 0d       	add	r24, r8
    3cde:	99 1d       	adc	r25, r9
    3ce0:	99 23       	and	r25, r25
    3ce2:	0c f4       	brge	.+2      	; 0x3ce6 <calibrate_magnetometer+0x1c2>
    3ce4:	01 96       	adiw	r24, 0x01	; 1
    3ce6:	95 95       	asr	r25
    3ce8:	87 95       	ror	r24
    3cea:	ef ec       	ldi	r30, 0xCF	; 207
    3cec:	f3 e0       	ldi	r31, 0x03	; 3
    3cee:	80 83       	st	Z, r24
    3cf0:	91 83       	std	Z+1, r25	; 0x01
    3cf2:	ec 84       	ldd	r14, Y+12	; 0x0c
    3cf4:	fd 84       	ldd	r15, Y+13	; 0x0d
    3cf6:	6a 88       	ldd	r6, Y+18	; 0x12
    3cf8:	7b 88       	ldd	r7, Y+19	; 0x13
    3cfa:	97 01       	movw	r18, r14
    3cfc:	26 0d       	add	r18, r6
    3cfe:	37 1d       	adc	r19, r7
    3d00:	33 23       	and	r19, r19
    3d02:	14 f4       	brge	.+4      	; 0x3d08 <calibrate_magnetometer+0x1e4>
    3d04:	2f 5f       	subi	r18, 0xFF	; 255
    3d06:	3f 4f       	sbci	r19, 0xFF	; 255
    3d08:	35 95       	asr	r19
    3d0a:	27 95       	ror	r18
    3d0c:	30 93 d2 03 	sts	0x03D2, r19	; 0x8003d2 <hard_iron_correction+0x3>
    3d10:	20 93 d1 03 	sts	0x03D1, r18	; 0x8003d1 <hard_iron_correction+0x2>
    3d14:	4e 84       	ldd	r4, Y+14	; 0x0e
    3d16:	5f 84       	ldd	r5, Y+15	; 0x0f
    3d18:	2c 88       	ldd	r2, Y+20	; 0x14
    3d1a:	3d 88       	ldd	r3, Y+21	; 0x15
    3d1c:	92 01       	movw	r18, r4
    3d1e:	22 0d       	add	r18, r2
    3d20:	33 1d       	adc	r19, r3
    3d22:	33 23       	and	r19, r19
    3d24:	14 f4       	brge	.+4      	; 0x3d2a <calibrate_magnetometer+0x206>
    3d26:	2f 5f       	subi	r18, 0xFF	; 255
    3d28:	3f 4f       	sbci	r19, 0xFF	; 255
    3d2a:	35 95       	asr	r19
    3d2c:	27 95       	ror	r18
    3d2e:	30 93 d4 03 	sts	0x03D4, r19	; 0x8003d4 <hard_iron_correction+0x5>
    3d32:	20 93 d3 03 	sts	0x03D3, r18	; 0x8003d3 <hard_iron_correction+0x4>
    3d36:	9f 93       	push	r25
    3d38:	8f 93       	push	r24
    3d3a:	83 ec       	ldi	r24, 0xC3	; 195
    3d3c:	91 e0       	ldi	r25, 0x01	; 1
    3d3e:	9f 93       	push	r25
    3d40:	8f 93       	push	r24
    3d42:	0c e7       	ldi	r16, 0x7C	; 124
    3d44:	13 e0       	ldi	r17, 0x03	; 3
    3d46:	1f 93       	push	r17
    3d48:	0f 93       	push	r16
    3d4a:	0e 94 be 2b 	call	0x577c	; 0x577c <sprintf>
    3d4e:	f8 01       	movw	r30, r16
    3d50:	01 90       	ld	r0, Z+
    3d52:	00 20       	and	r0, r0
    3d54:	e9 f7       	brne	.-6      	; 0x3d50 <calibrate_magnetometer+0x22c>
    3d56:	31 97       	sbiw	r30, 0x01	; 1
    3d58:	af 01       	movw	r20, r30
    3d5a:	4c 57       	subi	r20, 0x7C	; 124
    3d5c:	53 40       	sbci	r21, 0x03	; 3
    3d5e:	60 e0       	ldi	r22, 0x00	; 0
    3d60:	70 e0       	ldi	r23, 0x00	; 0
    3d62:	c8 01       	movw	r24, r16
    3d64:	0e 94 f1 26 	call	0x4de2	; 0x4de2 <UART_tx>
    3d68:	d8 01       	movw	r26, r16
    3d6a:	e2 e3       	ldi	r30, 0x32	; 50
    3d6c:	1d 92       	st	X+, r1
    3d6e:	ea 95       	dec	r30
    3d70:	e9 f7       	brne	.-6      	; 0x3d6c <calibrate_magnetometer+0x248>
    3d72:	0f 2e       	mov	r0, r31
    3d74:	ff ec       	ldi	r31, 0xCF	; 207
    3d76:	af 2e       	mov	r10, r31
    3d78:	f3 e0       	ldi	r31, 0x03	; 3
    3d7a:	bf 2e       	mov	r11, r31
    3d7c:	f0 2d       	mov	r31, r0
    3d7e:	d5 01       	movw	r26, r10
    3d80:	13 96       	adiw	r26, 0x03	; 3
    3d82:	8c 91       	ld	r24, X
    3d84:	13 97       	sbiw	r26, 0x03	; 3
    3d86:	8f 93       	push	r24
    3d88:	12 96       	adiw	r26, 0x02	; 2
    3d8a:	8c 91       	ld	r24, X
    3d8c:	8f 93       	push	r24
    3d8e:	89 ed       	ldi	r24, 0xD9	; 217
    3d90:	91 e0       	ldi	r25, 0x01	; 1
    3d92:	9f 93       	push	r25
    3d94:	8f 93       	push	r24
    3d96:	1f 93       	push	r17
    3d98:	0f 93       	push	r16
    3d9a:	0e 94 be 2b 	call	0x577c	; 0x577c <sprintf>
    3d9e:	f8 01       	movw	r30, r16
    3da0:	01 90       	ld	r0, Z+
    3da2:	00 20       	and	r0, r0
    3da4:	e9 f7       	brne	.-6      	; 0x3da0 <calibrate_magnetometer+0x27c>
    3da6:	31 97       	sbiw	r30, 0x01	; 1
    3da8:	af 01       	movw	r20, r30
    3daa:	4c 57       	subi	r20, 0x7C	; 124
    3dac:	53 40       	sbci	r21, 0x03	; 3
    3dae:	60 e0       	ldi	r22, 0x00	; 0
    3db0:	70 e0       	ldi	r23, 0x00	; 0
    3db2:	c8 01       	movw	r24, r16
    3db4:	0e 94 f1 26 	call	0x4de2	; 0x4de2 <UART_tx>
    3db8:	f8 01       	movw	r30, r16
    3dba:	22 e3       	ldi	r18, 0x32	; 50
    3dbc:	11 92       	st	Z+, r1
    3dbe:	2a 95       	dec	r18
    3dc0:	e9 f7       	brne	.-6      	; 0x3dbc <calibrate_magnetometer+0x298>
    3dc2:	d5 01       	movw	r26, r10
    3dc4:	15 96       	adiw	r26, 0x05	; 5
    3dc6:	8c 91       	ld	r24, X
    3dc8:	15 97       	sbiw	r26, 0x05	; 5
    3dca:	8f 93       	push	r24
    3dcc:	14 96       	adiw	r26, 0x04	; 4
    3dce:	8c 91       	ld	r24, X
    3dd0:	8f 93       	push	r24
    3dd2:	8f ee       	ldi	r24, 0xEF	; 239
    3dd4:	91 e0       	ldi	r25, 0x01	; 1
    3dd6:	9f 93       	push	r25
    3dd8:	8f 93       	push	r24
    3dda:	1f 93       	push	r17
    3ddc:	0f 93       	push	r16
    3dde:	0e 94 be 2b 	call	0x577c	; 0x577c <sprintf>
    3de2:	f8 01       	movw	r30, r16
    3de4:	01 90       	ld	r0, Z+
    3de6:	00 20       	and	r0, r0
    3de8:	e9 f7       	brne	.-6      	; 0x3de4 <calibrate_magnetometer+0x2c0>
    3dea:	31 97       	sbiw	r30, 0x01	; 1
    3dec:	af 01       	movw	r20, r30
    3dee:	4c 57       	subi	r20, 0x7C	; 124
    3df0:	53 40       	sbci	r21, 0x03	; 3
    3df2:	60 e0       	ldi	r22, 0x00	; 0
    3df4:	70 e0       	ldi	r23, 0x00	; 0
    3df6:	c8 01       	movw	r24, r16
    3df8:	0e 94 f1 26 	call	0x4de2	; 0x4de2 <UART_tx>
    3dfc:	f8 01       	movw	r30, r16
    3dfe:	22 e3       	ldi	r18, 0x32	; 50
    3e00:	11 92       	st	Z+, r1
    3e02:	2a 95       	dec	r18
    3e04:	e9 f7       	brne	.-6      	; 0x3e00 <calibrate_magnetometer+0x2dc>
    3e06:	c8 18       	sub	r12, r8
    3e08:	d9 08       	sbc	r13, r9
    3e0a:	b6 01       	movw	r22, r12
    3e0c:	0f b6       	in	r0, 0x3f	; 63
    3e0e:	f8 94       	cli
    3e10:	de bf       	out	0x3e, r29	; 62
    3e12:	0f be       	out	0x3f, r0	; 63
    3e14:	cd bf       	out	0x3d, r28	; 61
    3e16:	12 f4       	brpl	.+4      	; 0x3e1c <calibrate_magnetometer+0x2f8>
    3e18:	6f 5f       	subi	r22, 0xFF	; 255
    3e1a:	7f 4f       	sbci	r23, 0xFF	; 255
    3e1c:	75 95       	asr	r23
    3e1e:	67 95       	ror	r22
    3e20:	07 2e       	mov	r0, r23
    3e22:	00 0c       	add	r0, r0
    3e24:	88 0b       	sbc	r24, r24
    3e26:	99 0b       	sbc	r25, r25
    3e28:	0e 94 9e 29 	call	0x533c	; 0x533c <__floatsisf>
    3e2c:	4b 01       	movw	r8, r22
    3e2e:	5c 01       	movw	r10, r24
    3e30:	6e 8b       	std	Y+22, r22	; 0x16
    3e32:	7f 8b       	std	Y+23, r23	; 0x17
    3e34:	88 8f       	std	Y+24, r24	; 0x18
    3e36:	99 8f       	std	Y+25, r25	; 0x19
    3e38:	e6 18       	sub	r14, r6
    3e3a:	f7 08       	sbc	r15, r7
    3e3c:	b7 01       	movw	r22, r14
    3e3e:	12 f4       	brpl	.+4      	; 0x3e44 <calibrate_magnetometer+0x320>
    3e40:	6f 5f       	subi	r22, 0xFF	; 255
    3e42:	7f 4f       	sbci	r23, 0xFF	; 255
    3e44:	75 95       	asr	r23
    3e46:	67 95       	ror	r22
    3e48:	07 2e       	mov	r0, r23
    3e4a:	00 0c       	add	r0, r0
    3e4c:	88 0b       	sbc	r24, r24
    3e4e:	99 0b       	sbc	r25, r25
    3e50:	0e 94 9e 29 	call	0x533c	; 0x533c <__floatsisf>
    3e54:	6a 8f       	std	Y+26, r22	; 0x1a
    3e56:	7b 8f       	std	Y+27, r23	; 0x1b
    3e58:	8c 8f       	std	Y+28, r24	; 0x1c
    3e5a:	9d 8f       	std	Y+29, r25	; 0x1d
    3e5c:	42 18       	sub	r4, r2
    3e5e:	53 08       	sbc	r5, r3
    3e60:	b2 01       	movw	r22, r4
    3e62:	12 f4       	brpl	.+4      	; 0x3e68 <calibrate_magnetometer+0x344>
    3e64:	6f 5f       	subi	r22, 0xFF	; 255
    3e66:	7f 4f       	sbci	r23, 0xFF	; 255
    3e68:	75 95       	asr	r23
    3e6a:	67 95       	ror	r22
    3e6c:	07 2e       	mov	r0, r23
    3e6e:	00 0c       	add	r0, r0
    3e70:	88 0b       	sbc	r24, r24
    3e72:	99 0b       	sbc	r25, r25
    3e74:	0e 94 9e 29 	call	0x533c	; 0x533c <__floatsisf>
    3e78:	6e 8f       	std	Y+30, r22	; 0x1e
    3e7a:	7f 8f       	std	Y+31, r23	; 0x1f
    3e7c:	88 a3       	std	Y+32, r24	; 0x20
    3e7e:	99 a3       	std	Y+33, r25	; 0x21
    3e80:	0f 2e       	mov	r0, r31
    3e82:	fc e7       	ldi	r31, 0x7C	; 124
    3e84:	ef 2e       	mov	r14, r31
    3e86:	f3 e0       	ldi	r31, 0x03	; 3
    3e88:	ff 2e       	mov	r15, r31
    3e8a:	f0 2d       	mov	r31, r0
    3e8c:	d7 01       	movw	r26, r14
    3e8e:	0d 90       	ld	r0, X+
    3e90:	00 20       	and	r0, r0
    3e92:	e9 f7       	brne	.-6      	; 0x3e8e <calibrate_magnetometer+0x36a>
    3e94:	11 97       	sbiw	r26, 0x01	; 1
    3e96:	84 e1       	ldi	r24, 0x14	; 20
    3e98:	e9 e0       	ldi	r30, 0x09	; 9
    3e9a:	f2 e0       	ldi	r31, 0x02	; 2
    3e9c:	01 90       	ld	r0, Z+
    3e9e:	0d 92       	st	X+, r0
    3ea0:	8a 95       	dec	r24
    3ea2:	e1 f7       	brne	.-8      	; 0x3e9c <calibrate_magnetometer+0x378>
    3ea4:	08 e6       	ldi	r16, 0x68	; 104
    3ea6:	13 e0       	ldi	r17, 0x03	; 3
    3ea8:	25 e0       	ldi	r18, 0x05	; 5
    3eaa:	45 e0       	ldi	r20, 0x05	; 5
    3eac:	c5 01       	movw	r24, r10
    3eae:	b4 01       	movw	r22, r8
    3eb0:	0e 94 7d 2b 	call	0x56fa	; 0x56fa <dtostrf>
    3eb4:	bc 01       	movw	r22, r24
    3eb6:	c7 01       	movw	r24, r14
    3eb8:	0e 94 b3 2b 	call	0x5766	; 0x5766 <strcat>
    3ebc:	f7 01       	movw	r30, r14
    3ebe:	01 90       	ld	r0, Z+
    3ec0:	00 20       	and	r0, r0
    3ec2:	e9 f7       	brne	.-6      	; 0x3ebe <calibrate_magnetometer+0x39a>
    3ec4:	31 97       	sbiw	r30, 0x01	; 1
    3ec6:	0f 2e       	mov	r0, r31
    3ec8:	fd e0       	ldi	r31, 0x0D	; 13
    3eca:	2f 2e       	mov	r2, r31
    3ecc:	fa e0       	ldi	r31, 0x0A	; 10
    3ece:	3f 2e       	mov	r3, r31
    3ed0:	f0 2d       	mov	r31, r0
    3ed2:	31 82       	std	Z+1, r3	; 0x01
    3ed4:	20 82       	st	Z, r2
    3ed6:	12 82       	std	Z+2, r1	; 0x02
    3ed8:	f7 01       	movw	r30, r14
    3eda:	01 90       	ld	r0, Z+
    3edc:	00 20       	and	r0, r0
    3ede:	e9 f7       	brne	.-6      	; 0x3eda <calibrate_magnetometer+0x3b6>
    3ee0:	31 97       	sbiw	r30, 0x01	; 1
    3ee2:	af 01       	movw	r20, r30
    3ee4:	4c 57       	subi	r20, 0x7C	; 124
    3ee6:	53 40       	sbci	r21, 0x03	; 3
    3ee8:	60 e0       	ldi	r22, 0x00	; 0
    3eea:	70 e0       	ldi	r23, 0x00	; 0
    3eec:	c7 01       	movw	r24, r14
    3eee:	0e 94 f1 26 	call	0x4de2	; 0x4de2 <UART_tx>
    3ef2:	0f 2e       	mov	r0, r31
    3ef4:	f2 e3       	ldi	r31, 0x32	; 50
    3ef6:	df 2e       	mov	r13, r31
    3ef8:	f0 2d       	mov	r31, r0
    3efa:	d7 01       	movw	r26, r14
    3efc:	ed 2d       	mov	r30, r13
    3efe:	1d 92       	st	X+, r1
    3f00:	ea 95       	dec	r30
    3f02:	e9 f7       	brne	.-6      	; 0x3efe <calibrate_magnetometer+0x3da>
    3f04:	38 01       	movw	r6, r16
    3f06:	0f 2e       	mov	r0, r31
    3f08:	f4 e1       	ldi	r31, 0x14	; 20
    3f0a:	cf 2e       	mov	r12, r31
    3f0c:	f0 2d       	mov	r31, r0
    3f0e:	d8 01       	movw	r26, r16
    3f10:	ec 2d       	mov	r30, r12
    3f12:	1d 92       	st	X+, r1
    3f14:	ea 95       	dec	r30
    3f16:	e9 f7       	brne	.-6      	; 0x3f12 <calibrate_magnetometer+0x3ee>
    3f18:	d7 01       	movw	r26, r14
    3f1a:	0d 90       	ld	r0, X+
    3f1c:	00 20       	and	r0, r0
    3f1e:	e9 f7       	brne	.-6      	; 0x3f1a <calibrate_magnetometer+0x3f6>
    3f20:	11 97       	sbiw	r26, 0x01	; 1
    3f22:	84 e1       	ldi	r24, 0x14	; 20
    3f24:	e1 e2       	ldi	r30, 0x21	; 33
    3f26:	f2 e0       	ldi	r31, 0x02	; 2
    3f28:	01 90       	ld	r0, Z+
    3f2a:	0d 92       	st	X+, r0
    3f2c:	8a 95       	dec	r24
    3f2e:	e1 f7       	brne	.-8      	; 0x3f28 <calibrate_magnetometer+0x404>
    3f30:	6a 8d       	ldd	r22, Y+26	; 0x1a
    3f32:	7b 8d       	ldd	r23, Y+27	; 0x1b
    3f34:	8c 8d       	ldd	r24, Y+28	; 0x1c
    3f36:	9d 8d       	ldd	r25, Y+29	; 0x1d
    3f38:	25 e0       	ldi	r18, 0x05	; 5
    3f3a:	45 e0       	ldi	r20, 0x05	; 5
    3f3c:	0e 94 7d 2b 	call	0x56fa	; 0x56fa <dtostrf>
    3f40:	bc 01       	movw	r22, r24
    3f42:	c7 01       	movw	r24, r14
    3f44:	0e 94 b3 2b 	call	0x5766	; 0x5766 <strcat>
    3f48:	f7 01       	movw	r30, r14
    3f4a:	01 90       	ld	r0, Z+
    3f4c:	00 20       	and	r0, r0
    3f4e:	e9 f7       	brne	.-6      	; 0x3f4a <calibrate_magnetometer+0x426>
    3f50:	31 97       	sbiw	r30, 0x01	; 1
    3f52:	31 82       	std	Z+1, r3	; 0x01
    3f54:	20 82       	st	Z, r2
    3f56:	12 82       	std	Z+2, r1	; 0x02
    3f58:	f7 01       	movw	r30, r14
    3f5a:	01 90       	ld	r0, Z+
    3f5c:	00 20       	and	r0, r0
    3f5e:	e9 f7       	brne	.-6      	; 0x3f5a <calibrate_magnetometer+0x436>
    3f60:	31 97       	sbiw	r30, 0x01	; 1
    3f62:	af 01       	movw	r20, r30
    3f64:	4c 57       	subi	r20, 0x7C	; 124
    3f66:	53 40       	sbci	r21, 0x03	; 3
    3f68:	60 e0       	ldi	r22, 0x00	; 0
    3f6a:	70 e0       	ldi	r23, 0x00	; 0
    3f6c:	c7 01       	movw	r24, r14
    3f6e:	0e 94 f1 26 	call	0x4de2	; 0x4de2 <UART_tx>
    3f72:	d7 01       	movw	r26, r14
    3f74:	ed 2d       	mov	r30, r13
    3f76:	1d 92       	st	X+, r1
    3f78:	ea 95       	dec	r30
    3f7a:	e9 f7       	brne	.-6      	; 0x3f76 <calibrate_magnetometer+0x452>
    3f7c:	d8 01       	movw	r26, r16
    3f7e:	ec 2d       	mov	r30, r12
    3f80:	1d 92       	st	X+, r1
    3f82:	ea 95       	dec	r30
    3f84:	e9 f7       	brne	.-6      	; 0x3f80 <calibrate_magnetometer+0x45c>
    3f86:	d7 01       	movw	r26, r14
    3f88:	0d 90       	ld	r0, X+
    3f8a:	00 20       	and	r0, r0
    3f8c:	e9 f7       	brne	.-6      	; 0x3f88 <calibrate_magnetometer+0x464>
    3f8e:	11 97       	sbiw	r26, 0x01	; 1
    3f90:	84 e1       	ldi	r24, 0x14	; 20
    3f92:	e9 e3       	ldi	r30, 0x39	; 57
    3f94:	f2 e0       	ldi	r31, 0x02	; 2
    3f96:	01 90       	ld	r0, Z+
    3f98:	0d 92       	st	X+, r0
    3f9a:	8a 95       	dec	r24
    3f9c:	e1 f7       	brne	.-8      	; 0x3f96 <calibrate_magnetometer+0x472>
    3f9e:	6e 8d       	ldd	r22, Y+30	; 0x1e
    3fa0:	7f 8d       	ldd	r23, Y+31	; 0x1f
    3fa2:	88 a1       	ldd	r24, Y+32	; 0x20
    3fa4:	99 a1       	ldd	r25, Y+33	; 0x21
    3fa6:	25 e0       	ldi	r18, 0x05	; 5
    3fa8:	45 e0       	ldi	r20, 0x05	; 5
    3faa:	0e 94 7d 2b 	call	0x56fa	; 0x56fa <dtostrf>
    3fae:	bc 01       	movw	r22, r24
    3fb0:	c7 01       	movw	r24, r14
    3fb2:	0e 94 b3 2b 	call	0x5766	; 0x5766 <strcat>
    3fb6:	f7 01       	movw	r30, r14
    3fb8:	01 90       	ld	r0, Z+
    3fba:	00 20       	and	r0, r0
    3fbc:	e9 f7       	brne	.-6      	; 0x3fb8 <calibrate_magnetometer+0x494>
    3fbe:	31 97       	sbiw	r30, 0x01	; 1
    3fc0:	31 82       	std	Z+1, r3	; 0x01
    3fc2:	20 82       	st	Z, r2
    3fc4:	12 82       	std	Z+2, r1	; 0x02
    3fc6:	f7 01       	movw	r30, r14
    3fc8:	01 90       	ld	r0, Z+
    3fca:	00 20       	and	r0, r0
    3fcc:	e9 f7       	brne	.-6      	; 0x3fc8 <calibrate_magnetometer+0x4a4>
    3fce:	31 97       	sbiw	r30, 0x01	; 1
    3fd0:	af 01       	movw	r20, r30
    3fd2:	4c 57       	subi	r20, 0x7C	; 124
    3fd4:	53 40       	sbci	r21, 0x03	; 3
    3fd6:	60 e0       	ldi	r22, 0x00	; 0
    3fd8:	70 e0       	ldi	r23, 0x00	; 0
    3fda:	c7 01       	movw	r24, r14
    3fdc:	0e 94 f1 26 	call	0x4de2	; 0x4de2 <UART_tx>
    3fe0:	d7 01       	movw	r26, r14
    3fe2:	ed 2d       	mov	r30, r13
    3fe4:	1d 92       	st	X+, r1
    3fe6:	ea 95       	dec	r30
    3fe8:	e9 f7       	brne	.-6      	; 0x3fe4 <calibrate_magnetometer+0x4c0>
    3fea:	d8 01       	movw	r26, r16
    3fec:	ec 2d       	mov	r30, r12
    3fee:	1d 92       	st	X+, r1
    3ff0:	ea 95       	dec	r30
    3ff2:	e9 f7       	brne	.-6      	; 0x3fee <calibrate_magnetometer+0x4ca>
    3ff4:	ce 01       	movw	r24, r28
    3ff6:	46 96       	adiw	r24, 0x16	; 22
    3ff8:	0e 94 ba 1c 	call	0x3974	; 0x3974 <scale_magnetometer>
    3ffc:	d7 01       	movw	r26, r14
    3ffe:	0d 90       	ld	r0, X+
    4000:	00 20       	and	r0, r0
    4002:	e9 f7       	brne	.-6      	; 0x3ffe <calibrate_magnetometer+0x4da>
    4004:	11 97       	sbiw	r26, 0x01	; 1
    4006:	88 e1       	ldi	r24, 0x18	; 24
    4008:	e5 e0       	ldi	r30, 0x05	; 5
    400a:	f2 e0       	ldi	r31, 0x02	; 2
    400c:	01 90       	ld	r0, Z+
    400e:	0d 92       	st	X+, r0
    4010:	8a 95       	dec	r24
    4012:	e1 f7       	brne	.-8      	; 0x400c <calibrate_magnetometer+0x4e8>
    4014:	6e 89       	ldd	r22, Y+22	; 0x16
    4016:	7f 89       	ldd	r23, Y+23	; 0x17
    4018:	88 8d       	ldd	r24, Y+24	; 0x18
    401a:	99 8d       	ldd	r25, Y+25	; 0x19
    401c:	25 e0       	ldi	r18, 0x05	; 5
    401e:	45 e0       	ldi	r20, 0x05	; 5
    4020:	0e 94 7d 2b 	call	0x56fa	; 0x56fa <dtostrf>
    4024:	bc 01       	movw	r22, r24
    4026:	c7 01       	movw	r24, r14
    4028:	0e 94 b3 2b 	call	0x5766	; 0x5766 <strcat>
    402c:	f7 01       	movw	r30, r14
    402e:	01 90       	ld	r0, Z+
    4030:	00 20       	and	r0, r0
    4032:	e9 f7       	brne	.-6      	; 0x402e <calibrate_magnetometer+0x50a>
    4034:	31 97       	sbiw	r30, 0x01	; 1
    4036:	31 82       	std	Z+1, r3	; 0x01
    4038:	20 82       	st	Z, r2
    403a:	12 82       	std	Z+2, r1	; 0x02
    403c:	f7 01       	movw	r30, r14
    403e:	01 90       	ld	r0, Z+
    4040:	00 20       	and	r0, r0
    4042:	e9 f7       	brne	.-6      	; 0x403e <calibrate_magnetometer+0x51a>
    4044:	31 97       	sbiw	r30, 0x01	; 1
    4046:	af 01       	movw	r20, r30
    4048:	4c 57       	subi	r20, 0x7C	; 124
    404a:	53 40       	sbci	r21, 0x03	; 3
    404c:	60 e0       	ldi	r22, 0x00	; 0
    404e:	70 e0       	ldi	r23, 0x00	; 0
    4050:	c7 01       	movw	r24, r14
    4052:	0e 94 f1 26 	call	0x4de2	; 0x4de2 <UART_tx>
    4056:	d7 01       	movw	r26, r14
    4058:	ed 2d       	mov	r30, r13
    405a:	1d 92       	st	X+, r1
    405c:	ea 95       	dec	r30
    405e:	e9 f7       	brne	.-6      	; 0x405a <calibrate_magnetometer+0x536>
    4060:	d8 01       	movw	r26, r16
    4062:	ec 2d       	mov	r30, r12
    4064:	1d 92       	st	X+, r1
    4066:	ea 95       	dec	r30
    4068:	e9 f7       	brne	.-6      	; 0x4064 <calibrate_magnetometer+0x540>
    406a:	d7 01       	movw	r26, r14
    406c:	0d 90       	ld	r0, X+
    406e:	00 20       	and	r0, r0
    4070:	e9 f7       	brne	.-6      	; 0x406c <calibrate_magnetometer+0x548>
    4072:	11 97       	sbiw	r26, 0x01	; 1
    4074:	88 e1       	ldi	r24, 0x18	; 24
    4076:	ed e1       	ldi	r30, 0x1D	; 29
    4078:	f2 e0       	ldi	r31, 0x02	; 2
    407a:	01 90       	ld	r0, Z+
    407c:	0d 92       	st	X+, r0
    407e:	8a 95       	dec	r24
    4080:	e1 f7       	brne	.-8      	; 0x407a <calibrate_magnetometer+0x556>
    4082:	6a 8d       	ldd	r22, Y+26	; 0x1a
    4084:	7b 8d       	ldd	r23, Y+27	; 0x1b
    4086:	8c 8d       	ldd	r24, Y+28	; 0x1c
    4088:	9d 8d       	ldd	r25, Y+29	; 0x1d
    408a:	25 e0       	ldi	r18, 0x05	; 5
    408c:	45 e0       	ldi	r20, 0x05	; 5
    408e:	0e 94 7d 2b 	call	0x56fa	; 0x56fa <dtostrf>
    4092:	bc 01       	movw	r22, r24
    4094:	c7 01       	movw	r24, r14
    4096:	0e 94 b3 2b 	call	0x5766	; 0x5766 <strcat>
    409a:	f7 01       	movw	r30, r14
    409c:	01 90       	ld	r0, Z+
    409e:	00 20       	and	r0, r0
    40a0:	e9 f7       	brne	.-6      	; 0x409c <calibrate_magnetometer+0x578>
    40a2:	31 97       	sbiw	r30, 0x01	; 1
    40a4:	31 82       	std	Z+1, r3	; 0x01
    40a6:	20 82       	st	Z, r2
    40a8:	12 82       	std	Z+2, r1	; 0x02
    40aa:	f7 01       	movw	r30, r14
    40ac:	01 90       	ld	r0, Z+
    40ae:	00 20       	and	r0, r0
    40b0:	e9 f7       	brne	.-6      	; 0x40ac <calibrate_magnetometer+0x588>
    40b2:	31 97       	sbiw	r30, 0x01	; 1
    40b4:	af 01       	movw	r20, r30
    40b6:	4c 57       	subi	r20, 0x7C	; 124
    40b8:	53 40       	sbci	r21, 0x03	; 3
    40ba:	60 e0       	ldi	r22, 0x00	; 0
    40bc:	70 e0       	ldi	r23, 0x00	; 0
    40be:	c7 01       	movw	r24, r14
    40c0:	0e 94 f1 26 	call	0x4de2	; 0x4de2 <UART_tx>
    40c4:	d7 01       	movw	r26, r14
    40c6:	ed 2d       	mov	r30, r13
    40c8:	1d 92       	st	X+, r1
    40ca:	ea 95       	dec	r30
    40cc:	e9 f7       	brne	.-6      	; 0x40c8 <calibrate_magnetometer+0x5a4>
    40ce:	d8 01       	movw	r26, r16
    40d0:	ec 2d       	mov	r30, r12
    40d2:	1d 92       	st	X+, r1
    40d4:	ea 95       	dec	r30
    40d6:	e9 f7       	brne	.-6      	; 0x40d2 <calibrate_magnetometer+0x5ae>
    40d8:	d7 01       	movw	r26, r14
    40da:	0d 90       	ld	r0, X+
    40dc:	00 20       	and	r0, r0
    40de:	e9 f7       	brne	.-6      	; 0x40da <calibrate_magnetometer+0x5b6>
    40e0:	11 97       	sbiw	r26, 0x01	; 1
    40e2:	88 e1       	ldi	r24, 0x18	; 24
    40e4:	e5 e3       	ldi	r30, 0x35	; 53
    40e6:	f2 e0       	ldi	r31, 0x02	; 2
    40e8:	01 90       	ld	r0, Z+
    40ea:	0d 92       	st	X+, r0
    40ec:	8a 95       	dec	r24
    40ee:	e1 f7       	brne	.-8      	; 0x40e8 <calibrate_magnetometer+0x5c4>
    40f0:	6e 8d       	ldd	r22, Y+30	; 0x1e
    40f2:	7f 8d       	ldd	r23, Y+31	; 0x1f
    40f4:	88 a1       	ldd	r24, Y+32	; 0x20
    40f6:	99 a1       	ldd	r25, Y+33	; 0x21
    40f8:	25 e0       	ldi	r18, 0x05	; 5
    40fa:	45 e0       	ldi	r20, 0x05	; 5
    40fc:	0e 94 7d 2b 	call	0x56fa	; 0x56fa <dtostrf>
    4100:	bc 01       	movw	r22, r24
    4102:	c7 01       	movw	r24, r14
    4104:	0e 94 b3 2b 	call	0x5766	; 0x5766 <strcat>
    4108:	f7 01       	movw	r30, r14
    410a:	01 90       	ld	r0, Z+
    410c:	00 20       	and	r0, r0
    410e:	e9 f7       	brne	.-6      	; 0x410a <calibrate_magnetometer+0x5e6>
    4110:	31 97       	sbiw	r30, 0x01	; 1
    4112:	31 82       	std	Z+1, r3	; 0x01
    4114:	20 82       	st	Z, r2
    4116:	12 82       	std	Z+2, r1	; 0x02
    4118:	f7 01       	movw	r30, r14
    411a:	01 90       	ld	r0, Z+
    411c:	00 20       	and	r0, r0
    411e:	e9 f7       	brne	.-6      	; 0x411a <calibrate_magnetometer+0x5f6>
    4120:	31 97       	sbiw	r30, 0x01	; 1
    4122:	af 01       	movw	r20, r30
    4124:	4c 57       	subi	r20, 0x7C	; 124
    4126:	53 40       	sbci	r21, 0x03	; 3
    4128:	60 e0       	ldi	r22, 0x00	; 0
    412a:	70 e0       	ldi	r23, 0x00	; 0
    412c:	c7 01       	movw	r24, r14
    412e:	0e 94 f1 26 	call	0x4de2	; 0x4de2 <UART_tx>
    4132:	d7 01       	movw	r26, r14
    4134:	ed 2d       	mov	r30, r13
    4136:	1d 92       	st	X+, r1
    4138:	ea 95       	dec	r30
    413a:	e9 f7       	brne	.-6      	; 0x4136 <calibrate_magnetometer+0x612>
    413c:	d8 01       	movw	r26, r16
    413e:	ec 2d       	mov	r30, r12
    4140:	1d 92       	st	X+, r1
    4142:	ea 95       	dec	r30
    4144:	e9 f7       	brne	.-6      	; 0x4140 <calibrate_magnetometer+0x61c>
    4146:	2a 8d       	ldd	r18, Y+26	; 0x1a
    4148:	3b 8d       	ldd	r19, Y+27	; 0x1b
    414a:	4c 8d       	ldd	r20, Y+28	; 0x1c
    414c:	5d 8d       	ldd	r21, Y+29	; 0x1d
    414e:	6e 89       	ldd	r22, Y+22	; 0x16
    4150:	7f 89       	ldd	r23, Y+23	; 0x17
    4152:	88 8d       	ldd	r24, Y+24	; 0x18
    4154:	99 8d       	ldd	r25, Y+25	; 0x19
    4156:	0e 94 2c 28 	call	0x5058	; 0x5058 <__addsf3>
    415a:	2e 8d       	ldd	r18, Y+30	; 0x1e
    415c:	3f 8d       	ldd	r19, Y+31	; 0x1f
    415e:	48 a1       	ldd	r20, Y+32	; 0x20
    4160:	59 a1       	ldd	r21, Y+33	; 0x21
    4162:	0e 94 2c 28 	call	0x5058	; 0x5058 <__addsf3>
    4166:	20 e0       	ldi	r18, 0x00	; 0
    4168:	30 e0       	ldi	r19, 0x00	; 0
    416a:	40 e4       	ldi	r20, 0x40	; 64
    416c:	50 e4       	ldi	r21, 0x40	; 64
    416e:	0e 94 2a 29 	call	0x5254	; 0x5254 <__divsf3>
    4172:	4b 01       	movw	r8, r22
    4174:	5c 01       	movw	r10, r24
    4176:	d7 01       	movw	r26, r14
    4178:	0d 90       	ld	r0, X+
    417a:	00 20       	and	r0, r0
    417c:	e9 f7       	brne	.-6      	; 0x4178 <calibrate_magnetometer+0x654>
    417e:	11 97       	sbiw	r26, 0x01	; 1
    4180:	88 e0       	ldi	r24, 0x08	; 8
    4182:	ed e4       	ldi	r30, 0x4D	; 77
    4184:	f2 e0       	ldi	r31, 0x02	; 2
    4186:	01 90       	ld	r0, Z+
    4188:	0d 92       	st	X+, r0
    418a:	8a 95       	dec	r24
    418c:	e1 f7       	brne	.-8      	; 0x4186 <calibrate_magnetometer+0x662>
    418e:	25 e0       	ldi	r18, 0x05	; 5
    4190:	45 e0       	ldi	r20, 0x05	; 5
    4192:	c5 01       	movw	r24, r10
    4194:	b4 01       	movw	r22, r8
    4196:	0e 94 7d 2b 	call	0x56fa	; 0x56fa <dtostrf>
    419a:	bc 01       	movw	r22, r24
    419c:	c7 01       	movw	r24, r14
    419e:	0e 94 b3 2b 	call	0x5766	; 0x5766 <strcat>
    41a2:	f7 01       	movw	r30, r14
    41a4:	01 90       	ld	r0, Z+
    41a6:	00 20       	and	r0, r0
    41a8:	e9 f7       	brne	.-6      	; 0x41a4 <calibrate_magnetometer+0x680>
    41aa:	31 97       	sbiw	r30, 0x01	; 1
    41ac:	31 82       	std	Z+1, r3	; 0x01
    41ae:	20 82       	st	Z, r2
    41b0:	12 82       	std	Z+2, r1	; 0x02
    41b2:	f7 01       	movw	r30, r14
    41b4:	01 90       	ld	r0, Z+
    41b6:	00 20       	and	r0, r0
    41b8:	e9 f7       	brne	.-6      	; 0x41b4 <calibrate_magnetometer+0x690>
    41ba:	31 97       	sbiw	r30, 0x01	; 1
    41bc:	af 01       	movw	r20, r30
    41be:	4c 57       	subi	r20, 0x7C	; 124
    41c0:	53 40       	sbci	r21, 0x03	; 3
    41c2:	60 e0       	ldi	r22, 0x00	; 0
    41c4:	70 e0       	ldi	r23, 0x00	; 0
    41c6:	c7 01       	movw	r24, r14
    41c8:	0e 94 f1 26 	call	0x4de2	; 0x4de2 <UART_tx>
    41cc:	d7 01       	movw	r26, r14
    41ce:	ed 2d       	mov	r30, r13
    41d0:	1d 92       	st	X+, r1
    41d2:	ea 95       	dec	r30
    41d4:	e9 f7       	brne	.-6      	; 0x41d0 <calibrate_magnetometer+0x6ac>
    41d6:	d8 01       	movw	r26, r16
    41d8:	ec 2d       	mov	r30, r12
    41da:	1d 92       	st	X+, r1
    41dc:	ea 95       	dec	r30
    41de:	e9 f7       	brne	.-6      	; 0x41da <calibrate_magnetometer+0x6b6>
    41e0:	2e 89       	ldd	r18, Y+22	; 0x16
    41e2:	3f 89       	ldd	r19, Y+23	; 0x17
    41e4:	48 8d       	ldd	r20, Y+24	; 0x18
    41e6:	59 8d       	ldd	r21, Y+25	; 0x19
    41e8:	c5 01       	movw	r24, r10
    41ea:	b4 01       	movw	r22, r8
    41ec:	0e 94 2a 29 	call	0x5254	; 0x5254 <__divsf3>
    41f0:	6a a3       	std	Y+34, r22	; 0x22
    41f2:	7b a3       	std	Y+35, r23	; 0x23
    41f4:	8c a3       	std	Y+36, r24	; 0x24
    41f6:	9d a3       	std	Y+37, r25	; 0x25
    41f8:	0f 2e       	mov	r0, r31
    41fa:	f3 ec       	ldi	r31, 0xC3	; 195
    41fc:	4f 2e       	mov	r4, r31
    41fe:	f3 e0       	ldi	r31, 0x03	; 3
    4200:	5f 2e       	mov	r5, r31
    4202:	f0 2d       	mov	r31, r0
    4204:	d2 01       	movw	r26, r4
    4206:	6d 93       	st	X+, r22
    4208:	7d 93       	st	X+, r23
    420a:	8d 93       	st	X+, r24
    420c:	9c 93       	st	X, r25
    420e:	13 97       	sbiw	r26, 0x03	; 3
    4210:	2a 8d       	ldd	r18, Y+26	; 0x1a
    4212:	3b 8d       	ldd	r19, Y+27	; 0x1b
    4214:	4c 8d       	ldd	r20, Y+28	; 0x1c
    4216:	5d 8d       	ldd	r21, Y+29	; 0x1d
    4218:	c5 01       	movw	r24, r10
    421a:	b4 01       	movw	r22, r8
    421c:	0e 94 2a 29 	call	0x5254	; 0x5254 <__divsf3>
    4220:	6e a3       	std	Y+38, r22	; 0x26
    4222:	7f a3       	std	Y+39, r23	; 0x27
    4224:	88 a7       	std	Y+40, r24	; 0x28
    4226:	99 a7       	std	Y+41, r25	; 0x29
    4228:	f2 01       	movw	r30, r4
    422a:	64 83       	std	Z+4, r22	; 0x04
    422c:	75 83       	std	Z+5, r23	; 0x05
    422e:	86 83       	std	Z+6, r24	; 0x06
    4230:	97 83       	std	Z+7, r25	; 0x07
    4232:	2e 8d       	ldd	r18, Y+30	; 0x1e
    4234:	3f 8d       	ldd	r19, Y+31	; 0x1f
    4236:	48 a1       	ldd	r20, Y+32	; 0x20
    4238:	59 a1       	ldd	r21, Y+33	; 0x21
    423a:	c5 01       	movw	r24, r10
    423c:	b4 01       	movw	r22, r8
    423e:	0e 94 2a 29 	call	0x5254	; 0x5254 <__divsf3>
    4242:	4b 01       	movw	r8, r22
    4244:	5c 01       	movw	r10, r24
    4246:	d2 01       	movw	r26, r4
    4248:	18 96       	adiw	r26, 0x08	; 8
    424a:	6d 93       	st	X+, r22
    424c:	7d 93       	st	X+, r23
    424e:	8d 93       	st	X+, r24
    4250:	9c 93       	st	X, r25
    4252:	1b 97       	sbiw	r26, 0x0b	; 11
    4254:	04 eb       	ldi	r16, 0xB4	; 180
    4256:	13 e0       	ldi	r17, 0x03	; 3
    4258:	f8 01       	movw	r30, r16
    425a:	60 81       	ld	r22, Z
    425c:	70 e0       	ldi	r23, 0x00	; 0
    425e:	80 e0       	ldi	r24, 0x00	; 0
    4260:	90 e0       	ldi	r25, 0x00	; 0
    4262:	0e 94 9c 29 	call	0x5338	; 0x5338 <__floatunsisf>
    4266:	20 e0       	ldi	r18, 0x00	; 0
    4268:	30 e0       	ldi	r19, 0x00	; 0
    426a:	40 e0       	ldi	r20, 0x00	; 0
    426c:	53 e4       	ldi	r21, 0x43	; 67
    426e:	0e 94 2b 28 	call	0x5056	; 0x5056 <__subsf3>
    4272:	20 e0       	ldi	r18, 0x00	; 0
    4274:	30 e0       	ldi	r19, 0x00	; 0
    4276:	40 e8       	ldi	r20, 0x80	; 128
    4278:	5b e3       	ldi	r21, 0x3B	; 59
    427a:	0e 94 b1 2a 	call	0x5562	; 0x5562 <__mulsf3>
    427e:	20 e0       	ldi	r18, 0x00	; 0
    4280:	30 e0       	ldi	r19, 0x00	; 0
    4282:	40 e8       	ldi	r20, 0x80	; 128
    4284:	5f e3       	ldi	r21, 0x3F	; 63
    4286:	0e 94 2c 28 	call	0x5058	; 0x5058 <__addsf3>
    428a:	2a a1       	ldd	r18, Y+34	; 0x22
    428c:	3b a1       	ldd	r19, Y+35	; 0x23
    428e:	4c a1       	ldd	r20, Y+36	; 0x24
    4290:	5d a1       	ldd	r21, Y+37	; 0x25
    4292:	0e 94 b1 2a 	call	0x5562	; 0x5562 <__mulsf3>
    4296:	6a a3       	std	Y+34, r22	; 0x22
    4298:	7b a3       	std	Y+35, r23	; 0x23
    429a:	8c a3       	std	Y+36, r24	; 0x24
    429c:	9d a3       	std	Y+37, r25	; 0x25
    429e:	a7 eb       	ldi	r26, 0xB7	; 183
    42a0:	b3 e0       	ldi	r27, 0x03	; 3
    42a2:	6d 93       	st	X+, r22
    42a4:	7d 93       	st	X+, r23
    42a6:	8d 93       	st	X+, r24
    42a8:	9c 93       	st	X, r25
    42aa:	13 97       	sbiw	r26, 0x03	; 3
    42ac:	f8 01       	movw	r30, r16
    42ae:	61 81       	ldd	r22, Z+1	; 0x01
    42b0:	70 e0       	ldi	r23, 0x00	; 0
    42b2:	80 e0       	ldi	r24, 0x00	; 0
    42b4:	90 e0       	ldi	r25, 0x00	; 0
    42b6:	0e 94 9c 29 	call	0x5338	; 0x5338 <__floatunsisf>
    42ba:	20 e0       	ldi	r18, 0x00	; 0
    42bc:	30 e0       	ldi	r19, 0x00	; 0
    42be:	40 e0       	ldi	r20, 0x00	; 0
    42c0:	53 e4       	ldi	r21, 0x43	; 67
    42c2:	0e 94 2b 28 	call	0x5056	; 0x5056 <__subsf3>
    42c6:	20 e0       	ldi	r18, 0x00	; 0
    42c8:	30 e0       	ldi	r19, 0x00	; 0
    42ca:	40 e8       	ldi	r20, 0x80	; 128
    42cc:	5b e3       	ldi	r21, 0x3B	; 59
    42ce:	0e 94 b1 2a 	call	0x5562	; 0x5562 <__mulsf3>
    42d2:	20 e0       	ldi	r18, 0x00	; 0
    42d4:	30 e0       	ldi	r19, 0x00	; 0
    42d6:	40 e8       	ldi	r20, 0x80	; 128
    42d8:	5f e3       	ldi	r21, 0x3F	; 63
    42da:	0e 94 2c 28 	call	0x5058	; 0x5058 <__addsf3>
    42de:	2e a1       	ldd	r18, Y+38	; 0x26
    42e0:	3f a1       	ldd	r19, Y+39	; 0x27
    42e2:	48 a5       	ldd	r20, Y+40	; 0x28
    42e4:	59 a5       	ldd	r21, Y+41	; 0x29
    42e6:	0e 94 b1 2a 	call	0x5562	; 0x5562 <__mulsf3>
    42ea:	60 93 bb 03 	sts	0x03BB, r22	; 0x8003bb <scale_times_soft_iron+0x4>
    42ee:	70 93 bc 03 	sts	0x03BC, r23	; 0x8003bc <scale_times_soft_iron+0x5>
    42f2:	80 93 bd 03 	sts	0x03BD, r24	; 0x8003bd <scale_times_soft_iron+0x6>
    42f6:	90 93 be 03 	sts	0x03BE, r25	; 0x8003be <scale_times_soft_iron+0x7>
    42fa:	d8 01       	movw	r26, r16
    42fc:	12 96       	adiw	r26, 0x02	; 2
    42fe:	6c 91       	ld	r22, X
    4300:	70 e0       	ldi	r23, 0x00	; 0
    4302:	80 e0       	ldi	r24, 0x00	; 0
    4304:	90 e0       	ldi	r25, 0x00	; 0
    4306:	0e 94 9c 29 	call	0x5338	; 0x5338 <__floatunsisf>
    430a:	20 e0       	ldi	r18, 0x00	; 0
    430c:	30 e0       	ldi	r19, 0x00	; 0
    430e:	40 e0       	ldi	r20, 0x00	; 0
    4310:	53 e4       	ldi	r21, 0x43	; 67
    4312:	0e 94 2b 28 	call	0x5056	; 0x5056 <__subsf3>
    4316:	20 e0       	ldi	r18, 0x00	; 0
    4318:	30 e0       	ldi	r19, 0x00	; 0
    431a:	40 e8       	ldi	r20, 0x80	; 128
    431c:	5b e3       	ldi	r21, 0x3B	; 59
    431e:	0e 94 b1 2a 	call	0x5562	; 0x5562 <__mulsf3>
    4322:	20 e0       	ldi	r18, 0x00	; 0
    4324:	30 e0       	ldi	r19, 0x00	; 0
    4326:	40 e8       	ldi	r20, 0x80	; 128
    4328:	5f e3       	ldi	r21, 0x3F	; 63
    432a:	0e 94 2c 28 	call	0x5058	; 0x5058 <__addsf3>
    432e:	a5 01       	movw	r20, r10
    4330:	94 01       	movw	r18, r8
    4332:	0e 94 b1 2a 	call	0x5562	; 0x5562 <__mulsf3>
    4336:	60 93 bf 03 	sts	0x03BF, r22	; 0x8003bf <scale_times_soft_iron+0x8>
    433a:	70 93 c0 03 	sts	0x03C0, r23	; 0x8003c0 <scale_times_soft_iron+0x9>
    433e:	80 93 c1 03 	sts	0x03C1, r24	; 0x8003c1 <scale_times_soft_iron+0xa>
    4342:	90 93 c2 03 	sts	0x03C2, r25	; 0x8003c2 <scale_times_soft_iron+0xb>
    4346:	d7 01       	movw	r26, r14
    4348:	0d 90       	ld	r0, X+
    434a:	00 20       	and	r0, r0
    434c:	e9 f7       	brne	.-6      	; 0x4348 <calibrate_magnetometer+0x824>
    434e:	11 97       	sbiw	r26, 0x01	; 1
    4350:	88 e1       	ldi	r24, 0x18	; 24
    4352:	e5 e0       	ldi	r30, 0x05	; 5
    4354:	f2 e0       	ldi	r31, 0x02	; 2
    4356:	01 90       	ld	r0, Z+
    4358:	0d 92       	st	X+, r0
    435a:	8a 95       	dec	r24
    435c:	e1 f7       	brne	.-8      	; 0x4356 <calibrate_magnetometer+0x832>
    435e:	83 01       	movw	r16, r6
    4360:	25 e0       	ldi	r18, 0x05	; 5
    4362:	45 e0       	ldi	r20, 0x05	; 5
    4364:	6a a1       	ldd	r22, Y+34	; 0x22
    4366:	7b a1       	ldd	r23, Y+35	; 0x23
    4368:	8c a1       	ldd	r24, Y+36	; 0x24
    436a:	9d a1       	ldd	r25, Y+37	; 0x25
    436c:	0e 94 7d 2b 	call	0x56fa	; 0x56fa <dtostrf>
    4370:	bc 01       	movw	r22, r24
    4372:	c7 01       	movw	r24, r14
    4374:	0e 94 b3 2b 	call	0x5766	; 0x5766 <strcat>
    4378:	f7 01       	movw	r30, r14
    437a:	01 90       	ld	r0, Z+
    437c:	00 20       	and	r0, r0
    437e:	e9 f7       	brne	.-6      	; 0x437a <calibrate_magnetometer+0x856>
    4380:	31 97       	sbiw	r30, 0x01	; 1
    4382:	31 82       	std	Z+1, r3	; 0x01
    4384:	20 82       	st	Z, r2
    4386:	12 82       	std	Z+2, r1	; 0x02
    4388:	f7 01       	movw	r30, r14
    438a:	01 90       	ld	r0, Z+
    438c:	00 20       	and	r0, r0
    438e:	e9 f7       	brne	.-6      	; 0x438a <calibrate_magnetometer+0x866>
    4390:	31 97       	sbiw	r30, 0x01	; 1
    4392:	af 01       	movw	r20, r30
    4394:	4c 57       	subi	r20, 0x7C	; 124
    4396:	53 40       	sbci	r21, 0x03	; 3
    4398:	60 e0       	ldi	r22, 0x00	; 0
    439a:	70 e0       	ldi	r23, 0x00	; 0
    439c:	c7 01       	movw	r24, r14
    439e:	0e 94 f1 26 	call	0x4de2	; 0x4de2 <UART_tx>
    43a2:	f7 01       	movw	r30, r14
    43a4:	2d 2d       	mov	r18, r13
    43a6:	11 92       	st	Z+, r1
    43a8:	2a 95       	dec	r18
    43aa:	e9 f7       	brne	.-6      	; 0x43a6 <calibrate_magnetometer+0x882>
    43ac:	d3 01       	movw	r26, r6
    43ae:	ec 2d       	mov	r30, r12
    43b0:	1d 92       	st	X+, r1
    43b2:	ea 95       	dec	r30
    43b4:	e9 f7       	brne	.-6      	; 0x43b0 <calibrate_magnetometer+0x88c>
    43b6:	d7 01       	movw	r26, r14
    43b8:	0d 90       	ld	r0, X+
    43ba:	00 20       	and	r0, r0
    43bc:	e9 f7       	brne	.-6      	; 0x43b8 <calibrate_magnetometer+0x894>
    43be:	11 97       	sbiw	r26, 0x01	; 1
    43c0:	88 e1       	ldi	r24, 0x18	; 24
    43c2:	ed e1       	ldi	r30, 0x1D	; 29
    43c4:	f2 e0       	ldi	r31, 0x02	; 2
    43c6:	01 90       	ld	r0, Z+
    43c8:	0d 92       	st	X+, r0
    43ca:	8a 95       	dec	r24
    43cc:	e1 f7       	brne	.-8      	; 0x43c6 <calibrate_magnetometer+0x8a2>
    43ce:	d2 01       	movw	r26, r4
    43d0:	14 96       	adiw	r26, 0x04	; 4
    43d2:	6d 91       	ld	r22, X+
    43d4:	7d 91       	ld	r23, X+
    43d6:	8d 91       	ld	r24, X+
    43d8:	9c 91       	ld	r25, X
    43da:	17 97       	sbiw	r26, 0x07	; 7
    43dc:	25 e0       	ldi	r18, 0x05	; 5
    43de:	45 e0       	ldi	r20, 0x05	; 5
    43e0:	0e 94 7d 2b 	call	0x56fa	; 0x56fa <dtostrf>
    43e4:	bc 01       	movw	r22, r24
    43e6:	c7 01       	movw	r24, r14
    43e8:	0e 94 b3 2b 	call	0x5766	; 0x5766 <strcat>
    43ec:	f7 01       	movw	r30, r14
    43ee:	01 90       	ld	r0, Z+
    43f0:	00 20       	and	r0, r0
    43f2:	e9 f7       	brne	.-6      	; 0x43ee <calibrate_magnetometer+0x8ca>
    43f4:	31 97       	sbiw	r30, 0x01	; 1
    43f6:	31 82       	std	Z+1, r3	; 0x01
    43f8:	20 82       	st	Z, r2
    43fa:	12 82       	std	Z+2, r1	; 0x02
    43fc:	f7 01       	movw	r30, r14
    43fe:	01 90       	ld	r0, Z+
    4400:	00 20       	and	r0, r0
    4402:	e9 f7       	brne	.-6      	; 0x43fe <calibrate_magnetometer+0x8da>
    4404:	31 97       	sbiw	r30, 0x01	; 1
    4406:	af 01       	movw	r20, r30
    4408:	4c 57       	subi	r20, 0x7C	; 124
    440a:	53 40       	sbci	r21, 0x03	; 3
    440c:	60 e0       	ldi	r22, 0x00	; 0
    440e:	70 e0       	ldi	r23, 0x00	; 0
    4410:	c7 01       	movw	r24, r14
    4412:	0e 94 f1 26 	call	0x4de2	; 0x4de2 <UART_tx>
    4416:	f7 01       	movw	r30, r14
    4418:	2d 2d       	mov	r18, r13
    441a:	11 92       	st	Z+, r1
    441c:	2a 95       	dec	r18
    441e:	e9 f7       	brne	.-6      	; 0x441a <calibrate_magnetometer+0x8f6>
    4420:	d3 01       	movw	r26, r6
    4422:	ec 2d       	mov	r30, r12
    4424:	1d 92       	st	X+, r1
    4426:	ea 95       	dec	r30
    4428:	e9 f7       	brne	.-6      	; 0x4424 <calibrate_magnetometer+0x900>
    442a:	d7 01       	movw	r26, r14
    442c:	0d 90       	ld	r0, X+
    442e:	00 20       	and	r0, r0
    4430:	e9 f7       	brne	.-6      	; 0x442c <calibrate_magnetometer+0x908>
    4432:	11 97       	sbiw	r26, 0x01	; 1
    4434:	88 e1       	ldi	r24, 0x18	; 24
    4436:	e5 e3       	ldi	r30, 0x35	; 53
    4438:	f2 e0       	ldi	r31, 0x02	; 2
    443a:	01 90       	ld	r0, Z+
    443c:	0d 92       	st	X+, r0
    443e:	8a 95       	dec	r24
    4440:	e1 f7       	brne	.-8      	; 0x443a <calibrate_magnetometer+0x916>
    4442:	d2 01       	movw	r26, r4
    4444:	18 96       	adiw	r26, 0x08	; 8
    4446:	6d 91       	ld	r22, X+
    4448:	7d 91       	ld	r23, X+
    444a:	8d 91       	ld	r24, X+
    444c:	9c 91       	ld	r25, X
    444e:	1b 97       	sbiw	r26, 0x0b	; 11
    4450:	25 e0       	ldi	r18, 0x05	; 5
    4452:	45 e0       	ldi	r20, 0x05	; 5
    4454:	0e 94 7d 2b 	call	0x56fa	; 0x56fa <dtostrf>
    4458:	bc 01       	movw	r22, r24
    445a:	c7 01       	movw	r24, r14
    445c:	0e 94 b3 2b 	call	0x5766	; 0x5766 <strcat>
    4460:	f7 01       	movw	r30, r14
    4462:	01 90       	ld	r0, Z+
    4464:	00 20       	and	r0, r0
    4466:	e9 f7       	brne	.-6      	; 0x4462 <calibrate_magnetometer+0x93e>
    4468:	31 97       	sbiw	r30, 0x01	; 1
    446a:	31 82       	std	Z+1, r3	; 0x01
    446c:	20 82       	st	Z, r2
    446e:	12 82       	std	Z+2, r1	; 0x02
    4470:	f7 01       	movw	r30, r14
    4472:	01 90       	ld	r0, Z+
    4474:	00 20       	and	r0, r0
    4476:	e9 f7       	brne	.-6      	; 0x4472 <calibrate_magnetometer+0x94e>
    4478:	31 97       	sbiw	r30, 0x01	; 1
    447a:	af 01       	movw	r20, r30
    447c:	4c 57       	subi	r20, 0x7C	; 124
    447e:	53 40       	sbci	r21, 0x03	; 3
    4480:	60 e0       	ldi	r22, 0x00	; 0
    4482:	70 e0       	ldi	r23, 0x00	; 0
    4484:	c7 01       	movw	r24, r14
    4486:	0e 94 f1 26 	call	0x4de2	; 0x4de2 <UART_tx>
    448a:	f7 01       	movw	r30, r14
    448c:	2d 2d       	mov	r18, r13
    448e:	11 92       	st	Z+, r1
    4490:	2a 95       	dec	r18
    4492:	e9 f7       	brne	.-6      	; 0x448e <calibrate_magnetometer+0x96a>
    4494:	d3 01       	movw	r26, r6
    4496:	1d 92       	st	X+, r1
    4498:	ca 94       	dec	r12
    449a:	e9 f7       	brne	.-6      	; 0x4496 <calibrate_magnetometer+0x972>
    449c:	81 e1       	ldi	r24, 0x11	; 17
    449e:	e5 e5       	ldi	r30, 0x55	; 85
    44a0:	f2 e0       	ldi	r31, 0x02	; 2
    44a2:	d7 01       	movw	r26, r14
    44a4:	01 90       	ld	r0, Z+
    44a6:	0d 92       	st	X+, r0
    44a8:	8a 95       	dec	r24
    44aa:	e1 f7       	brne	.-8      	; 0x44a4 <calibrate_magnetometer+0x980>
    44ac:	f7 01       	movw	r30, r14
    44ae:	01 90       	ld	r0, Z+
    44b0:	00 20       	and	r0, r0
    44b2:	e9 f7       	brne	.-6      	; 0x44ae <calibrate_magnetometer+0x98a>
    44b4:	31 97       	sbiw	r30, 0x01	; 1
    44b6:	af 01       	movw	r20, r30
    44b8:	4c 57       	subi	r20, 0x7C	; 124
    44ba:	53 40       	sbci	r21, 0x03	; 3
    44bc:	60 e0       	ldi	r22, 0x00	; 0
    44be:	70 e0       	ldi	r23, 0x00	; 0
    44c0:	c7 01       	movw	r24, r14
    44c2:	0e 94 f1 26 	call	0x4de2	; 0x4de2 <UART_tx>
    44c6:	f7 01       	movw	r30, r14
    44c8:	11 92       	st	Z+, r1
    44ca:	da 94       	dec	r13
    44cc:	e9 f7       	brne	.-6      	; 0x44c8 <calibrate_magnetometer+0x9a4>
    44ce:	80 e0       	ldi	r24, 0x00	; 0
    44d0:	a9 96       	adiw	r28, 0x29	; 41
    44d2:	0f b6       	in	r0, 0x3f	; 63
    44d4:	f8 94       	cli
    44d6:	de bf       	out	0x3e, r29	; 62
    44d8:	0f be       	out	0x3f, r0	; 63
    44da:	cd bf       	out	0x3d, r28	; 61
    44dc:	df 91       	pop	r29
    44de:	cf 91       	pop	r28
    44e0:	1f 91       	pop	r17
    44e2:	0f 91       	pop	r16
    44e4:	ff 90       	pop	r15
    44e6:	ef 90       	pop	r14
    44e8:	df 90       	pop	r13
    44ea:	cf 90       	pop	r12
    44ec:	bf 90       	pop	r11
    44ee:	af 90       	pop	r10
    44f0:	9f 90       	pop	r9
    44f2:	8f 90       	pop	r8
    44f4:	7f 90       	pop	r7
    44f6:	6f 90       	pop	r6
    44f8:	5f 90       	pop	r5
    44fa:	4f 90       	pop	r4
    44fc:	3f 90       	pop	r3
    44fe:	2f 90       	pop	r2
    4500:	08 95       	ret

00004502 <get_magnetometer_scale>:
    4502:	8f 92       	push	r8
    4504:	9f 92       	push	r9
    4506:	af 92       	push	r10
    4508:	bf 92       	push	r11
    450a:	cf 92       	push	r12
    450c:	df 92       	push	r13
    450e:	ef 92       	push	r14
    4510:	ff 92       	push	r15
    4512:	0f 93       	push	r16
    4514:	1f 93       	push	r17
    4516:	cf 93       	push	r28
    4518:	df 93       	push	r29
    451a:	cd b7       	in	r28, 0x3d	; 61
    451c:	de b7       	in	r29, 0x3e	; 62
    451e:	27 97       	sbiw	r28, 0x07	; 7
    4520:	0f b6       	in	r0, 0x3f	; 63
    4522:	f8 94       	cli
    4524:	de bf       	out	0x3e, r29	; 62
    4526:	0f be       	out	0x3f, r0	; 63
    4528:	cd bf       	out	0x3d, r28	; 61
    452a:	0f 2e       	mov	r0, r31
    452c:	f8 e1       	ldi	r31, 0x18	; 24
    452e:	bf 2e       	mov	r11, r31
    4530:	f0 2d       	mov	r31, r0
    4532:	b9 82       	std	Y+1, r11	; 0x01
    4534:	0f 2e       	mov	r0, r31
    4536:	fa e0       	ldi	r31, 0x0A	; 10
    4538:	9f 2e       	mov	r9, r31
    453a:	f0 2d       	mov	r31, r0
    453c:	9a 82       	std	Y+2, r9	; 0x02
    453e:	8f e0       	ldi	r24, 0x0F	; 15
    4540:	8b 83       	std	Y+3, r24	; 0x03
    4542:	63 e0       	ldi	r22, 0x03	; 3
    4544:	ce 01       	movw	r24, r28
    4546:	01 96       	adiw	r24, 0x01	; 1
    4548:	7c 01       	movw	r14, r24
    454a:	0e 94 0e 26 	call	0x4c1c	; 0x4c1c <TWI_Start_Transceiver_With_Data>
    454e:	0f 2e       	mov	r0, r31
    4550:	f3 e0       	ldi	r31, 0x03	; 3
    4552:	8f 2e       	mov	r8, r31
    4554:	f0 2d       	mov	r31, r0
    4556:	f7 01       	movw	r30, r14
    4558:	88 2d       	mov	r24, r8
    455a:	11 92       	st	Z+, r1
    455c:	8a 95       	dec	r24
    455e:	e9 f7       	brne	.-6      	; 0x455a <get_magnetometer_scale+0x58>
    4560:	b9 82       	std	Y+1, r11	; 0x01
    4562:	80 e1       	ldi	r24, 0x10	; 16
    4564:	8a 83       	std	Y+2, r24	; 0x02
    4566:	89 e1       	ldi	r24, 0x19	; 25
    4568:	8c 83       	std	Y+4, r24	; 0x04
    456a:	62 e0       	ldi	r22, 0x02	; 2
    456c:	c7 01       	movw	r24, r14
    456e:	0e 94 0e 26 	call	0x4c1c	; 0x4c1c <TWI_Start_Transceiver_With_Data>
    4572:	64 e0       	ldi	r22, 0x04	; 4
    4574:	ce 01       	movw	r24, r28
    4576:	04 96       	adiw	r24, 0x04	; 4
    4578:	0e 94 0e 26 	call	0x4c1c	; 0x4c1c <TWI_Start_Transceiver_With_Data>
    457c:	64 e0       	ldi	r22, 0x04	; 4
    457e:	ce 01       	movw	r24, r28
    4580:	04 96       	adiw	r24, 0x04	; 4
    4582:	0e 94 3b 26 	call	0x4c76	; 0x4c76 <TWI_Get_Data_From_Transceiver>
    4586:	8d 81       	ldd	r24, Y+5	; 0x05
    4588:	0f 2e       	mov	r0, r31
    458a:	f4 eb       	ldi	r31, 0xB4	; 180
    458c:	cf 2e       	mov	r12, r31
    458e:	f3 e0       	ldi	r31, 0x03	; 3
    4590:	df 2e       	mov	r13, r31
    4592:	f0 2d       	mov	r31, r0
    4594:	f6 01       	movw	r30, r12
    4596:	80 83       	st	Z, r24
    4598:	9e 81       	ldd	r25, Y+6	; 0x06
    459a:	91 83       	std	Z+1, r25	; 0x01
    459c:	9f 81       	ldd	r25, Y+7	; 0x07
    459e:	92 83       	std	Z+2, r25	; 0x02
    45a0:	1f 92       	push	r1
    45a2:	8f 93       	push	r24
    45a4:	86 e6       	ldi	r24, 0x66	; 102
    45a6:	92 e0       	ldi	r25, 0x02	; 2
    45a8:	9f 93       	push	r25
    45aa:	8f 93       	push	r24
    45ac:	0c e7       	ldi	r16, 0x7C	; 124
    45ae:	13 e0       	ldi	r17, 0x03	; 3
    45b0:	1f 93       	push	r17
    45b2:	0f 93       	push	r16
    45b4:	0e 94 be 2b 	call	0x577c	; 0x577c <sprintf>
    45b8:	f8 01       	movw	r30, r16
    45ba:	01 90       	ld	r0, Z+
    45bc:	00 20       	and	r0, r0
    45be:	e9 f7       	brne	.-6      	; 0x45ba <get_magnetometer_scale+0xb8>
    45c0:	31 97       	sbiw	r30, 0x01	; 1
    45c2:	af 01       	movw	r20, r30
    45c4:	4c 57       	subi	r20, 0x7C	; 124
    45c6:	53 40       	sbci	r21, 0x03	; 3
    45c8:	60 e0       	ldi	r22, 0x00	; 0
    45ca:	70 e0       	ldi	r23, 0x00	; 0
    45cc:	c8 01       	movw	r24, r16
    45ce:	0e 94 f1 26 	call	0x4de2	; 0x4de2 <UART_tx>
    45d2:	0f 2e       	mov	r0, r31
    45d4:	f2 e3       	ldi	r31, 0x32	; 50
    45d6:	af 2e       	mov	r10, r31
    45d8:	f0 2d       	mov	r31, r0
    45da:	f8 01       	movw	r30, r16
    45dc:	8a 2d       	mov	r24, r10
    45de:	11 92       	st	Z+, r1
    45e0:	8a 95       	dec	r24
    45e2:	e9 f7       	brne	.-6      	; 0x45de <get_magnetometer_scale+0xdc>
    45e4:	f6 01       	movw	r30, r12
    45e6:	81 81       	ldd	r24, Z+1	; 0x01
    45e8:	1f 92       	push	r1
    45ea:	8f 93       	push	r24
    45ec:	8b e7       	ldi	r24, 0x7B	; 123
    45ee:	92 e0       	ldi	r25, 0x02	; 2
    45f0:	9f 93       	push	r25
    45f2:	8f 93       	push	r24
    45f4:	1f 93       	push	r17
    45f6:	0f 93       	push	r16
    45f8:	0e 94 be 2b 	call	0x577c	; 0x577c <sprintf>
    45fc:	f8 01       	movw	r30, r16
    45fe:	01 90       	ld	r0, Z+
    4600:	00 20       	and	r0, r0
    4602:	e9 f7       	brne	.-6      	; 0x45fe <get_magnetometer_scale+0xfc>
    4604:	31 97       	sbiw	r30, 0x01	; 1
    4606:	af 01       	movw	r20, r30
    4608:	4c 57       	subi	r20, 0x7C	; 124
    460a:	53 40       	sbci	r21, 0x03	; 3
    460c:	60 e0       	ldi	r22, 0x00	; 0
    460e:	70 e0       	ldi	r23, 0x00	; 0
    4610:	c8 01       	movw	r24, r16
    4612:	0e 94 f1 26 	call	0x4de2	; 0x4de2 <UART_tx>
    4616:	f8 01       	movw	r30, r16
    4618:	8a 2d       	mov	r24, r10
    461a:	11 92       	st	Z+, r1
    461c:	8a 95       	dec	r24
    461e:	e9 f7       	brne	.-6      	; 0x461a <get_magnetometer_scale+0x118>
    4620:	f6 01       	movw	r30, r12
    4622:	82 81       	ldd	r24, Z+2	; 0x02
    4624:	1f 92       	push	r1
    4626:	8f 93       	push	r24
    4628:	80 e9       	ldi	r24, 0x90	; 144
    462a:	92 e0       	ldi	r25, 0x02	; 2
    462c:	9f 93       	push	r25
    462e:	8f 93       	push	r24
    4630:	1f 93       	push	r17
    4632:	0f 93       	push	r16
    4634:	0e 94 be 2b 	call	0x577c	; 0x577c <sprintf>
    4638:	f8 01       	movw	r30, r16
    463a:	01 90       	ld	r0, Z+
    463c:	00 20       	and	r0, r0
    463e:	e9 f7       	brne	.-6      	; 0x463a <get_magnetometer_scale+0x138>
    4640:	31 97       	sbiw	r30, 0x01	; 1
    4642:	af 01       	movw	r20, r30
    4644:	4c 57       	subi	r20, 0x7C	; 124
    4646:	53 40       	sbci	r21, 0x03	; 3
    4648:	60 e0       	ldi	r22, 0x00	; 0
    464a:	70 e0       	ldi	r23, 0x00	; 0
    464c:	c8 01       	movw	r24, r16
    464e:	0e 94 f1 26 	call	0x4de2	; 0x4de2 <UART_tx>
    4652:	f8 01       	movw	r30, r16
    4654:	11 92       	st	Z+, r1
    4656:	aa 94       	dec	r10
    4658:	e9 f7       	brne	.-6      	; 0x4654 <get_magnetometer_scale+0x152>
    465a:	f7 01       	movw	r30, r14
    465c:	11 92       	st	Z+, r1
    465e:	8a 94       	dec	r8
    4660:	e9 f7       	brne	.-6      	; 0x465c <get_magnetometer_scale+0x15a>
    4662:	b9 82       	std	Y+1, r11	; 0x01
    4664:	9a 82       	std	Y+2, r9	; 0x02
    4666:	63 e0       	ldi	r22, 0x03	; 3
    4668:	c7 01       	movw	r24, r14
    466a:	0e 94 0e 26 	call	0x4c1c	; 0x4c1c <TWI_Start_Transceiver_With_Data>
    466e:	87 ec       	ldi	r24, 0xC7	; 199
    4670:	90 e0       	ldi	r25, 0x00	; 0
    4672:	01 97       	sbiw	r24, 0x01	; 1
    4674:	f1 f7       	brne	.-4      	; 0x4672 <get_magnetometer_scale+0x170>
    4676:	00 c0       	rjmp	.+0      	; 0x4678 <get_magnetometer_scale+0x176>
    4678:	00 00       	nop
    467a:	0f b6       	in	r0, 0x3f	; 63
    467c:	f8 94       	cli
    467e:	de bf       	out	0x3e, r29	; 62
    4680:	0f be       	out	0x3f, r0	; 63
    4682:	cd bf       	out	0x3d, r28	; 61
    4684:	80 e0       	ldi	r24, 0x00	; 0
    4686:	27 96       	adiw	r28, 0x07	; 7
    4688:	0f b6       	in	r0, 0x3f	; 63
    468a:	f8 94       	cli
    468c:	de bf       	out	0x3e, r29	; 62
    468e:	0f be       	out	0x3f, r0	; 63
    4690:	cd bf       	out	0x3d, r28	; 61
    4692:	df 91       	pop	r29
    4694:	cf 91       	pop	r28
    4696:	1f 91       	pop	r17
    4698:	0f 91       	pop	r16
    469a:	ff 90       	pop	r15
    469c:	ef 90       	pop	r14
    469e:	df 90       	pop	r13
    46a0:	cf 90       	pop	r12
    46a2:	bf 90       	pop	r11
    46a4:	af 90       	pop	r10
    46a6:	9f 90       	pop	r9
    46a8:	8f 90       	pop	r8
    46aa:	08 95       	ret

000046ac <apply_magnetometer_scaling>:

Since we don't need to convert to Gauss or Tesla and we can bring scale upfront:
data in LSB = (raw - hard_iron) * scale * soft_iron
scale * soft_iron can be computed upfront and stored in variable scale_times_soft_iron
****************************************************************************/
void apply_magnetometer_scaling(int16_t* data_raw, float* data_calibrated){
    46ac:	cf 92       	push	r12
    46ae:	df 92       	push	r13
    46b0:	ef 92       	push	r14
    46b2:	ff 92       	push	r15
    46b4:	0f 93       	push	r16
    46b6:	1f 93       	push	r17
    46b8:	cf 93       	push	r28
    46ba:	df 93       	push	r29
    46bc:	6c 01       	movw	r12, r24
    46be:	eb 01       	movw	r28, r22
	data_calibrated[0] = (data_raw[0] - hard_iron_correction[0]) * scale_times_soft_iron[0];
    46c0:	0f 2e       	mov	r0, r31
    46c2:	ff ec       	ldi	r31, 0xCF	; 207
    46c4:	ef 2e       	mov	r14, r31
    46c6:	f3 e0       	ldi	r31, 0x03	; 3
    46c8:	ff 2e       	mov	r15, r31
    46ca:	f0 2d       	mov	r31, r0
    46cc:	fc 01       	movw	r30, r24
    46ce:	60 81       	ld	r22, Z
    46d0:	71 81       	ldd	r23, Z+1	; 0x01
    46d2:	f7 01       	movw	r30, r14
    46d4:	80 81       	ld	r24, Z
    46d6:	91 81       	ldd	r25, Z+1	; 0x01
    46d8:	68 1b       	sub	r22, r24
    46da:	79 0b       	sbc	r23, r25
    46dc:	07 2e       	mov	r0, r23
    46de:	00 0c       	add	r0, r0
    46e0:	88 0b       	sbc	r24, r24
    46e2:	99 0b       	sbc	r25, r25
    46e4:	0e 94 9e 29 	call	0x533c	; 0x533c <__floatsisf>
    46e8:	07 eb       	ldi	r16, 0xB7	; 183
    46ea:	13 e0       	ldi	r17, 0x03	; 3
    46ec:	f8 01       	movw	r30, r16
    46ee:	20 81       	ld	r18, Z
    46f0:	31 81       	ldd	r19, Z+1	; 0x01
    46f2:	42 81       	ldd	r20, Z+2	; 0x02
    46f4:	53 81       	ldd	r21, Z+3	; 0x03
    46f6:	0e 94 b1 2a 	call	0x5562	; 0x5562 <__mulsf3>
    46fa:	68 83       	st	Y, r22
    46fc:	79 83       	std	Y+1, r23	; 0x01
    46fe:	8a 83       	std	Y+2, r24	; 0x02
    4700:	9b 83       	std	Y+3, r25	; 0x03
	data_calibrated[1] = (data_raw[1] - hard_iron_correction[1]) * scale_times_soft_iron[1];
    4702:	f6 01       	movw	r30, r12
    4704:	62 81       	ldd	r22, Z+2	; 0x02
    4706:	73 81       	ldd	r23, Z+3	; 0x03
    4708:	f7 01       	movw	r30, r14
    470a:	82 81       	ldd	r24, Z+2	; 0x02
    470c:	93 81       	ldd	r25, Z+3	; 0x03
    470e:	68 1b       	sub	r22, r24
    4710:	79 0b       	sbc	r23, r25
    4712:	07 2e       	mov	r0, r23
    4714:	00 0c       	add	r0, r0
    4716:	88 0b       	sbc	r24, r24
    4718:	99 0b       	sbc	r25, r25
    471a:	0e 94 9e 29 	call	0x533c	; 0x533c <__floatsisf>
    471e:	f8 01       	movw	r30, r16
    4720:	24 81       	ldd	r18, Z+4	; 0x04
    4722:	35 81       	ldd	r19, Z+5	; 0x05
    4724:	46 81       	ldd	r20, Z+6	; 0x06
    4726:	57 81       	ldd	r21, Z+7	; 0x07
    4728:	0e 94 b1 2a 	call	0x5562	; 0x5562 <__mulsf3>
    472c:	6c 83       	std	Y+4, r22	; 0x04
    472e:	7d 83       	std	Y+5, r23	; 0x05
    4730:	8e 83       	std	Y+6, r24	; 0x06
    4732:	9f 83       	std	Y+7, r25	; 0x07
	data_calibrated[2] = (data_raw[2] - hard_iron_correction[2]) * scale_times_soft_iron[2];
    4734:	f6 01       	movw	r30, r12
    4736:	64 81       	ldd	r22, Z+4	; 0x04
    4738:	75 81       	ldd	r23, Z+5	; 0x05
    473a:	f7 01       	movw	r30, r14
    473c:	84 81       	ldd	r24, Z+4	; 0x04
    473e:	95 81       	ldd	r25, Z+5	; 0x05
    4740:	68 1b       	sub	r22, r24
    4742:	79 0b       	sbc	r23, r25
    4744:	07 2e       	mov	r0, r23
    4746:	00 0c       	add	r0, r0
    4748:	88 0b       	sbc	r24, r24
    474a:	99 0b       	sbc	r25, r25
    474c:	0e 94 9e 29 	call	0x533c	; 0x533c <__floatsisf>
    4750:	f8 01       	movw	r30, r16
    4752:	20 85       	ldd	r18, Z+8	; 0x08
    4754:	31 85       	ldd	r19, Z+9	; 0x09
    4756:	42 85       	ldd	r20, Z+10	; 0x0a
    4758:	53 85       	ldd	r21, Z+11	; 0x0b
    475a:	0e 94 b1 2a 	call	0x5562	; 0x5562 <__mulsf3>
    475e:	68 87       	std	Y+8, r22	; 0x08
    4760:	79 87       	std	Y+9, r23	; 0x09
    4762:	8a 87       	std	Y+10, r24	; 0x0a
    4764:	9b 87       	std	Y+11, r25	; 0x0b
}
    4766:	df 91       	pop	r29
    4768:	cf 91       	pop	r28
    476a:	1f 91       	pop	r17
    476c:	0f 91       	pop	r16
    476e:	ff 90       	pop	r15
    4770:	ef 90       	pop	r14
    4772:	df 90       	pop	r13
    4774:	cf 90       	pop	r12
    4776:	08 95       	ret

00004778 <TIMER_setup>:
/****************************************************************************
Sets up TIMER1 (16 bits) in normal mode at 1 s steps
****************************************************************************/
void TIMER_setup(){
	// not much setup is needed in order to run in normal mode
	TCCR1B |= 0x02; // select /8 prescaler and start timer
    4778:	e1 e8       	ldi	r30, 0x81	; 129
    477a:	f0 e0       	ldi	r31, 0x00	; 0
    477c:	80 81       	ld	r24, Z
    477e:	82 60       	ori	r24, 0x02	; 2
    4780:	80 83       	st	Z, r24
    4782:	08 95       	ret

00004784 <GPIO_setup_for_timing>:

/****************************************************************************
GPIO pin for debug timing purposes.
****************************************************************************/
void GPIO_setup_for_timing(){
	DDRB |= 1 << PORTB1;	
    4784:	21 9a       	sbi	0x04, 1	; 4
    4786:	08 95       	ret

00004788 <main>:

static char info[50];
static char floats[20];

int main(void)
{
    4788:	cf 93       	push	r28
    478a:	df 93       	push	r29
    478c:	cd b7       	in	r28, 0x3d	; 61
    478e:	de b7       	in	r29, 0x3e	; 62
    4790:	aa 97       	sbiw	r28, 0x2a	; 42
    4792:	0f b6       	in	r0, 0x3f	; 63
    4794:	f8 94       	cli
    4796:	de bf       	out	0x3e, r29	; 62
    4798:	0f be       	out	0x3f, r0	; 63
    479a:	cd bf       	out	0x3d, r28	; 61
	
	// Start I2C interface using provided library by microchip
	// in TWI_Master.h, TWI_TWBR is set as 0x02, which yields 400kHz on 8MHz C
	TWI_Master_Initialise();
    479c:	0e 94 04 26 	call	0x4c08	; 0x4c08 <TWI_Master_Initialise>
		
	// Initialise UART at 38.4kbaud, the highest baudrate given F_CPU = 8 MHz
	UART_initialise();
    47a0:	0e 94 dc 26 	call	0x4db8	; 0x4db8 <UART_initialise>
	
	// enable global interrupts such that the I2C and UART interfaces can operate
	sei();
    47a4:	78 94       	sei
	
	sprintf(info, "Please put the sensor down on a flat surface\r\n");
    47a6:	0c e7       	ldi	r16, 0x7C	; 124
    47a8:	13 e0       	ldi	r17, 0x03	; 3
    47aa:	8f e2       	ldi	r24, 0x2F	; 47
    47ac:	e5 ea       	ldi	r30, 0xA5	; 165
    47ae:	f2 e0       	ldi	r31, 0x02	; 2
    47b0:	d8 01       	movw	r26, r16
    47b2:	01 90       	ld	r0, Z+
    47b4:	0d 92       	st	X+, r0
    47b6:	8a 95       	dec	r24
    47b8:	e1 f7       	brne	.-8      	; 0x47b2 <main+0x2a>
	UART_tx((unsigned char*)info, strlen(info));
    47ba:	f8 01       	movw	r30, r16
    47bc:	01 90       	ld	r0, Z+
    47be:	00 20       	and	r0, r0
    47c0:	e9 f7       	brne	.-6      	; 0x47bc <main+0x34>
    47c2:	31 97       	sbiw	r30, 0x01	; 1
    47c4:	af 01       	movw	r20, r30
    47c6:	4c 57       	subi	r20, 0x7C	; 124
    47c8:	53 40       	sbci	r21, 0x03	; 3
    47ca:	60 e0       	ldi	r22, 0x00	; 0
    47cc:	70 e0       	ldi	r23, 0x00	; 0
    47ce:	c8 01       	movw	r24, r16
    47d0:	0e 94 f1 26 	call	0x4de2	; 0x4de2 <UART_tx>
	memset(info, 0, 50);
    47d4:	0f 2e       	mov	r0, r31
    47d6:	f2 e3       	ldi	r31, 0x32	; 50
    47d8:	bf 2e       	mov	r11, r31
    47da:	f0 2d       	mov	r31, r0
    47dc:	f8 01       	movw	r30, r16
    47de:	2b 2d       	mov	r18, r11
    47e0:	11 92       	st	Z+, r1
    47e2:	2a 95       	dec	r18
    47e4:	e9 f7       	brne	.-6      	; 0x47e0 <main+0x58>
	#else
		//round up by default
		__ticks_dc = (uint32_t)(ceil(fabs(__tmp)));
	#endif

	__builtin_avr_delay_cycles(__ticks_dc);
    47e6:	8f ef       	ldi	r24, 0xFF	; 255
    47e8:	99 e6       	ldi	r25, 0x69	; 105
    47ea:	e8 e1       	ldi	r30, 0x18	; 24
    47ec:	81 50       	subi	r24, 0x01	; 1
    47ee:	90 40       	sbci	r25, 0x00	; 0
    47f0:	e0 40       	sbci	r30, 0x00	; 0
    47f2:	e1 f7       	brne	.-8      	; 0x47ec <main+0x64>
    47f4:	00 c0       	rjmp	.+0      	; 0x47f6 <main+0x6e>
    47f6:	00 00       	nop
	_delay_ms(1000);
	
	// Initialise and calibrate MPU9250;
	MPU_9250_initialise();
    47f8:	0e 94 22 18 	call	0x3044	; 0x3044 <MPU_9250_initialise>
    47fc:	ff ef       	ldi	r31, 0xFF	; 255
    47fe:	20 e7       	ldi	r18, 0x70	; 112
    4800:	82 e0       	ldi	r24, 0x02	; 2
    4802:	f1 50       	subi	r31, 0x01	; 1
    4804:	20 40       	sbci	r18, 0x00	; 0
    4806:	80 40       	sbci	r24, 0x00	; 0
    4808:	e1 f7       	brne	.-8      	; 0x4802 <main+0x7a>
    480a:	00 c0       	rjmp	.+0      	; 0x480c <main+0x84>
    480c:	00 00       	nop
	_delay_ms(100);
	
	sprintf(info, "calibrating accelerometer\r\n");
    480e:	8c e1       	ldi	r24, 0x1C	; 28
    4810:	e4 ed       	ldi	r30, 0xD4	; 212
    4812:	f2 e0       	ldi	r31, 0x02	; 2
    4814:	d8 01       	movw	r26, r16
    4816:	01 90       	ld	r0, Z+
    4818:	0d 92       	st	X+, r0
    481a:	8a 95       	dec	r24
    481c:	e1 f7       	brne	.-8      	; 0x4816 <main+0x8e>
	UART_tx((unsigned char*)info, strlen(info));
    481e:	f8 01       	movw	r30, r16
    4820:	01 90       	ld	r0, Z+
    4822:	00 20       	and	r0, r0
    4824:	e9 f7       	brne	.-6      	; 0x4820 <main+0x98>
    4826:	31 97       	sbiw	r30, 0x01	; 1
    4828:	af 01       	movw	r20, r30
    482a:	4c 57       	subi	r20, 0x7C	; 124
    482c:	53 40       	sbci	r21, 0x03	; 3
    482e:	60 e0       	ldi	r22, 0x00	; 0
    4830:	70 e0       	ldi	r23, 0x00	; 0
    4832:	c8 01       	movw	r24, r16
    4834:	0e 94 f1 26 	call	0x4de2	; 0x4de2 <UART_tx>
	memset(info, 0, 50);
    4838:	f8 01       	movw	r30, r16
    483a:	2b 2d       	mov	r18, r11
    483c:	11 92       	st	Z+, r1
    483e:	2a 95       	dec	r18
    4840:	e9 f7       	brne	.-6      	; 0x483c <main+0xb4>
	
	calibrate_accelerometer();
    4842:	0e 94 c6 18 	call	0x318c	; 0x318c <calibrate_accelerometer>
	
	sprintf(info, "Calibrating Gyro\r\n");
    4846:	83 e1       	ldi	r24, 0x13	; 19
    4848:	e0 ef       	ldi	r30, 0xF0	; 240
    484a:	f2 e0       	ldi	r31, 0x02	; 2
    484c:	d8 01       	movw	r26, r16
    484e:	01 90       	ld	r0, Z+
    4850:	0d 92       	st	X+, r0
    4852:	8a 95       	dec	r24
    4854:	e1 f7       	brne	.-8      	; 0x484e <main+0xc6>
	UART_tx((unsigned char*)info, strlen(info));
    4856:	f8 01       	movw	r30, r16
    4858:	01 90       	ld	r0, Z+
    485a:	00 20       	and	r0, r0
    485c:	e9 f7       	brne	.-6      	; 0x4858 <main+0xd0>
    485e:	31 97       	sbiw	r30, 0x01	; 1
    4860:	af 01       	movw	r20, r30
    4862:	4c 57       	subi	r20, 0x7C	; 124
    4864:	53 40       	sbci	r21, 0x03	; 3
    4866:	60 e0       	ldi	r22, 0x00	; 0
    4868:	70 e0       	ldi	r23, 0x00	; 0
    486a:	c8 01       	movw	r24, r16
    486c:	0e 94 f1 26 	call	0x4de2	; 0x4de2 <UART_tx>
	memset(info, 0, 50);
    4870:	f8 01       	movw	r30, r16
    4872:	2b 2d       	mov	r18, r11
    4874:	11 92       	st	Z+, r1
    4876:	2a 95       	dec	r18
    4878:	e9 f7       	brne	.-6      	; 0x4874 <main+0xec>
	
	calibrate_gyroscope();
    487a:	0e 94 44 1b 	call	0x3688	; 0x3688 <calibrate_gyroscope>
	// put some code here so you know when to do the 8 pattern.
	
	sprintf(info, "Please wave the sensor in an 8 shape\r\n");
    487e:	87 e2       	ldi	r24, 0x27	; 39
    4880:	e3 e0       	ldi	r30, 0x03	; 3
    4882:	f3 e0       	ldi	r31, 0x03	; 3
    4884:	d8 01       	movw	r26, r16
    4886:	01 90       	ld	r0, Z+
    4888:	0d 92       	st	X+, r0
    488a:	8a 95       	dec	r24
    488c:	e1 f7       	brne	.-8      	; 0x4886 <main+0xfe>
	UART_tx((unsigned char*)info, strlen(info));
    488e:	f8 01       	movw	r30, r16
    4890:	01 90       	ld	r0, Z+
    4892:	00 20       	and	r0, r0
    4894:	e9 f7       	brne	.-6      	; 0x4890 <main+0x108>
    4896:	31 97       	sbiw	r30, 0x01	; 1
    4898:	af 01       	movw	r20, r30
    489a:	4c 57       	subi	r20, 0x7C	; 124
    489c:	53 40       	sbci	r21, 0x03	; 3
    489e:	60 e0       	ldi	r22, 0x00	; 0
    48a0:	70 e0       	ldi	r23, 0x00	; 0
    48a2:	c8 01       	movw	r24, r16
    48a4:	0e 94 f1 26 	call	0x4de2	; 0x4de2 <UART_tx>
	memset(info, 0, 50);
    48a8:	f8 01       	movw	r30, r16
    48aa:	2b 2d       	mov	r18, r11
    48ac:	11 92       	st	Z+, r1
    48ae:	2a 95       	dec	r18
    48b0:	e9 f7       	brne	.-6      	; 0x48ac <main+0x124>
	
	get_magnetometer_scale();
    48b2:	0e 94 81 22 	call	0x4502	; 0x4502 <get_magnetometer_scale>
	
	calibrate_magnetometer();
    48b6:	0e 94 92 1d 	call	0x3b24	; 0x3b24 <calibrate_magnetometer>
	
	sprintf(info, "You can stop waving now \r\n");
    48ba:	8b e1       	ldi	r24, 0x1B	; 27
    48bc:	ea e2       	ldi	r30, 0x2A	; 42
    48be:	f3 e0       	ldi	r31, 0x03	; 3
    48c0:	d8 01       	movw	r26, r16
    48c2:	01 90       	ld	r0, Z+
    48c4:	0d 92       	st	X+, r0
    48c6:	8a 95       	dec	r24
    48c8:	e1 f7       	brne	.-8      	; 0x48c2 <main+0x13a>
	UART_tx((unsigned char*)info, strlen(info));
    48ca:	f8 01       	movw	r30, r16
    48cc:	01 90       	ld	r0, Z+
    48ce:	00 20       	and	r0, r0
    48d0:	e9 f7       	brne	.-6      	; 0x48cc <main+0x144>
    48d2:	31 97       	sbiw	r30, 0x01	; 1
    48d4:	af 01       	movw	r20, r30
    48d6:	4c 57       	subi	r20, 0x7C	; 124
    48d8:	53 40       	sbci	r21, 0x03	; 3
    48da:	60 e0       	ldi	r22, 0x00	; 0
    48dc:	70 e0       	ldi	r23, 0x00	; 0
    48de:	c8 01       	movw	r24, r16
    48e0:	0e 94 f1 26 	call	0x4de2	; 0x4de2 <UART_tx>
	memset(info, 0, 50);
    48e4:	f8 01       	movw	r30, r16
    48e6:	11 92       	st	Z+, r1
    48e8:	ba 94       	dec	r11
    48ea:	e9 f7       	brne	.-6      	; 0x48e6 <main+0x15e>
	float magnetometer_data_float[3];
	float gyroscope_data_rps[3];
	int16_t magnetometer_data_raw[3];
	int16_t gyroscope_data_raw[3];
	int16_t accelerometer_data[3];
	TIMER_setup();
    48ec:	0e 94 bc 23 	call	0x4778	; 0x4778 <TIMER_setup>
	GPIO_setup_for_timing();
    48f0:	0e 94 c2 23 	call	0x4784	; 0x4784 <GPIO_setup_for_timing>
	
	uint16_t start = micros();
    48f4:	20 90 84 00 	lds	r2, 0x0084	; 0x800084 <__TEXT_REGION_LENGTH__+0x7e0084>
    48f8:	30 90 85 00 	lds	r3, 0x0085	; 0x800085 <__TEXT_REGION_LENGTH__+0x7e0085>
					
			MadgwickAHRSupdateRollPitchYaw();
			// update Bluetooth controller with axes info
			// lets start by just printing to serial :)
						
			memset(info, 0, 50);
    48fc:	48 01       	movw	r8, r16
			strcat(info, "r: ");
    48fe:	68 94       	set
    4900:	44 24       	eor	r4, r4
    4902:	45 f8       	bld	r4, 5
    4904:	51 2c       	mov	r5, r1
			strcat(info, dtostrf(roll, 4, 0, floats));
			strcat(info, "\r\n");
    4906:	0f 2e       	mov	r0, r31
    4908:	fd e0       	ldi	r31, 0x0D	; 13
    490a:	6f 2e       	mov	r6, r31
    490c:	fa e0       	ldi	r31, 0x0A	; 10
    490e:	7f 2e       	mov	r7, r31
    4910:	f0 2d       	mov	r31, r0
	uint8_t overflow = 0;
	
	// algorithm will run as fast as possible.
    while (1) 
    {
			PORTB |= 1<<PORTB1;
    4912:	29 9a       	sbi	0x05, 1	; 5
			read_gyroscope_data(gyroscope_data_raw);
    4914:	ce 01       	movw	r24, r28
    4916:	43 96       	adiw	r24, 0x13	; 19
    4918:	0e 94 c1 1a 	call	0x3582	; 0x3582 <read_gyroscope_data>

			read_accelerometer_data(accelerometer_data);
    491c:	ce 01       	movw	r24, r28
    491e:	49 96       	adiw	r24, 0x19	; 25
    4920:	0e 94 7f 18 	call	0x30fe	; 0x30fe <read_accelerometer_data>
			
			apply_accelerometer_offset(accelerometer_data);
    4924:	ce 01       	movw	r24, r28
    4926:	49 96       	adiw	r24, 0x19	; 25
    4928:	0e 94 5e 18 	call	0x30bc	; 0x30bc <apply_accelerometer_offset>

			overflow = read_magnetometer(magnetometer_data_raw);
    492c:	ce 01       	movw	r24, r28
    492e:	0d 96       	adiw	r24, 0x0d	; 13
    4930:	0e 94 48 1d 	call	0x3a90	; 0x3a90 <read_magnetometer>
				
			//scale_magnetometer(magnetometer_data_gaus);
			if(!overflow){
    4934:	81 11       	cpse	r24, r1
    4936:	08 c0       	rjmp	.+16     	; 0x4948 <main+0x1c0>
				apply_magnetometer_scaling(magnetometer_data_raw, magnetometer_data_float);
    4938:	be 01       	movw	r22, r28
    493a:	6f 5f       	subi	r22, 0xFF	; 255
    493c:	7f 4f       	sbci	r23, 0xFF	; 255
    493e:	ce 01       	movw	r24, r28
    4940:	0d 96       	adiw	r24, 0x0d	; 13
    4942:	0e 94 56 23 	call	0x46ac	; 0x46ac <apply_magnetometer_scaling>
    4946:	0c c0       	rjmp	.+24     	; 0x4960 <main+0x1d8>
			}
			else{
				magnetometer_data_float[0] = 0.0f;
    4948:	19 82       	std	Y+1, r1	; 0x01
    494a:	1a 82       	std	Y+2, r1	; 0x02
    494c:	1b 82       	std	Y+3, r1	; 0x03
    494e:	1c 82       	std	Y+4, r1	; 0x04
				magnetometer_data_float[1] = 0.0f;
    4950:	1d 82       	std	Y+5, r1	; 0x05
    4952:	1e 82       	std	Y+6, r1	; 0x06
    4954:	1f 82       	std	Y+7, r1	; 0x07
    4956:	18 86       	std	Y+8, r1	; 0x08
				magnetometer_data_float[2] = 0.0f;
    4958:	19 86       	std	Y+9, r1	; 0x09
    495a:	1a 86       	std	Y+10, r1	; 0x0a
    495c:	1b 86       	std	Y+11, r1	; 0x0b
    495e:	1c 86       	std	Y+12, r1	; 0x0c
			}
			
	
			//conversion to appropriate datatypes happens here
			gyroscope_data_rps[0] = (GYROSCOPE_RES_RPS * (float)gyroscope_data_raw[0]);
    4960:	6b 89       	ldd	r22, Y+19	; 0x13
    4962:	7c 89       	ldd	r23, Y+20	; 0x14
    4964:	07 2e       	mov	r0, r23
    4966:	00 0c       	add	r0, r0
    4968:	88 0b       	sbc	r24, r24
    496a:	99 0b       	sbc	r25, r25
    496c:	0e 94 9e 29 	call	0x533c	; 0x533c <__floatsisf>
    4970:	27 e7       	ldi	r18, 0x77	; 119
    4972:	3d e7       	ldi	r19, 0x7D	; 125
    4974:	4b e0       	ldi	r20, 0x0B	; 11
    4976:	5a e3       	ldi	r21, 0x3A	; 58
    4978:	0e 94 b1 2a 	call	0x5562	; 0x5562 <__mulsf3>
    497c:	6f 8f       	std	Y+31, r22	; 0x1f
    497e:	78 a3       	std	Y+32, r23	; 0x20
    4980:	89 a3       	std	Y+33, r24	; 0x21
    4982:	9a a3       	std	Y+34, r25	; 0x22
			gyroscope_data_rps[1] = (GYROSCOPE_RES_RPS * (float)gyroscope_data_raw[1]);
    4984:	6d 89       	ldd	r22, Y+21	; 0x15
    4986:	7e 89       	ldd	r23, Y+22	; 0x16
    4988:	07 2e       	mov	r0, r23
    498a:	00 0c       	add	r0, r0
    498c:	88 0b       	sbc	r24, r24
    498e:	99 0b       	sbc	r25, r25
    4990:	0e 94 9e 29 	call	0x533c	; 0x533c <__floatsisf>
    4994:	27 e7       	ldi	r18, 0x77	; 119
    4996:	3d e7       	ldi	r19, 0x7D	; 125
    4998:	4b e0       	ldi	r20, 0x0B	; 11
    499a:	5a e3       	ldi	r21, 0x3A	; 58
    499c:	0e 94 b1 2a 	call	0x5562	; 0x5562 <__mulsf3>
    49a0:	6b a3       	std	Y+35, r22	; 0x23
    49a2:	7c a3       	std	Y+36, r23	; 0x24
    49a4:	8d a3       	std	Y+37, r24	; 0x25
    49a6:	9e a3       	std	Y+38, r25	; 0x26
			gyroscope_data_rps[2] = (GYROSCOPE_RES_RPS * (float)gyroscope_data_raw[2]);
    49a8:	6f 89       	ldd	r22, Y+23	; 0x17
    49aa:	78 8d       	ldd	r23, Y+24	; 0x18
    49ac:	07 2e       	mov	r0, r23
    49ae:	00 0c       	add	r0, r0
    49b0:	88 0b       	sbc	r24, r24
    49b2:	99 0b       	sbc	r25, r25
    49b4:	0e 94 9e 29 	call	0x533c	; 0x533c <__floatsisf>
    49b8:	27 e7       	ldi	r18, 0x77	; 119
    49ba:	3d e7       	ldi	r19, 0x7D	; 125
    49bc:	4b e0       	ldi	r20, 0x0B	; 11
    49be:	5a e3       	ldi	r21, 0x3A	; 58
    49c0:	0e 94 b1 2a 	call	0x5562	; 0x5562 <__mulsf3>
    49c4:	6f a3       	std	Y+39, r22	; 0x27
    49c6:	78 a7       	std	Y+40, r23	; 0x28
    49c8:	89 a7       	std	Y+41, r24	; 0x29
    49ca:	9a a7       	std	Y+42, r25	; 0x2a
			
			// Note: for the Mahony algorithm: gx, gy, gz in radians/second
			// accelerometer data and magnetometer data can be in ANY calibrated unit (so even LSB)
			// magnetometer data must be scaled anyhow, but there is no point in converting to Tesla or Gauss
			
			stop = micros(); // get stop time before updating mahony
    49cc:	e4 e8       	ldi	r30, 0x84	; 132
    49ce:	f0 e0       	ldi	r31, 0x00	; 0
    49d0:	60 81       	ld	r22, Z
    49d2:	71 81       	ldd	r23, Z+1	; 0x01
			dt = stop > start ? ((float)(stop - start))/1000000.0f : ((float)(UINT16_MAX - (start - stop)))/1000000.0f;
    49d4:	26 16       	cp	r2, r22
    49d6:	37 06       	cpc	r3, r23
    49d8:	68 f4       	brcc	.+26     	; 0x49f4 <main+0x26c>
    49da:	62 19       	sub	r22, r2
    49dc:	73 09       	sbc	r23, r3
    49de:	80 e0       	ldi	r24, 0x00	; 0
    49e0:	90 e0       	ldi	r25, 0x00	; 0
    49e2:	0e 94 9c 29 	call	0x5338	; 0x5338 <__floatunsisf>
    49e6:	20 e0       	ldi	r18, 0x00	; 0
    49e8:	34 e2       	ldi	r19, 0x24	; 36
    49ea:	44 e7       	ldi	r20, 0x74	; 116
    49ec:	59 e4       	ldi	r21, 0x49	; 73
    49ee:	0e 94 2a 29 	call	0x5254	; 0x5254 <__divsf3>
    49f2:	10 c0       	rjmp	.+32     	; 0x4a14 <main+0x28c>
    49f4:	c1 01       	movw	r24, r2
    49f6:	86 1b       	sub	r24, r22
    49f8:	97 0b       	sbc	r25, r23
    49fa:	bc 01       	movw	r22, r24
    49fc:	60 95       	com	r22
    49fe:	70 95       	com	r23
    4a00:	80 e0       	ldi	r24, 0x00	; 0
    4a02:	90 e0       	ldi	r25, 0x00	; 0
    4a04:	0e 94 9c 29 	call	0x5338	; 0x5338 <__floatunsisf>
    4a08:	20 e0       	ldi	r18, 0x00	; 0
    4a0a:	34 e2       	ldi	r19, 0x24	; 36
    4a0c:	44 e7       	ldi	r20, 0x74	; 116
    4a0e:	59 e4       	ldi	r21, 0x49	; 73
    4a10:	0e 94 2a 29 	call	0x5254	; 0x5254 <__divsf3>
    4a14:	60 93 4c 03 	sts	0x034C, r22	; 0x80034c <__data_end>
    4a18:	70 93 4d 03 	sts	0x034D, r23	; 0x80034d <__data_end+0x1>
    4a1c:	80 93 4e 03 	sts	0x034E, r24	; 0x80034e <__data_end+0x2>
    4a20:	90 93 4f 03 	sts	0x034F, r25	; 0x80034f <__data_end+0x3>
			start = micros(); // get start time for time delta for next calculation.
    4a24:	e4 e8       	ldi	r30, 0x84	; 132
    4a26:	f0 e0       	ldi	r31, 0x00	; 0
    4a28:	20 80       	ld	r2, Z
    4a2a:	31 80       	ldd	r3, Z+1	; 0x01
			
			MadgwickAHRSupdate(gyroscope_data_rps[0],
    4a2c:	69 8d       	ldd	r22, Y+25	; 0x19
    4a2e:	7a 8d       	ldd	r23, Y+26	; 0x1a
    4a30:	07 2e       	mov	r0, r23
    4a32:	00 0c       	add	r0, r0
    4a34:	88 0b       	sbc	r24, r24
    4a36:	99 0b       	sbc	r25, r25
    4a38:	0e 94 9e 29 	call	0x533c	; 0x533c <__floatsisf>
    4a3c:	5b 01       	movw	r10, r22
    4a3e:	6c 01       	movw	r12, r24
    4a40:	89 85       	ldd	r24, Y+9	; 0x09
    4a42:	9a 85       	ldd	r25, Y+10	; 0x0a
    4a44:	ab 85       	ldd	r26, Y+11	; 0x0b
    4a46:	bc 85       	ldd	r27, Y+12	; 0x0c
    4a48:	b0 58       	subi	r27, 0x80	; 128
    4a4a:	bf 93       	push	r27
    4a4c:	af 93       	push	r26
    4a4e:	9f 93       	push	r25
    4a50:	8f 93       	push	r24
    4a52:	8c 81       	ldd	r24, Y+4	; 0x04
    4a54:	8f 93       	push	r24
    4a56:	8b 81       	ldd	r24, Y+3	; 0x03
    4a58:	8f 93       	push	r24
    4a5a:	8a 81       	ldd	r24, Y+2	; 0x02
    4a5c:	8f 93       	push	r24
    4a5e:	89 81       	ldd	r24, Y+1	; 0x01
    4a60:	8f 93       	push	r24
    4a62:	88 85       	ldd	r24, Y+8	; 0x08
    4a64:	8f 93       	push	r24
    4a66:	8f 81       	ldd	r24, Y+7	; 0x07
    4a68:	8f 93       	push	r24
    4a6a:	8e 81       	ldd	r24, Y+6	; 0x06
    4a6c:	8f 93       	push	r24
    4a6e:	8d 81       	ldd	r24, Y+5	; 0x05
    4a70:	8f 93       	push	r24
    4a72:	6d 8d       	ldd	r22, Y+29	; 0x1d
    4a74:	7e 8d       	ldd	r23, Y+30	; 0x1e
    4a76:	07 2e       	mov	r0, r23
    4a78:	00 0c       	add	r0, r0
    4a7a:	88 0b       	sbc	r24, r24
    4a7c:	99 0b       	sbc	r25, r25
    4a7e:	0e 94 9e 29 	call	0x533c	; 0x533c <__floatsisf>
    4a82:	9f 93       	push	r25
    4a84:	8f 93       	push	r24
    4a86:	7f 93       	push	r23
    4a88:	6f 93       	push	r22
    4a8a:	6b 8d       	ldd	r22, Y+27	; 0x1b
    4a8c:	7c 8d       	ldd	r23, Y+28	; 0x1c
    4a8e:	07 2e       	mov	r0, r23
    4a90:	00 0c       	add	r0, r0
    4a92:	88 0b       	sbc	r24, r24
    4a94:	99 0b       	sbc	r25, r25
    4a96:	0e 94 9e 29 	call	0x533c	; 0x533c <__floatsisf>
    4a9a:	9f 93       	push	r25
    4a9c:	8f 93       	push	r24
    4a9e:	7f 93       	push	r23
    4aa0:	6f 93       	push	r22
    4aa2:	ef a0       	ldd	r14, Y+39	; 0x27
    4aa4:	f8 a4       	ldd	r15, Y+40	; 0x28
    4aa6:	09 a5       	ldd	r16, Y+41	; 0x29
    4aa8:	1a a5       	ldd	r17, Y+42	; 0x2a
    4aaa:	2b a1       	ldd	r18, Y+35	; 0x23
    4aac:	3c a1       	ldd	r19, Y+36	; 0x24
    4aae:	4d a1       	ldd	r20, Y+37	; 0x25
    4ab0:	5e a1       	ldd	r21, Y+38	; 0x26
    4ab2:	6f 8d       	ldd	r22, Y+31	; 0x1f
    4ab4:	78 a1       	ldd	r23, Y+32	; 0x20
    4ab6:	89 a1       	ldd	r24, Y+33	; 0x21
    4ab8:	9a a1       	ldd	r25, Y+34	; 0x22
    4aba:	0e 94 57 08 	call	0x10ae	; 0x10ae <MadgwickAHRSupdate>
								(float)accelerometer_data[2],
								magnetometer_data_float[1],
								magnetometer_data_float[0],
								-magnetometer_data_float[2]);
					
			MadgwickAHRSupdateRollPitchYaw();
    4abe:	0e 94 77 16 	call	0x2cee	; 0x2cee <MadgwickAHRSupdateRollPitchYaw>
			// update Bluetooth controller with axes info
			// lets start by just printing to serial :)
						
			memset(info, 0, 50);
    4ac2:	f4 01       	movw	r30, r8
    4ac4:	22 e3       	ldi	r18, 0x32	; 50
    4ac6:	11 92       	st	Z+, r1
    4ac8:	2a 95       	dec	r18
    4aca:	e9 f7       	brne	.-6      	; 0x4ac6 <main+0x33e>
			strcat(info, "r: ");
    4acc:	f4 01       	movw	r30, r8
    4ace:	01 90       	ld	r0, Z+
    4ad0:	00 20       	and	r0, r0
    4ad2:	e9 f7       	brne	.-6      	; 0x4ace <main+0x346>
    4ad4:	31 97       	sbiw	r30, 0x01	; 1
    4ad6:	82 e7       	ldi	r24, 0x72	; 114
    4ad8:	9a e3       	ldi	r25, 0x3A	; 58
    4ada:	91 83       	std	Z+1, r25	; 0x01
    4adc:	80 83       	st	Z, r24
    4ade:	53 82       	std	Z+3, r5	; 0x03
    4ae0:	42 82       	std	Z+2, r4	; 0x02
			strcat(info, dtostrf(roll, 4, 0, floats));
    4ae2:	60 91 58 03 	lds	r22, 0x0358	; 0x800358 <roll>
    4ae6:	70 91 59 03 	lds	r23, 0x0359	; 0x800359 <roll+0x1>
    4aea:	80 91 5a 03 	lds	r24, 0x035A	; 0x80035a <roll+0x2>
    4aee:	90 91 5b 03 	lds	r25, 0x035B	; 0x80035b <roll+0x3>
    4af2:	08 e6       	ldi	r16, 0x68	; 104
    4af4:	13 e0       	ldi	r17, 0x03	; 3
    4af6:	20 e0       	ldi	r18, 0x00	; 0
    4af8:	44 e0       	ldi	r20, 0x04	; 4
    4afa:	0e 94 7d 2b 	call	0x56fa	; 0x56fa <dtostrf>
    4afe:	bc 01       	movw	r22, r24
    4b00:	c4 01       	movw	r24, r8
    4b02:	0e 94 b3 2b 	call	0x5766	; 0x5766 <strcat>
			strcat(info, "\r\n");
    4b06:	f4 01       	movw	r30, r8
    4b08:	01 90       	ld	r0, Z+
    4b0a:	00 20       	and	r0, r0
    4b0c:	e9 f7       	brne	.-6      	; 0x4b08 <main+0x380>
    4b0e:	31 97       	sbiw	r30, 0x01	; 1
    4b10:	71 82       	std	Z+1, r7	; 0x01
    4b12:	60 82       	st	Z, r6
    4b14:	12 82       	std	Z+2, r1	; 0x02
			memset(floats, 0, 20);
    4b16:	0f 2e       	mov	r0, r31
    4b18:	f4 e1       	ldi	r31, 0x14	; 20
    4b1a:	bf 2e       	mov	r11, r31
    4b1c:	f0 2d       	mov	r31, r0
    4b1e:	f8 01       	movw	r30, r16
    4b20:	2b 2d       	mov	r18, r11
    4b22:	11 92       	st	Z+, r1
    4b24:	2a 95       	dec	r18
    4b26:	e9 f7       	brne	.-6      	; 0x4b22 <main+0x39a>
			strcat(info, "y: ");
    4b28:	f4 01       	movw	r30, r8
    4b2a:	01 90       	ld	r0, Z+
    4b2c:	00 20       	and	r0, r0
    4b2e:	e9 f7       	brne	.-6      	; 0x4b2a <main+0x3a2>
    4b30:	31 97       	sbiw	r30, 0x01	; 1
    4b32:	89 e7       	ldi	r24, 0x79	; 121
    4b34:	9a e3       	ldi	r25, 0x3A	; 58
    4b36:	91 83       	std	Z+1, r25	; 0x01
    4b38:	80 83       	st	Z, r24
    4b3a:	53 82       	std	Z+3, r5	; 0x03
    4b3c:	42 82       	std	Z+2, r4	; 0x02
			strcat(info, dtostrf(yaw, 4, 0, floats));
    4b3e:	60 91 50 03 	lds	r22, 0x0350	; 0x800350 <yaw>
    4b42:	70 91 51 03 	lds	r23, 0x0351	; 0x800351 <yaw+0x1>
    4b46:	80 91 52 03 	lds	r24, 0x0352	; 0x800352 <yaw+0x2>
    4b4a:	90 91 53 03 	lds	r25, 0x0353	; 0x800353 <yaw+0x3>
    4b4e:	20 e0       	ldi	r18, 0x00	; 0
    4b50:	44 e0       	ldi	r20, 0x04	; 4
    4b52:	0e 94 7d 2b 	call	0x56fa	; 0x56fa <dtostrf>
    4b56:	bc 01       	movw	r22, r24
    4b58:	c4 01       	movw	r24, r8
    4b5a:	0e 94 b3 2b 	call	0x5766	; 0x5766 <strcat>
			strcat(info, "\r\n");
    4b5e:	f4 01       	movw	r30, r8
    4b60:	01 90       	ld	r0, Z+
    4b62:	00 20       	and	r0, r0
    4b64:	e9 f7       	brne	.-6      	; 0x4b60 <main+0x3d8>
    4b66:	31 97       	sbiw	r30, 0x01	; 1
    4b68:	71 82       	std	Z+1, r7	; 0x01
    4b6a:	60 82       	st	Z, r6
    4b6c:	12 82       	std	Z+2, r1	; 0x02
			memset(floats, 0, 20);
    4b6e:	f8 01       	movw	r30, r16
    4b70:	2b 2d       	mov	r18, r11
    4b72:	11 92       	st	Z+, r1
    4b74:	2a 95       	dec	r18
    4b76:	e9 f7       	brne	.-6      	; 0x4b72 <main+0x3ea>
			strcat(info, "p: ");
    4b78:	f4 01       	movw	r30, r8
    4b7a:	01 90       	ld	r0, Z+
    4b7c:	00 20       	and	r0, r0
    4b7e:	e9 f7       	brne	.-6      	; 0x4b7a <main+0x3f2>
    4b80:	31 97       	sbiw	r30, 0x01	; 1
    4b82:	80 e7       	ldi	r24, 0x70	; 112
    4b84:	9a e3       	ldi	r25, 0x3A	; 58
    4b86:	91 83       	std	Z+1, r25	; 0x01
    4b88:	80 83       	st	Z, r24
    4b8a:	53 82       	std	Z+3, r5	; 0x03
    4b8c:	42 82       	std	Z+2, r4	; 0x02
			strcat(info, dtostrf(pitch, 4, 0, floats));
    4b8e:	60 91 54 03 	lds	r22, 0x0354	; 0x800354 <pitch>
    4b92:	70 91 55 03 	lds	r23, 0x0355	; 0x800355 <pitch+0x1>
    4b96:	80 91 56 03 	lds	r24, 0x0356	; 0x800356 <pitch+0x2>
    4b9a:	90 91 57 03 	lds	r25, 0x0357	; 0x800357 <pitch+0x3>
    4b9e:	20 e0       	ldi	r18, 0x00	; 0
    4ba0:	44 e0       	ldi	r20, 0x04	; 4
    4ba2:	0e 94 7d 2b 	call	0x56fa	; 0x56fa <dtostrf>
    4ba6:	bc 01       	movw	r22, r24
    4ba8:	c4 01       	movw	r24, r8
    4baa:	0e 94 b3 2b 	call	0x5766	; 0x5766 <strcat>
			strcat(info, "\r");
    4bae:	f4 01       	movw	r30, r8
    4bb0:	01 90       	ld	r0, Z+
    4bb2:	00 20       	and	r0, r0
    4bb4:	e9 f7       	brne	.-6      	; 0x4bb0 <main+0x428>
    4bb6:	31 97       	sbiw	r30, 0x01	; 1
    4bb8:	8d e0       	ldi	r24, 0x0D	; 13
    4bba:	90 e0       	ldi	r25, 0x00	; 0
    4bbc:	91 83       	std	Z+1, r25	; 0x01
    4bbe:	80 83       	st	Z, r24
			memset(floats, 0, 20);
    4bc0:	f8 01       	movw	r30, r16
    4bc2:	11 92       	st	Z+, r1
    4bc4:	ba 94       	dec	r11
    4bc6:	e9 f7       	brne	.-6      	; 0x4bc2 <main+0x43a>
			strcat(info, "\033[2A");//move cursor up 2 lines
    4bc8:	d4 01       	movw	r26, r8
    4bca:	0d 90       	ld	r0, X+
    4bcc:	00 20       	and	r0, r0
    4bce:	e9 f7       	brne	.-6      	; 0x4bca <main+0x442>
    4bd0:	11 97       	sbiw	r26, 0x01	; 1
    4bd2:	85 e0       	ldi	r24, 0x05	; 5
    4bd4:	e5 e4       	ldi	r30, 0x45	; 69
    4bd6:	f3 e0       	ldi	r31, 0x03	; 3
    4bd8:	01 90       	ld	r0, Z+
    4bda:	0d 92       	st	X+, r0
    4bdc:	8a 95       	dec	r24
    4bde:	e1 f7       	brne	.-8      	; 0x4bd8 <main+0x450>
			UART_tx((unsigned char*)info, strlen(info));
    4be0:	f4 01       	movw	r30, r8
    4be2:	01 90       	ld	r0, Z+
    4be4:	00 20       	and	r0, r0
    4be6:	e9 f7       	brne	.-6      	; 0x4be2 <main+0x45a>
    4be8:	31 97       	sbiw	r30, 0x01	; 1
    4bea:	af 01       	movw	r20, r30
    4bec:	4c 57       	subi	r20, 0x7C	; 124
    4bee:	53 40       	sbci	r21, 0x03	; 3
    4bf0:	60 e0       	ldi	r22, 0x00	; 0
    4bf2:	70 e0       	ldi	r23, 0x00	; 0
    4bf4:	c4 01       	movw	r24, r8
    4bf6:	0e 94 f1 26 	call	0x4de2	; 0x4de2 <UART_tx>
			// transmit is non blocking, for other code, except other transmit commands
			// so by making 1 string i can transmit in the backgroudn while continuing other code
			
			PORTB &= ~(1<<PORTB1);	
    4bfa:	29 98       	cbi	0x05, 1	; 5
    }
    4bfc:	0f b6       	in	r0, 0x3f	; 63
    4bfe:	f8 94       	cli
    4c00:	de bf       	out	0x3e, r29	; 62
    4c02:	0f be       	out	0x3f, r0	; 63
    4c04:	cd bf       	out	0x3d, r28	; 61
    4c06:	85 ce       	rjmp	.-758    	; 0x4912 <main+0x18a>

00004c08 <TWI_Master_Initialise>:
void TWI_Start_Transceiver( void )
{
  while ( TWI_Transceiver_Busy() );             // Wait until TWI is ready for next transmission.
  TWI_statusReg.all = 0;      
  TWI_state         = TWI_NO_STATE ;
  TWCR = (1<<TWEN)|                             // TWI Interface enabled.
    4c08:	82 e0       	ldi	r24, 0x02	; 2
    4c0a:	80 93 b8 00 	sts	0x00B8, r24	; 0x8000b8 <__TEXT_REGION_LENGTH__+0x7e00b8>
    4c0e:	8f ef       	ldi	r24, 0xFF	; 255
    4c10:	80 93 bb 00 	sts	0x00BB, r24	; 0x8000bb <__TEXT_REGION_LENGTH__+0x7e00bb>
    4c14:	84 e0       	ldi	r24, 0x04	; 4
    4c16:	80 93 bc 00 	sts	0x00BC, r24	; 0x8000bc <__TEXT_REGION_LENGTH__+0x7e00bc>
    4c1a:	08 95       	ret

00004c1c <TWI_Start_Transceiver_With_Data>:
    4c1c:	cf 93       	push	r28
    4c1e:	df 93       	push	r29
    4c20:	ec 01       	movw	r28, r24
    4c22:	ec eb       	ldi	r30, 0xBC	; 188
    4c24:	f0 e0       	ldi	r31, 0x00	; 0
    4c26:	90 81       	ld	r25, Z
    4c28:	90 fd       	sbrc	r25, 0
    4c2a:	fd cf       	rjmp	.-6      	; 0x4c26 <TWI_Start_Transceiver_With_Data+0xa>
    4c2c:	60 93 d7 03 	sts	0x03D7, r22	; 0x8003d7 <TWI_msgSize>
    4c30:	88 81       	ld	r24, Y
    4c32:	80 93 d8 03 	sts	0x03D8, r24	; 0x8003d8 <TWI_buf>
    4c36:	80 fd       	sbrc	r24, 0
    4c38:	13 c0       	rjmp	.+38     	; 0x4c60 <TWI_Start_Transceiver_With_Data+0x44>
    4c3a:	62 30       	cpi	r22, 0x02	; 2
    4c3c:	88 f0       	brcs	.+34     	; 0x4c60 <TWI_Start_Transceiver_With_Data+0x44>
    4c3e:	fe 01       	movw	r30, r28
    4c40:	31 96       	adiw	r30, 0x01	; 1
    4c42:	a9 ed       	ldi	r26, 0xD9	; 217
    4c44:	b3 e0       	ldi	r27, 0x03	; 3
    4c46:	62 50       	subi	r22, 0x02	; 2
    4c48:	26 2f       	mov	r18, r22
    4c4a:	30 e0       	ldi	r19, 0x00	; 0
    4c4c:	2e 5f       	subi	r18, 0xFE	; 254
    4c4e:	3f 4f       	sbci	r19, 0xFF	; 255
    4c50:	ce 01       	movw	r24, r28
    4c52:	82 0f       	add	r24, r18
    4c54:	93 1f       	adc	r25, r19
    4c56:	21 91       	ld	r18, Z+
    4c58:	2d 93       	st	X+, r18
    4c5a:	e8 17       	cp	r30, r24
    4c5c:	f9 07       	cpc	r31, r25
    4c5e:	d9 f7       	brne	.-10     	; 0x4c56 <TWI_Start_Transceiver_With_Data+0x3a>
    4c60:	10 92 d6 03 	sts	0x03D6, r1	; 0x8003d6 <TWI_statusReg>
    4c64:	88 ef       	ldi	r24, 0xF8	; 248
    4c66:	80 93 08 01 	sts	0x0108, r24	; 0x800108 <TWI_state>
    4c6a:	85 ea       	ldi	r24, 0xA5	; 165
    4c6c:	80 93 bc 00 	sts	0x00BC, r24	; 0x8000bc <__TEXT_REGION_LENGTH__+0x7e00bc>
    4c70:	df 91       	pop	r29
    4c72:	cf 91       	pop	r28
    4c74:	08 95       	ret

00004c76 <TWI_Get_Data_From_Transceiver>:
requested (including the address field) in the function call. The function will hold execution (loop)
until the TWI_ISR has completed with the previous operation, before reading out the data and returning.
If there was an error in the previous transmission the function will return the TWI error code.
****************************************************************************/
unsigned char TWI_Get_Data_From_Transceiver( unsigned char *msg, unsigned char msgSize )
{
    4c76:	ac 01       	movw	r20, r24
/****************************************************************************
Call this function to test if the TWI_ISR is busy transmitting.
****************************************************************************/
unsigned char TWI_Transceiver_Busy( void )
{
  return ( TWCR & (1<<TWIE) );                  // IF TWI Interrupt is enabled then the Transceiver is busy
    4c78:	ec eb       	ldi	r30, 0xBC	; 188
    4c7a:	f0 e0       	ldi	r31, 0x00	; 0
    4c7c:	90 81       	ld	r25, Z
****************************************************************************/
unsigned char TWI_Get_Data_From_Transceiver( unsigned char *msg, unsigned char msgSize )
{
  unsigned char i;

  while ( TWI_Transceiver_Busy() );             // Wait until TWI is ready for next transmission.
    4c7e:	90 fd       	sbrc	r25, 0
    4c80:	fd cf       	rjmp	.-6      	; 0x4c7c <TWI_Get_Data_From_Transceiver+0x6>

  if( TWI_statusReg.lastTransOK )               // Last transmission competed successfully.              
    4c82:	80 91 d6 03 	lds	r24, 0x03D6	; 0x8003d6 <TWI_statusReg>
    4c86:	80 ff       	sbrs	r24, 0
    4c88:	12 c0       	rjmp	.+36     	; 0x4cae <TWI_Get_Data_From_Transceiver+0x38>
  {                                             
    for ( i=0; i<msgSize; i++ )                 // Copy data from Transceiver buffer.
    4c8a:	66 23       	and	r22, r22
    4c8c:	81 f0       	breq	.+32     	; 0x4cae <TWI_Get_Data_From_Transceiver+0x38>
    4c8e:	a8 ed       	ldi	r26, 0xD8	; 216
    4c90:	b3 e0       	ldi	r27, 0x03	; 3
    4c92:	fa 01       	movw	r30, r20
    4c94:	61 50       	subi	r22, 0x01	; 1
    4c96:	26 2f       	mov	r18, r22
    4c98:	30 e0       	ldi	r19, 0x00	; 0
    4c9a:	2f 5f       	subi	r18, 0xFF	; 255
    4c9c:	3f 4f       	sbci	r19, 0xFF	; 255
    4c9e:	ca 01       	movw	r24, r20
    4ca0:	82 0f       	add	r24, r18
    4ca2:	93 1f       	adc	r25, r19
    {
      msg[ i ] = TWI_buf[ i ];
    4ca4:	2d 91       	ld	r18, X+
    4ca6:	21 93       	st	Z+, r18

  while ( TWI_Transceiver_Busy() );             // Wait until TWI is ready for next transmission.

  if( TWI_statusReg.lastTransOK )               // Last transmission competed successfully.              
  {                                             
    for ( i=0; i<msgSize; i++ )                 // Copy data from Transceiver buffer.
    4ca8:	e8 17       	cp	r30, r24
    4caa:	f9 07       	cpc	r31, r25
    4cac:	d9 f7       	brne	.-10     	; 0x4ca4 <TWI_Get_Data_From_Transceiver+0x2e>
    {
      msg[ i ] = TWI_buf[ i ];
    }
  }
  return( TWI_statusReg.lastTransOK );                                   
    4cae:	80 91 d6 03 	lds	r24, 0x03D6	; 0x8003d6 <TWI_statusReg>
}
    4cb2:	81 70       	andi	r24, 0x01	; 1
    4cb4:	08 95       	ret

00004cb6 <__vector_24>:
This function is the Interrupt Service Routine (ISR), and called when the TWI interrupt is triggered;
that is whenever a TWI event has occurred. This function should not be called directly from the main
application.
****************************************************************************/
ISR(TWI_vect)
{
    4cb6:	1f 92       	push	r1
    4cb8:	0f 92       	push	r0
    4cba:	0f b6       	in	r0, 0x3f	; 63
    4cbc:	0f 92       	push	r0
    4cbe:	11 24       	eor	r1, r1
    4cc0:	2f 93       	push	r18
    4cc2:	3f 93       	push	r19
    4cc4:	8f 93       	push	r24
    4cc6:	9f 93       	push	r25
    4cc8:	af 93       	push	r26
    4cca:	bf 93       	push	r27
    4ccc:	ef 93       	push	r30
    4cce:	ff 93       	push	r31
  static unsigned char TWI_bufPtr;
  
  switch (TWSR)
    4cd0:	e0 91 b9 00 	lds	r30, 0x00B9	; 0x8000b9 <__TEXT_REGION_LENGTH__+0x7e00b9>
    4cd4:	8e 2f       	mov	r24, r30
    4cd6:	90 e0       	ldi	r25, 0x00	; 0
    4cd8:	fc 01       	movw	r30, r24
    4cda:	38 97       	sbiw	r30, 0x08	; 8
    4cdc:	e1 35       	cpi	r30, 0x51	; 81
    4cde:	f1 05       	cpc	r31, r1
    4ce0:	08 f0       	brcs	.+2      	; 0x4ce4 <__vector_24+0x2e>
    4ce2:	56 c0       	rjmp	.+172    	; 0x4d90 <__vector_24+0xda>
    4ce4:	ec 5c       	subi	r30, 0xCC	; 204
    4ce6:	ff 4f       	sbci	r31, 0xFF	; 255
    4ce8:	0c 94 25 28 	jmp	0x504a	; 0x504a <__tablejump2__>
  {
    case TWI_START:             // START has been transmitted  
    case TWI_REP_START:         // Repeated START has been transmitted
      TWI_bufPtr = 0;                                     // Set buffer pointer to the TWI Address location
    4cec:	10 92 d5 03 	sts	0x03D5, r1	; 0x8003d5 <TWI_bufPtr.1672>
    case TWI_MTX_ADR_ACK:       // SLA+W has been transmitted and ACK received
    case TWI_MTX_DATA_ACK:      // Data byte has been transmitted and ACK received
      if (TWI_bufPtr < TWI_msgSize)
    4cf0:	e0 91 d5 03 	lds	r30, 0x03D5	; 0x8003d5 <TWI_bufPtr.1672>
    4cf4:	80 91 d7 03 	lds	r24, 0x03D7	; 0x8003d7 <TWI_msgSize>
    4cf8:	e8 17       	cp	r30, r24
    4cfa:	70 f4       	brcc	.+28     	; 0x4d18 <__vector_24+0x62>
      {
        TWDR = TWI_buf[TWI_bufPtr++];
    4cfc:	81 e0       	ldi	r24, 0x01	; 1
    4cfe:	8e 0f       	add	r24, r30
    4d00:	80 93 d5 03 	sts	0x03D5, r24	; 0x8003d5 <TWI_bufPtr.1672>
    4d04:	f0 e0       	ldi	r31, 0x00	; 0
    4d06:	e8 52       	subi	r30, 0x28	; 40
    4d08:	fc 4f       	sbci	r31, 0xFC	; 252
    4d0a:	80 81       	ld	r24, Z
    4d0c:	80 93 bb 00 	sts	0x00BB, r24	; 0x8000bb <__TEXT_REGION_LENGTH__+0x7e00bb>
        TWCR = (1<<TWEN)|                                 // TWI Interface enabled
    4d10:	85 e8       	ldi	r24, 0x85	; 133
    4d12:	80 93 bc 00 	sts	0x00BC, r24	; 0x8000bc <__TEXT_REGION_LENGTH__+0x7e00bc>
    4d16:	43 c0       	rjmp	.+134    	; 0x4d9e <__vector_24+0xe8>
               (1<<TWIE)|(1<<TWINT)|                      // Enable TWI Interrupt and clear the flag to send byte
               (0<<TWEA)|(0<<TWSTA)|(0<<TWSTO)|           //
               (0<<TWWC);                                 //  
      }else                    // Send STOP after last byte
      {
        TWI_statusReg.lastTransOK = TRUE;                 // Set status bits to completed successfully. 
    4d18:	80 91 d6 03 	lds	r24, 0x03D6	; 0x8003d6 <TWI_statusReg>
    4d1c:	81 60       	ori	r24, 0x01	; 1
    4d1e:	80 93 d6 03 	sts	0x03D6, r24	; 0x8003d6 <TWI_statusReg>
        TWCR = (1<<TWEN)|                                 // TWI Interface enabled
    4d22:	84 e9       	ldi	r24, 0x94	; 148
    4d24:	80 93 bc 00 	sts	0x00BC, r24	; 0x8000bc <__TEXT_REGION_LENGTH__+0x7e00bc>
    4d28:	3a c0       	rjmp	.+116    	; 0x4d9e <__vector_24+0xe8>
               (0<<TWEA)|(0<<TWSTA)|(1<<TWSTO)|           // Initiate a STOP condition.
               (0<<TWWC);                                 //
      }
      break;
    case TWI_MRX_DATA_ACK:      // Data byte has been received and ACK transmitted
      TWI_buf[TWI_bufPtr++] = TWDR;
    4d2a:	e0 91 d5 03 	lds	r30, 0x03D5	; 0x8003d5 <TWI_bufPtr.1672>
    4d2e:	81 e0       	ldi	r24, 0x01	; 1
    4d30:	8e 0f       	add	r24, r30
    4d32:	80 93 d5 03 	sts	0x03D5, r24	; 0x8003d5 <TWI_bufPtr.1672>
    4d36:	80 91 bb 00 	lds	r24, 0x00BB	; 0x8000bb <__TEXT_REGION_LENGTH__+0x7e00bb>
    4d3a:	f0 e0       	ldi	r31, 0x00	; 0
    4d3c:	e8 52       	subi	r30, 0x28	; 40
    4d3e:	fc 4f       	sbci	r31, 0xFC	; 252
    4d40:	80 83       	st	Z, r24
    case TWI_MRX_ADR_ACK:       // SLA+R has been transmitted and ACK received
      if (TWI_bufPtr < (TWI_msgSize-1) )                  // Detect the last byte to NACK it.
    4d42:	20 91 d5 03 	lds	r18, 0x03D5	; 0x8003d5 <TWI_bufPtr.1672>
    4d46:	30 e0       	ldi	r19, 0x00	; 0
    4d48:	80 91 d7 03 	lds	r24, 0x03D7	; 0x8003d7 <TWI_msgSize>
    4d4c:	90 e0       	ldi	r25, 0x00	; 0
    4d4e:	01 97       	sbiw	r24, 0x01	; 1
    4d50:	28 17       	cp	r18, r24
    4d52:	39 07       	cpc	r19, r25
    4d54:	24 f4       	brge	.+8      	; 0x4d5e <__vector_24+0xa8>
      {
        TWCR = (1<<TWEN)|                                 // TWI Interface enabled
    4d56:	85 ec       	ldi	r24, 0xC5	; 197
    4d58:	80 93 bc 00 	sts	0x00BC, r24	; 0x8000bc <__TEXT_REGION_LENGTH__+0x7e00bc>
    4d5c:	20 c0       	rjmp	.+64     	; 0x4d9e <__vector_24+0xe8>
               (1<<TWIE)|(1<<TWINT)|                      // Enable TWI Interrupt and clear the flag to read next byte
               (1<<TWEA)|(0<<TWSTA)|(0<<TWSTO)|           // Send ACK after reception
               (0<<TWWC);                                 //  
      }else                    // Send NACK after next reception
      {
        TWCR = (1<<TWEN)|                                 // TWI Interface enabled
    4d5e:	85 e8       	ldi	r24, 0x85	; 133
    4d60:	80 93 bc 00 	sts	0x00BC, r24	; 0x8000bc <__TEXT_REGION_LENGTH__+0x7e00bc>
    4d64:	1c c0       	rjmp	.+56     	; 0x4d9e <__vector_24+0xe8>
               (0<<TWEA)|(0<<TWSTA)|(0<<TWSTO)|           // Send NACK after reception
               (0<<TWWC);                                 // 
      }    
      break; 
    case TWI_MRX_DATA_NACK:     // Data byte has been received and NACK transmitted
      TWI_buf[TWI_bufPtr] = TWDR;
    4d66:	80 91 bb 00 	lds	r24, 0x00BB	; 0x8000bb <__TEXT_REGION_LENGTH__+0x7e00bb>
    4d6a:	e0 91 d5 03 	lds	r30, 0x03D5	; 0x8003d5 <TWI_bufPtr.1672>
    4d6e:	f0 e0       	ldi	r31, 0x00	; 0
    4d70:	e8 52       	subi	r30, 0x28	; 40
    4d72:	fc 4f       	sbci	r31, 0xFC	; 252
    4d74:	80 83       	st	Z, r24
      TWI_statusReg.lastTransOK = TRUE;                 // Set status bits to completed successfully. 
    4d76:	80 91 d6 03 	lds	r24, 0x03D6	; 0x8003d6 <TWI_statusReg>
    4d7a:	81 60       	ori	r24, 0x01	; 1
    4d7c:	80 93 d6 03 	sts	0x03D6, r24	; 0x8003d6 <TWI_statusReg>
      TWCR = (1<<TWEN)|                                 // TWI Interface enabled
    4d80:	84 e9       	ldi	r24, 0x94	; 148
    4d82:	80 93 bc 00 	sts	0x00BC, r24	; 0x8000bc <__TEXT_REGION_LENGTH__+0x7e00bc>
             (0<<TWIE)|(1<<TWINT)|                      // Disable TWI Interrupt and clear the flag
             (0<<TWEA)|(0<<TWSTA)|(1<<TWSTO)|           // Initiate a STOP condition.
             (0<<TWWC);                                 //
      break;      
    4d86:	0b c0       	rjmp	.+22     	; 0x4d9e <__vector_24+0xe8>
    case TWI_ARB_LOST:          // Arbitration lost
      TWCR = (1<<TWEN)|                                 // TWI Interface enabled
    4d88:	85 ea       	ldi	r24, 0xA5	; 165
    4d8a:	80 93 bc 00 	sts	0x00BC, r24	; 0x8000bc <__TEXT_REGION_LENGTH__+0x7e00bc>
             (1<<TWIE)|(1<<TWINT)|                      // Enable TWI Interrupt and clear the flag
             (0<<TWEA)|(1<<TWSTA)|(0<<TWSTO)|           // Initiate a (RE)START condition.
             (0<<TWWC);                                 //
      break;
    4d8e:	07 c0       	rjmp	.+14     	; 0x4d9e <__vector_24+0xe8>
    case TWI_MTX_ADR_NACK:      // SLA+W has been transmitted and NACK received
    case TWI_MRX_ADR_NACK:      // SLA+R has been transmitted and NACK received    
    case TWI_MTX_DATA_NACK:     // Data byte has been transmitted and NACK received
    case TWI_BUS_ERROR:         // Bus error due to an illegal START or STOP condition
    default:     
      TWI_state = TWSR;                                 // Store TWSR and automatically sets clears noErrors bit.
    4d90:	80 91 b9 00 	lds	r24, 0x00B9	; 0x8000b9 <__TEXT_REGION_LENGTH__+0x7e00b9>
    4d94:	80 93 08 01 	sts	0x0108, r24	; 0x800108 <TWI_state>
                                                        // Reset TWI Interface
      TWCR = (1<<TWEN)|                                 // Enable TWI-interface and release TWI pins
    4d98:	84 e0       	ldi	r24, 0x04	; 4
    4d9a:	80 93 bc 00 	sts	0x00BC, r24	; 0x8000bc <__TEXT_REGION_LENGTH__+0x7e00bc>
             (0<<TWIE)|(0<<TWINT)|                      // Disable Interrupt
             (0<<TWEA)|(0<<TWSTA)|(0<<TWSTO)|           // No Signal requests
             (0<<TWWC);                                 //
  }
}
    4d9e:	ff 91       	pop	r31
    4da0:	ef 91       	pop	r30
    4da2:	bf 91       	pop	r27
    4da4:	af 91       	pop	r26
    4da6:	9f 91       	pop	r25
    4da8:	8f 91       	pop	r24
    4daa:	3f 91       	pop	r19
    4dac:	2f 91       	pop	r18
    4dae:	0f 90       	pop	r0
    4db0:	0f be       	out	0x3f, r0	; 63
    4db2:	0f 90       	pop	r0
    4db4:	1f 90       	pop	r1
    4db6:	18 95       	reti

00004db8 <UART_initialise>:
			return 1;
		}
		return 0;
	}
	return 0;	
}
    4db8:	e0 ec       	ldi	r30, 0xC0	; 192
    4dba:	f0 e0       	ldi	r31, 0x00	; 0
    4dbc:	80 81       	ld	r24, Z
    4dbe:	10 82       	st	Z, r1
    4dc0:	e1 ec       	ldi	r30, 0xC1	; 193
    4dc2:	f0 e0       	ldi	r31, 0x00	; 0
    4dc4:	80 ec       	ldi	r24, 0xC0	; 192
    4dc6:	80 83       	st	Z, r24
    4dc8:	86 e0       	ldi	r24, 0x06	; 6
    4dca:	80 93 c2 00 	sts	0x00C2, r24	; 0x8000c2 <__TEXT_REGION_LENGTH__+0x7e00c2>
    4dce:	8c e0       	ldi	r24, 0x0C	; 12
    4dd0:	90 e0       	ldi	r25, 0x00	; 0
    4dd2:	90 93 c5 00 	sts	0x00C5, r25	; 0x8000c5 <__TEXT_REGION_LENGTH__+0x7e00c5>
    4dd6:	80 93 c4 00 	sts	0x00C4, r24	; 0x8000c4 <__TEXT_REGION_LENGTH__+0x7e00c4>
    4dda:	80 81       	ld	r24, Z
    4ddc:	88 60       	ori	r24, 0x08	; 8
    4dde:	80 83       	st	Z, r24
    4de0:	08 95       	ret

00004de2 <UART_tx>:
    4de2:	cf 92       	push	r12
    4de4:	df 92       	push	r13
    4de6:	ef 92       	push	r14
    4de8:	ff 92       	push	r15
    4dea:	9c 01       	movw	r18, r24
    4dec:	90 91 e8 03 	lds	r25, 0x03E8	; 0x8003e8 <state>
    4df0:	91 11       	cpse	r25, r1
    4df2:	fc cf       	rjmp	.-8      	; 0x4dec <UART_tx+0xa>
    4df4:	90 91 e8 03 	lds	r25, 0x03E8	; 0x8003e8 <state>
    4df8:	91 11       	cpse	r25, r1
    4dfa:	2b c0       	rjmp	.+86     	; 0x4e52 <UART_tx+0x70>
    4dfc:	41 15       	cp	r20, r1
    4dfe:	51 05       	cpc	r21, r1
    4e00:	61 05       	cpc	r22, r1
    4e02:	71 05       	cpc	r23, r1
    4e04:	41 f1       	breq	.+80     	; 0x4e56 <UART_tx+0x74>
    4e06:	6a 01       	movw	r12, r20
    4e08:	7b 01       	movw	r14, r22
    4e0a:	b9 01       	movw	r22, r18
    4e0c:	81 e0       	ldi	r24, 0x01	; 1
    4e0e:	80 93 e8 03 	sts	0x03E8, r24	; 0x8003e8 <state>
    4e12:	a6 01       	movw	r20, r12
    4e14:	8b ee       	ldi	r24, 0xEB	; 235
    4e16:	93 e0       	ldi	r25, 0x03	; 3
    4e18:	0e 94 aa 2b 	call	0x5754	; 0x5754 <memcpy>
    4e1c:	c0 92 4f 04 	sts	0x044F, r12	; 0x80044f <tx_length>
    4e20:	d0 92 50 04 	sts	0x0450, r13	; 0x800450 <tx_length+0x1>
    4e24:	e0 92 51 04 	sts	0x0451, r14	; 0x800451 <tx_length+0x2>
    4e28:	f0 92 52 04 	sts	0x0452, r15	; 0x800452 <tx_length+0x3>
    4e2c:	10 92 e4 03 	sts	0x03E4, r1	; 0x8003e4 <tx_cnt>
    4e30:	10 92 e5 03 	sts	0x03E5, r1	; 0x8003e5 <tx_cnt+0x1>
    4e34:	10 92 e6 03 	sts	0x03E6, r1	; 0x8003e6 <tx_cnt+0x2>
    4e38:	10 92 e7 03 	sts	0x03E7, r1	; 0x8003e7 <tx_cnt+0x3>
    4e3c:	80 91 eb 03 	lds	r24, 0x03EB	; 0x8003eb <tx_buffer>
    4e40:	80 93 c6 00 	sts	0x00C6, r24	; 0x8000c6 <__TEXT_REGION_LENGTH__+0x7e00c6>
    4e44:	e1 ec       	ldi	r30, 0xC1	; 193
    4e46:	f0 e0       	ldi	r31, 0x00	; 0
    4e48:	80 81       	ld	r24, Z
    4e4a:	80 62       	ori	r24, 0x20	; 32
    4e4c:	80 83       	st	Z, r24
    4e4e:	81 e0       	ldi	r24, 0x01	; 1
    4e50:	03 c0       	rjmp	.+6      	; 0x4e58 <UART_tx+0x76>
    4e52:	80 e0       	ldi	r24, 0x00	; 0
    4e54:	01 c0       	rjmp	.+2      	; 0x4e58 <UART_tx+0x76>
    4e56:	80 e0       	ldi	r24, 0x00	; 0
    4e58:	ff 90       	pop	r15
    4e5a:	ef 90       	pop	r14
    4e5c:	df 90       	pop	r13
    4e5e:	cf 90       	pop	r12
    4e60:	08 95       	ret

00004e62 <__vector_18>:

ISR(USART_RX_vect){
    4e62:	1f 92       	push	r1
    4e64:	0f 92       	push	r0
    4e66:	0f b6       	in	r0, 0x3f	; 63
    4e68:	0f 92       	push	r0
    4e6a:	11 24       	eor	r1, r1
    4e6c:	2f 93       	push	r18
    4e6e:	3f 93       	push	r19
    4e70:	4f 93       	push	r20
    4e72:	5f 93       	push	r21
    4e74:	6f 93       	push	r22
    4e76:	7f 93       	push	r23
    4e78:	8f 93       	push	r24
    4e7a:	9f 93       	push	r25
    4e7c:	af 93       	push	r26
    4e7e:	bf 93       	push	r27
    4e80:	cf 93       	push	r28
    4e82:	df 93       	push	r29
    4e84:	ef 93       	push	r30
    4e86:	ff 93       	push	r31
	rx_buffer[rx_cnt] = UDR0;
    4e88:	c0 91 e9 03 	lds	r28, 0x03E9	; 0x8003e9 <rx_buffer>
    4e8c:	d0 91 ea 03 	lds	r29, 0x03EA	; 0x8003ea <rx_buffer+0x1>
    4e90:	80 91 e0 03 	lds	r24, 0x03E0	; 0x8003e0 <rx_cnt>
    4e94:	90 91 e1 03 	lds	r25, 0x03E1	; 0x8003e1 <rx_cnt+0x1>
    4e98:	a0 91 e2 03 	lds	r26, 0x03E2	; 0x8003e2 <rx_cnt+0x2>
    4e9c:	b0 91 e3 03 	lds	r27, 0x03E3	; 0x8003e3 <rx_cnt+0x3>
    4ea0:	20 91 c6 00 	lds	r18, 0x00C6	; 0x8000c6 <__TEXT_REGION_LENGTH__+0x7e00c6>
    4ea4:	fe 01       	movw	r30, r28
    4ea6:	e8 0f       	add	r30, r24
    4ea8:	f9 1f       	adc	r31, r25
    4eaa:	20 83       	st	Z, r18
	if(rx_cnt > 0)
    4eac:	80 91 e0 03 	lds	r24, 0x03E0	; 0x8003e0 <rx_cnt>
    4eb0:	90 91 e1 03 	lds	r25, 0x03E1	; 0x8003e1 <rx_cnt+0x1>
    4eb4:	a0 91 e2 03 	lds	r26, 0x03E2	; 0x8003e2 <rx_cnt+0x2>
    4eb8:	b0 91 e3 03 	lds	r27, 0x03E3	; 0x8003e3 <rx_cnt+0x3>
    4ebc:	89 2b       	or	r24, r25
    4ebe:	8a 2b       	or	r24, r26
    4ec0:	8b 2b       	or	r24, r27
    4ec2:	69 f1       	breq	.+90     	; 0x4f1e <__vector_18+0xbc>
		if(memcmp(&rx_buffer[rx_cnt-1], rx_terminator, 2)){
    4ec4:	80 91 e0 03 	lds	r24, 0x03E0	; 0x8003e0 <rx_cnt>
    4ec8:	90 91 e1 03 	lds	r25, 0x03E1	; 0x8003e1 <rx_cnt+0x1>
    4ecc:	a0 91 e2 03 	lds	r26, 0x03E2	; 0x8003e2 <rx_cnt+0x2>
    4ed0:	b0 91 e3 03 	lds	r27, 0x03E3	; 0x8003e3 <rx_cnt+0x3>
    4ed4:	01 97       	sbiw	r24, 0x01	; 1
    4ed6:	42 e0       	ldi	r20, 0x02	; 2
    4ed8:	50 e0       	ldi	r21, 0x00	; 0
    4eda:	6a e4       	ldi	r22, 0x4A	; 74
    4edc:	73 e0       	ldi	r23, 0x03	; 3
    4ede:	8c 0f       	add	r24, r28
    4ee0:	9d 1f       	adc	r25, r29
    4ee2:	0e 94 9d 2b 	call	0x573a	; 0x573a <memcmp>
    4ee6:	89 2b       	or	r24, r25
    4ee8:	d1 f0       	breq	.+52     	; 0x4f1e <__vector_18+0xbc>
			// In this case, we just append \0 and disable the UART reception, then set correct state
			rx_buffer[rx_cnt + 1] = '\0';
    4eea:	80 91 e0 03 	lds	r24, 0x03E0	; 0x8003e0 <rx_cnt>
    4eee:	90 91 e1 03 	lds	r25, 0x03E1	; 0x8003e1 <rx_cnt+0x1>
    4ef2:	a0 91 e2 03 	lds	r26, 0x03E2	; 0x8003e2 <rx_cnt+0x2>
    4ef6:	b0 91 e3 03 	lds	r27, 0x03E3	; 0x8003e3 <rx_cnt+0x3>
    4efa:	c8 0f       	add	r28, r24
    4efc:	d9 1f       	adc	r29, r25
    4efe:	19 82       	std	Y+1, r1	; 0x01
			if(state == tx_rx)
    4f00:	80 91 e8 03 	lds	r24, 0x03E8	; 0x8003e8 <state>
    4f04:	83 30       	cpi	r24, 0x03	; 3
    4f06:	21 f4       	brne	.+8      	; 0x4f10 <__vector_18+0xae>
				state = tx;
    4f08:	81 e0       	ldi	r24, 0x01	; 1
    4f0a:	80 93 e8 03 	sts	0x03E8, r24	; 0x8003e8 <state>
    4f0e:	02 c0       	rjmp	.+4      	; 0x4f14 <__vector_18+0xb2>
			else
				state = waiting;
    4f10:	10 92 e8 03 	sts	0x03E8, r1	; 0x8003e8 <state>
			UART_rx_disable();
    4f14:	e1 ec       	ldi	r30, 0xC1	; 193
    4f16:	f0 e0       	ldi	r31, 0x00	; 0
    4f18:	80 81       	ld	r24, Z
    4f1a:	8f 7e       	andi	r24, 0xEF	; 239
    4f1c:	80 83       	st	Z, r24
		}
	++rx_cnt;
    4f1e:	80 91 e0 03 	lds	r24, 0x03E0	; 0x8003e0 <rx_cnt>
    4f22:	90 91 e1 03 	lds	r25, 0x03E1	; 0x8003e1 <rx_cnt+0x1>
    4f26:	a0 91 e2 03 	lds	r26, 0x03E2	; 0x8003e2 <rx_cnt+0x2>
    4f2a:	b0 91 e3 03 	lds	r27, 0x03E3	; 0x8003e3 <rx_cnt+0x3>
    4f2e:	01 96       	adiw	r24, 0x01	; 1
    4f30:	a1 1d       	adc	r26, r1
    4f32:	b1 1d       	adc	r27, r1
    4f34:	80 93 e0 03 	sts	0x03E0, r24	; 0x8003e0 <rx_cnt>
    4f38:	90 93 e1 03 	sts	0x03E1, r25	; 0x8003e1 <rx_cnt+0x1>
    4f3c:	a0 93 e2 03 	sts	0x03E2, r26	; 0x8003e2 <rx_cnt+0x2>
    4f40:	b0 93 e3 03 	sts	0x03E3, r27	; 0x8003e3 <rx_cnt+0x3>
}
    4f44:	ff 91       	pop	r31
    4f46:	ef 91       	pop	r30
    4f48:	df 91       	pop	r29
    4f4a:	cf 91       	pop	r28
    4f4c:	bf 91       	pop	r27
    4f4e:	af 91       	pop	r26
    4f50:	9f 91       	pop	r25
    4f52:	8f 91       	pop	r24
    4f54:	7f 91       	pop	r23
    4f56:	6f 91       	pop	r22
    4f58:	5f 91       	pop	r21
    4f5a:	4f 91       	pop	r20
    4f5c:	3f 91       	pop	r19
    4f5e:	2f 91       	pop	r18
    4f60:	0f 90       	pop	r0
    4f62:	0f be       	out	0x3f, r0	; 63
    4f64:	0f 90       	pop	r0
    4f66:	1f 90       	pop	r1
    4f68:	18 95       	reti

00004f6a <__vector_19>:

ISR(USART_UDRE_vect){
    4f6a:	1f 92       	push	r1
    4f6c:	0f 92       	push	r0
    4f6e:	0f b6       	in	r0, 0x3f	; 63
    4f70:	0f 92       	push	r0
    4f72:	11 24       	eor	r1, r1
    4f74:	4f 93       	push	r20
    4f76:	5f 93       	push	r21
    4f78:	6f 93       	push	r22
    4f7a:	7f 93       	push	r23
    4f7c:	8f 93       	push	r24
    4f7e:	9f 93       	push	r25
    4f80:	af 93       	push	r26
    4f82:	bf 93       	push	r27
    4f84:	ef 93       	push	r30
    4f86:	ff 93       	push	r31
	++tx_cnt;// increment txCnt (since the byte has been loaded in transmitter
    4f88:	80 91 e4 03 	lds	r24, 0x03E4	; 0x8003e4 <tx_cnt>
    4f8c:	90 91 e5 03 	lds	r25, 0x03E5	; 0x8003e5 <tx_cnt+0x1>
    4f90:	a0 91 e6 03 	lds	r26, 0x03E6	; 0x8003e6 <tx_cnt+0x2>
    4f94:	b0 91 e7 03 	lds	r27, 0x03E7	; 0x8003e7 <tx_cnt+0x3>
    4f98:	01 96       	adiw	r24, 0x01	; 1
    4f9a:	a1 1d       	adc	r26, r1
    4f9c:	b1 1d       	adc	r27, r1
    4f9e:	80 93 e4 03 	sts	0x03E4, r24	; 0x8003e4 <tx_cnt>
    4fa2:	90 93 e5 03 	sts	0x03E5, r25	; 0x8003e5 <tx_cnt+0x1>
    4fa6:	a0 93 e6 03 	sts	0x03E6, r26	; 0x8003e6 <tx_cnt+0x2>
    4faa:	b0 93 e7 03 	sts	0x03E7, r27	; 0x8003e7 <tx_cnt+0x3>
	if(tx_cnt < tx_length){
    4fae:	40 91 e4 03 	lds	r20, 0x03E4	; 0x8003e4 <tx_cnt>
    4fb2:	50 91 e5 03 	lds	r21, 0x03E5	; 0x8003e5 <tx_cnt+0x1>
    4fb6:	60 91 e6 03 	lds	r22, 0x03E6	; 0x8003e6 <tx_cnt+0x2>
    4fba:	70 91 e7 03 	lds	r23, 0x03E7	; 0x8003e7 <tx_cnt+0x3>
    4fbe:	80 91 4f 04 	lds	r24, 0x044F	; 0x80044f <tx_length>
    4fc2:	90 91 50 04 	lds	r25, 0x0450	; 0x800450 <tx_length+0x1>
    4fc6:	a0 91 51 04 	lds	r26, 0x0451	; 0x800451 <tx_length+0x2>
    4fca:	b0 91 52 04 	lds	r27, 0x0452	; 0x800452 <tx_length+0x3>
    4fce:	48 17       	cp	r20, r24
    4fd0:	59 07       	cpc	r21, r25
    4fd2:	6a 07       	cpc	r22, r26
    4fd4:	7b 07       	cpc	r23, r27
    4fd6:	78 f4       	brcc	.+30     	; 0x4ff6 <__vector_19+0x8c>
		UDR0 = tx_buffer[tx_cnt];
    4fd8:	80 91 e4 03 	lds	r24, 0x03E4	; 0x8003e4 <tx_cnt>
    4fdc:	90 91 e5 03 	lds	r25, 0x03E5	; 0x8003e5 <tx_cnt+0x1>
    4fe0:	a0 91 e6 03 	lds	r26, 0x03E6	; 0x8003e6 <tx_cnt+0x2>
    4fe4:	b0 91 e7 03 	lds	r27, 0x03E7	; 0x8003e7 <tx_cnt+0x3>
    4fe8:	fc 01       	movw	r30, r24
    4fea:	e5 51       	subi	r30, 0x15	; 21
    4fec:	fc 4f       	sbci	r31, 0xFC	; 252
    4fee:	80 81       	ld	r24, Z
    4ff0:	80 93 c6 00 	sts	0x00C6, r24	; 0x8000c6 <__TEXT_REGION_LENGTH__+0x7e00c6>
    4ff4:	05 c0       	rjmp	.+10     	; 0x5000 <__vector_19+0x96>
		//this clears the interrupt flag automatically.
	}
	else{
		//disable UDRE interrupt
		UCSR0B &= ~(1<<UDRIE0);
    4ff6:	e1 ec       	ldi	r30, 0xC1	; 193
    4ff8:	f0 e0       	ldi	r31, 0x00	; 0
    4ffa:	80 81       	ld	r24, Z
    4ffc:	8f 7d       	andi	r24, 0xDF	; 223
    4ffe:	80 83       	st	Z, r24
		//once last byte has left, TX_vect should trigger, updating the transmit state
	}
}
    5000:	ff 91       	pop	r31
    5002:	ef 91       	pop	r30
    5004:	bf 91       	pop	r27
    5006:	af 91       	pop	r26
    5008:	9f 91       	pop	r25
    500a:	8f 91       	pop	r24
    500c:	7f 91       	pop	r23
    500e:	6f 91       	pop	r22
    5010:	5f 91       	pop	r21
    5012:	4f 91       	pop	r20
    5014:	0f 90       	pop	r0
    5016:	0f be       	out	0x3f, r0	; 63
    5018:	0f 90       	pop	r0
    501a:	1f 90       	pop	r1
    501c:	18 95       	reti

0000501e <__vector_20>:

ISR(USART_TX_vect){
    501e:	1f 92       	push	r1
    5020:	0f 92       	push	r0
    5022:	0f b6       	in	r0, 0x3f	; 63
    5024:	0f 92       	push	r0
    5026:	11 24       	eor	r1, r1
    5028:	8f 93       	push	r24
	// set state to only rx of coming from tx_rx
	// alternatively, when coming from tx, go back to waiting.
	if(state == tx_rx)
    502a:	80 91 e8 03 	lds	r24, 0x03E8	; 0x8003e8 <state>
    502e:	83 30       	cpi	r24, 0x03	; 3
    5030:	21 f4       	brne	.+8      	; 0x503a <__vector_20+0x1c>
		state = rx;
    5032:	82 e0       	ldi	r24, 0x02	; 2
    5034:	80 93 e8 03 	sts	0x03E8, r24	; 0x8003e8 <state>
    5038:	02 c0       	rjmp	.+4      	; 0x503e <__vector_20+0x20>
	else
		state = waiting;
    503a:	10 92 e8 03 	sts	0x03E8, r1	; 0x8003e8 <state>
}
    503e:	8f 91       	pop	r24
    5040:	0f 90       	pop	r0
    5042:	0f be       	out	0x3f, r0	; 63
    5044:	0f 90       	pop	r0
    5046:	1f 90       	pop	r1
    5048:	18 95       	reti

0000504a <__tablejump2__>:
    504a:	ee 0f       	add	r30, r30
    504c:	ff 1f       	adc	r31, r31
    504e:	05 90       	lpm	r0, Z+
    5050:	f4 91       	lpm	r31, Z
    5052:	e0 2d       	mov	r30, r0
    5054:	09 94       	ijmp

00005056 <__subsf3>:
    5056:	50 58       	subi	r21, 0x80	; 128

00005058 <__addsf3>:
    5058:	bb 27       	eor	r27, r27
    505a:	aa 27       	eor	r26, r26
    505c:	0e 94 43 28 	call	0x5086	; 0x5086 <__addsf3x>
    5060:	0c 94 6f 2a 	jmp	0x54de	; 0x54de <__fp_round>
    5064:	0e 94 61 2a 	call	0x54c2	; 0x54c2 <__fp_pscA>
    5068:	38 f0       	brcs	.+14     	; 0x5078 <__addsf3+0x20>
    506a:	0e 94 68 2a 	call	0x54d0	; 0x54d0 <__fp_pscB>
    506e:	20 f0       	brcs	.+8      	; 0x5078 <__addsf3+0x20>
    5070:	39 f4       	brne	.+14     	; 0x5080 <__addsf3+0x28>
    5072:	9f 3f       	cpi	r25, 0xFF	; 255
    5074:	19 f4       	brne	.+6      	; 0x507c <__addsf3+0x24>
    5076:	26 f4       	brtc	.+8      	; 0x5080 <__addsf3+0x28>
    5078:	0c 94 23 2a 	jmp	0x5446	; 0x5446 <__fp_nan>
    507c:	0e f4       	brtc	.+2      	; 0x5080 <__addsf3+0x28>
    507e:	e0 95       	com	r30
    5080:	e7 fb       	bst	r30, 7
    5082:	0c 94 1d 2a 	jmp	0x543a	; 0x543a <__fp_inf>

00005086 <__addsf3x>:
    5086:	e9 2f       	mov	r30, r25
    5088:	0e 94 80 2a 	call	0x5500	; 0x5500 <__fp_split3>
    508c:	58 f3       	brcs	.-42     	; 0x5064 <__addsf3+0xc>
    508e:	ba 17       	cp	r27, r26
    5090:	62 07       	cpc	r22, r18
    5092:	73 07       	cpc	r23, r19
    5094:	84 07       	cpc	r24, r20
    5096:	95 07       	cpc	r25, r21
    5098:	20 f0       	brcs	.+8      	; 0x50a2 <__addsf3x+0x1c>
    509a:	79 f4       	brne	.+30     	; 0x50ba <__addsf3x+0x34>
    509c:	a6 f5       	brtc	.+104    	; 0x5106 <__addsf3x+0x80>
    509e:	0c 94 a2 2a 	jmp	0x5544	; 0x5544 <__fp_zero>
    50a2:	0e f4       	brtc	.+2      	; 0x50a6 <__addsf3x+0x20>
    50a4:	e0 95       	com	r30
    50a6:	0b 2e       	mov	r0, r27
    50a8:	ba 2f       	mov	r27, r26
    50aa:	a0 2d       	mov	r26, r0
    50ac:	0b 01       	movw	r0, r22
    50ae:	b9 01       	movw	r22, r18
    50b0:	90 01       	movw	r18, r0
    50b2:	0c 01       	movw	r0, r24
    50b4:	ca 01       	movw	r24, r20
    50b6:	a0 01       	movw	r20, r0
    50b8:	11 24       	eor	r1, r1
    50ba:	ff 27       	eor	r31, r31
    50bc:	59 1b       	sub	r21, r25
    50be:	99 f0       	breq	.+38     	; 0x50e6 <__addsf3x+0x60>
    50c0:	59 3f       	cpi	r21, 0xF9	; 249
    50c2:	50 f4       	brcc	.+20     	; 0x50d8 <__addsf3x+0x52>
    50c4:	50 3e       	cpi	r21, 0xE0	; 224
    50c6:	68 f1       	brcs	.+90     	; 0x5122 <__addsf3x+0x9c>
    50c8:	1a 16       	cp	r1, r26
    50ca:	f0 40       	sbci	r31, 0x00	; 0
    50cc:	a2 2f       	mov	r26, r18
    50ce:	23 2f       	mov	r18, r19
    50d0:	34 2f       	mov	r19, r20
    50d2:	44 27       	eor	r20, r20
    50d4:	58 5f       	subi	r21, 0xF8	; 248
    50d6:	f3 cf       	rjmp	.-26     	; 0x50be <__addsf3x+0x38>
    50d8:	46 95       	lsr	r20
    50da:	37 95       	ror	r19
    50dc:	27 95       	ror	r18
    50de:	a7 95       	ror	r26
    50e0:	f0 40       	sbci	r31, 0x00	; 0
    50e2:	53 95       	inc	r21
    50e4:	c9 f7       	brne	.-14     	; 0x50d8 <__addsf3x+0x52>
    50e6:	7e f4       	brtc	.+30     	; 0x5106 <__addsf3x+0x80>
    50e8:	1f 16       	cp	r1, r31
    50ea:	ba 0b       	sbc	r27, r26
    50ec:	62 0b       	sbc	r22, r18
    50ee:	73 0b       	sbc	r23, r19
    50f0:	84 0b       	sbc	r24, r20
    50f2:	ba f0       	brmi	.+46     	; 0x5122 <__addsf3x+0x9c>
    50f4:	91 50       	subi	r25, 0x01	; 1
    50f6:	a1 f0       	breq	.+40     	; 0x5120 <__addsf3x+0x9a>
    50f8:	ff 0f       	add	r31, r31
    50fa:	bb 1f       	adc	r27, r27
    50fc:	66 1f       	adc	r22, r22
    50fe:	77 1f       	adc	r23, r23
    5100:	88 1f       	adc	r24, r24
    5102:	c2 f7       	brpl	.-16     	; 0x50f4 <__addsf3x+0x6e>
    5104:	0e c0       	rjmp	.+28     	; 0x5122 <__addsf3x+0x9c>
    5106:	ba 0f       	add	r27, r26
    5108:	62 1f       	adc	r22, r18
    510a:	73 1f       	adc	r23, r19
    510c:	84 1f       	adc	r24, r20
    510e:	48 f4       	brcc	.+18     	; 0x5122 <__addsf3x+0x9c>
    5110:	87 95       	ror	r24
    5112:	77 95       	ror	r23
    5114:	67 95       	ror	r22
    5116:	b7 95       	ror	r27
    5118:	f7 95       	ror	r31
    511a:	9e 3f       	cpi	r25, 0xFE	; 254
    511c:	08 f0       	brcs	.+2      	; 0x5120 <__addsf3x+0x9a>
    511e:	b0 cf       	rjmp	.-160    	; 0x5080 <__addsf3+0x28>
    5120:	93 95       	inc	r25
    5122:	88 0f       	add	r24, r24
    5124:	08 f0       	brcs	.+2      	; 0x5128 <__addsf3x+0xa2>
    5126:	99 27       	eor	r25, r25
    5128:	ee 0f       	add	r30, r30
    512a:	97 95       	ror	r25
    512c:	87 95       	ror	r24
    512e:	08 95       	ret

00005130 <asin>:
    5130:	9f 93       	push	r25
    5132:	9f 77       	andi	r25, 0x7F	; 127
    5134:	ee e3       	ldi	r30, 0x3E	; 62
    5136:	89 37       	cpi	r24, 0x79	; 121
    5138:	9e 07       	cpc	r25, r30
    513a:	28 f4       	brcc	.+10     	; 0x5146 <asin+0x16>
    513c:	ea e0       	ldi	r30, 0x0A	; 10
    513e:	f1 e0       	ldi	r31, 0x01	; 1
    5140:	0e 94 4d 2a 	call	0x549a	; 0x549a <__fp_powsodd>
    5144:	0c c0       	rjmp	.+24     	; 0x515e <asin+0x2e>
    5146:	0e 94 d9 29 	call	0x53b2	; 0x53b2 <__fp_arccos>
    514a:	90 58       	subi	r25, 0x80	; 128
    514c:	a2 ea       	ldi	r26, 0xA2	; 162
    514e:	2a ed       	ldi	r18, 0xDA	; 218
    5150:	3f e0       	ldi	r19, 0x0F	; 15
    5152:	49 ec       	ldi	r20, 0xC9	; 201
    5154:	5f e3       	ldi	r21, 0x3F	; 63
    5156:	0e 94 43 28 	call	0x5086	; 0x5086 <__addsf3x>
    515a:	0e 94 6f 2a 	call	0x54de	; 0x54de <__fp_round>
    515e:	0f 90       	pop	r0
    5160:	07 fc       	sbrc	r0, 7
    5162:	90 58       	subi	r25, 0x80	; 128
    5164:	08 95       	ret
    5166:	0e 94 61 2a 	call	0x54c2	; 0x54c2 <__fp_pscA>
    516a:	60 f0       	brcs	.+24     	; 0x5184 <asin+0x54>
    516c:	80 e8       	ldi	r24, 0x80	; 128
    516e:	91 e0       	ldi	r25, 0x01	; 1
    5170:	09 f4       	brne	.+2      	; 0x5174 <asin+0x44>
    5172:	9e ef       	ldi	r25, 0xFE	; 254
    5174:	0e 94 68 2a 	call	0x54d0	; 0x54d0 <__fp_pscB>
    5178:	28 f0       	brcs	.+10     	; 0x5184 <asin+0x54>
    517a:	40 e8       	ldi	r20, 0x80	; 128
    517c:	51 e0       	ldi	r21, 0x01	; 1
    517e:	71 f4       	brne	.+28     	; 0x519c <atan2+0x10>
    5180:	5e ef       	ldi	r21, 0xFE	; 254
    5182:	0c c0       	rjmp	.+24     	; 0x519c <atan2+0x10>
    5184:	0c 94 23 2a 	jmp	0x5446	; 0x5446 <__fp_nan>
    5188:	0c 94 a2 2a 	jmp	0x5544	; 0x5544 <__fp_zero>

0000518c <atan2>:
    518c:	e9 2f       	mov	r30, r25
    518e:	e0 78       	andi	r30, 0x80	; 128
    5190:	0e 94 80 2a 	call	0x5500	; 0x5500 <__fp_split3>
    5194:	40 f3       	brcs	.-48     	; 0x5166 <asin+0x36>
    5196:	09 2e       	mov	r0, r25
    5198:	05 2a       	or	r0, r21
    519a:	b1 f3       	breq	.-20     	; 0x5188 <asin+0x58>
    519c:	26 17       	cp	r18, r22
    519e:	37 07       	cpc	r19, r23
    51a0:	48 07       	cpc	r20, r24
    51a2:	59 07       	cpc	r21, r25
    51a4:	38 f0       	brcs	.+14     	; 0x51b4 <atan2+0x28>
    51a6:	0e 2e       	mov	r0, r30
    51a8:	07 f8       	bld	r0, 7
    51aa:	e0 25       	eor	r30, r0
    51ac:	69 f0       	breq	.+26     	; 0x51c8 <atan2+0x3c>
    51ae:	e0 25       	eor	r30, r0
    51b0:	e0 64       	ori	r30, 0x40	; 64
    51b2:	0a c0       	rjmp	.+20     	; 0x51c8 <atan2+0x3c>
    51b4:	ef 63       	ori	r30, 0x3F	; 63
    51b6:	07 f8       	bld	r0, 7
    51b8:	00 94       	com	r0
    51ba:	07 fa       	bst	r0, 7
    51bc:	db 01       	movw	r26, r22
    51be:	b9 01       	movw	r22, r18
    51c0:	9d 01       	movw	r18, r26
    51c2:	dc 01       	movw	r26, r24
    51c4:	ca 01       	movw	r24, r20
    51c6:	ad 01       	movw	r20, r26
    51c8:	ef 93       	push	r30
    51ca:	0e 94 41 29 	call	0x5282	; 0x5282 <__divsf3_pse>
    51ce:	0e 94 6f 2a 	call	0x54de	; 0x54de <__fp_round>
    51d2:	0e 94 f6 28 	call	0x51ec	; 0x51ec <atan>
    51d6:	5f 91       	pop	r21
    51d8:	55 23       	and	r21, r21
    51da:	39 f0       	breq	.+14     	; 0x51ea <atan2+0x5e>
    51dc:	2b ed       	ldi	r18, 0xDB	; 219
    51de:	3f e0       	ldi	r19, 0x0F	; 15
    51e0:	49 e4       	ldi	r20, 0x49	; 73
    51e2:	50 fd       	sbrc	r21, 0
    51e4:	49 ec       	ldi	r20, 0xC9	; 201
    51e6:	0c 94 2c 28 	jmp	0x5058	; 0x5058 <__addsf3>
    51ea:	08 95       	ret

000051ec <atan>:
    51ec:	df 93       	push	r29
    51ee:	dd 27       	eor	r29, r29
    51f0:	b9 2f       	mov	r27, r25
    51f2:	bf 77       	andi	r27, 0x7F	; 127
    51f4:	40 e8       	ldi	r20, 0x80	; 128
    51f6:	5f e3       	ldi	r21, 0x3F	; 63
    51f8:	16 16       	cp	r1, r22
    51fa:	17 06       	cpc	r1, r23
    51fc:	48 07       	cpc	r20, r24
    51fe:	5b 07       	cpc	r21, r27
    5200:	18 f4       	brcc	.+6      	; 0x5208 <atan+0x1c>
    5202:	d9 2f       	mov	r29, r25
    5204:	0e 94 a9 2a 	call	0x5552	; 0x5552 <inverse>
    5208:	9f 93       	push	r25
    520a:	8f 93       	push	r24
    520c:	7f 93       	push	r23
    520e:	6f 93       	push	r22
    5210:	0e 94 64 2b 	call	0x56c8	; 0x56c8 <square>
    5214:	ee e1       	ldi	r30, 0x1E	; 30
    5216:	f1 e0       	ldi	r31, 0x01	; 1
    5218:	0e 94 26 2a 	call	0x544c	; 0x544c <__fp_powser>
    521c:	0e 94 6f 2a 	call	0x54de	; 0x54de <__fp_round>
    5220:	2f 91       	pop	r18
    5222:	3f 91       	pop	r19
    5224:	4f 91       	pop	r20
    5226:	5f 91       	pop	r21
    5228:	0e 94 c4 2a 	call	0x5588	; 0x5588 <__mulsf3x>
    522c:	dd 23       	and	r29, r29
    522e:	51 f0       	breq	.+20     	; 0x5244 <atan+0x58>
    5230:	90 58       	subi	r25, 0x80	; 128
    5232:	a2 ea       	ldi	r26, 0xA2	; 162
    5234:	2a ed       	ldi	r18, 0xDA	; 218
    5236:	3f e0       	ldi	r19, 0x0F	; 15
    5238:	49 ec       	ldi	r20, 0xC9	; 201
    523a:	5f e3       	ldi	r21, 0x3F	; 63
    523c:	d0 78       	andi	r29, 0x80	; 128
    523e:	5d 27       	eor	r21, r29
    5240:	0e 94 43 28 	call	0x5086	; 0x5086 <__addsf3x>
    5244:	df 91       	pop	r29
    5246:	0c 94 6f 2a 	jmp	0x54de	; 0x54de <__fp_round>

0000524a <__cmpsf2>:
    524a:	0e 94 f9 29 	call	0x53f2	; 0x53f2 <__fp_cmp>
    524e:	08 f4       	brcc	.+2      	; 0x5252 <__cmpsf2+0x8>
    5250:	81 e0       	ldi	r24, 0x01	; 1
    5252:	08 95       	ret

00005254 <__divsf3>:
    5254:	0e 94 3e 29 	call	0x527c	; 0x527c <__divsf3x>
    5258:	0c 94 6f 2a 	jmp	0x54de	; 0x54de <__fp_round>
    525c:	0e 94 68 2a 	call	0x54d0	; 0x54d0 <__fp_pscB>
    5260:	58 f0       	brcs	.+22     	; 0x5278 <__divsf3+0x24>
    5262:	0e 94 61 2a 	call	0x54c2	; 0x54c2 <__fp_pscA>
    5266:	40 f0       	brcs	.+16     	; 0x5278 <__divsf3+0x24>
    5268:	29 f4       	brne	.+10     	; 0x5274 <__divsf3+0x20>
    526a:	5f 3f       	cpi	r21, 0xFF	; 255
    526c:	29 f0       	breq	.+10     	; 0x5278 <__divsf3+0x24>
    526e:	0c 94 1d 2a 	jmp	0x543a	; 0x543a <__fp_inf>
    5272:	51 11       	cpse	r21, r1
    5274:	0c 94 a3 2a 	jmp	0x5546	; 0x5546 <__fp_szero>
    5278:	0c 94 23 2a 	jmp	0x5446	; 0x5446 <__fp_nan>

0000527c <__divsf3x>:
    527c:	0e 94 80 2a 	call	0x5500	; 0x5500 <__fp_split3>
    5280:	68 f3       	brcs	.-38     	; 0x525c <__divsf3+0x8>

00005282 <__divsf3_pse>:
    5282:	99 23       	and	r25, r25
    5284:	b1 f3       	breq	.-20     	; 0x5272 <__divsf3+0x1e>
    5286:	55 23       	and	r21, r21
    5288:	91 f3       	breq	.-28     	; 0x526e <__divsf3+0x1a>
    528a:	95 1b       	sub	r25, r21
    528c:	55 0b       	sbc	r21, r21
    528e:	bb 27       	eor	r27, r27
    5290:	aa 27       	eor	r26, r26
    5292:	62 17       	cp	r22, r18
    5294:	73 07       	cpc	r23, r19
    5296:	84 07       	cpc	r24, r20
    5298:	38 f0       	brcs	.+14     	; 0x52a8 <__divsf3_pse+0x26>
    529a:	9f 5f       	subi	r25, 0xFF	; 255
    529c:	5f 4f       	sbci	r21, 0xFF	; 255
    529e:	22 0f       	add	r18, r18
    52a0:	33 1f       	adc	r19, r19
    52a2:	44 1f       	adc	r20, r20
    52a4:	aa 1f       	adc	r26, r26
    52a6:	a9 f3       	breq	.-22     	; 0x5292 <__divsf3_pse+0x10>
    52a8:	35 d0       	rcall	.+106    	; 0x5314 <__divsf3_pse+0x92>
    52aa:	0e 2e       	mov	r0, r30
    52ac:	3a f0       	brmi	.+14     	; 0x52bc <__divsf3_pse+0x3a>
    52ae:	e0 e8       	ldi	r30, 0x80	; 128
    52b0:	32 d0       	rcall	.+100    	; 0x5316 <__divsf3_pse+0x94>
    52b2:	91 50       	subi	r25, 0x01	; 1
    52b4:	50 40       	sbci	r21, 0x00	; 0
    52b6:	e6 95       	lsr	r30
    52b8:	00 1c       	adc	r0, r0
    52ba:	ca f7       	brpl	.-14     	; 0x52ae <__divsf3_pse+0x2c>
    52bc:	2b d0       	rcall	.+86     	; 0x5314 <__divsf3_pse+0x92>
    52be:	fe 2f       	mov	r31, r30
    52c0:	29 d0       	rcall	.+82     	; 0x5314 <__divsf3_pse+0x92>
    52c2:	66 0f       	add	r22, r22
    52c4:	77 1f       	adc	r23, r23
    52c6:	88 1f       	adc	r24, r24
    52c8:	bb 1f       	adc	r27, r27
    52ca:	26 17       	cp	r18, r22
    52cc:	37 07       	cpc	r19, r23
    52ce:	48 07       	cpc	r20, r24
    52d0:	ab 07       	cpc	r26, r27
    52d2:	b0 e8       	ldi	r27, 0x80	; 128
    52d4:	09 f0       	breq	.+2      	; 0x52d8 <__divsf3_pse+0x56>
    52d6:	bb 0b       	sbc	r27, r27
    52d8:	80 2d       	mov	r24, r0
    52da:	bf 01       	movw	r22, r30
    52dc:	ff 27       	eor	r31, r31
    52de:	93 58       	subi	r25, 0x83	; 131
    52e0:	5f 4f       	sbci	r21, 0xFF	; 255
    52e2:	3a f0       	brmi	.+14     	; 0x52f2 <__divsf3_pse+0x70>
    52e4:	9e 3f       	cpi	r25, 0xFE	; 254
    52e6:	51 05       	cpc	r21, r1
    52e8:	78 f0       	brcs	.+30     	; 0x5308 <__divsf3_pse+0x86>
    52ea:	0c 94 1d 2a 	jmp	0x543a	; 0x543a <__fp_inf>
    52ee:	0c 94 a3 2a 	jmp	0x5546	; 0x5546 <__fp_szero>
    52f2:	5f 3f       	cpi	r21, 0xFF	; 255
    52f4:	e4 f3       	brlt	.-8      	; 0x52ee <__divsf3_pse+0x6c>
    52f6:	98 3e       	cpi	r25, 0xE8	; 232
    52f8:	d4 f3       	brlt	.-12     	; 0x52ee <__divsf3_pse+0x6c>
    52fa:	86 95       	lsr	r24
    52fc:	77 95       	ror	r23
    52fe:	67 95       	ror	r22
    5300:	b7 95       	ror	r27
    5302:	f7 95       	ror	r31
    5304:	9f 5f       	subi	r25, 0xFF	; 255
    5306:	c9 f7       	brne	.-14     	; 0x52fa <__divsf3_pse+0x78>
    5308:	88 0f       	add	r24, r24
    530a:	91 1d       	adc	r25, r1
    530c:	96 95       	lsr	r25
    530e:	87 95       	ror	r24
    5310:	97 f9       	bld	r25, 7
    5312:	08 95       	ret
    5314:	e1 e0       	ldi	r30, 0x01	; 1
    5316:	66 0f       	add	r22, r22
    5318:	77 1f       	adc	r23, r23
    531a:	88 1f       	adc	r24, r24
    531c:	bb 1f       	adc	r27, r27
    531e:	62 17       	cp	r22, r18
    5320:	73 07       	cpc	r23, r19
    5322:	84 07       	cpc	r24, r20
    5324:	ba 07       	cpc	r27, r26
    5326:	20 f0       	brcs	.+8      	; 0x5330 <__divsf3_pse+0xae>
    5328:	62 1b       	sub	r22, r18
    532a:	73 0b       	sbc	r23, r19
    532c:	84 0b       	sbc	r24, r20
    532e:	ba 0b       	sbc	r27, r26
    5330:	ee 1f       	adc	r30, r30
    5332:	88 f7       	brcc	.-30     	; 0x5316 <__divsf3_pse+0x94>
    5334:	e0 95       	com	r30
    5336:	08 95       	ret

00005338 <__floatunsisf>:
    5338:	e8 94       	clt
    533a:	09 c0       	rjmp	.+18     	; 0x534e <__floatsisf+0x12>

0000533c <__floatsisf>:
    533c:	97 fb       	bst	r25, 7
    533e:	3e f4       	brtc	.+14     	; 0x534e <__floatsisf+0x12>
    5340:	90 95       	com	r25
    5342:	80 95       	com	r24
    5344:	70 95       	com	r23
    5346:	61 95       	neg	r22
    5348:	7f 4f       	sbci	r23, 0xFF	; 255
    534a:	8f 4f       	sbci	r24, 0xFF	; 255
    534c:	9f 4f       	sbci	r25, 0xFF	; 255
    534e:	99 23       	and	r25, r25
    5350:	a9 f0       	breq	.+42     	; 0x537c <__floatsisf+0x40>
    5352:	f9 2f       	mov	r31, r25
    5354:	96 e9       	ldi	r25, 0x96	; 150
    5356:	bb 27       	eor	r27, r27
    5358:	93 95       	inc	r25
    535a:	f6 95       	lsr	r31
    535c:	87 95       	ror	r24
    535e:	77 95       	ror	r23
    5360:	67 95       	ror	r22
    5362:	b7 95       	ror	r27
    5364:	f1 11       	cpse	r31, r1
    5366:	f8 cf       	rjmp	.-16     	; 0x5358 <__floatsisf+0x1c>
    5368:	fa f4       	brpl	.+62     	; 0x53a8 <__floatsisf+0x6c>
    536a:	bb 0f       	add	r27, r27
    536c:	11 f4       	brne	.+4      	; 0x5372 <__floatsisf+0x36>
    536e:	60 ff       	sbrs	r22, 0
    5370:	1b c0       	rjmp	.+54     	; 0x53a8 <__floatsisf+0x6c>
    5372:	6f 5f       	subi	r22, 0xFF	; 255
    5374:	7f 4f       	sbci	r23, 0xFF	; 255
    5376:	8f 4f       	sbci	r24, 0xFF	; 255
    5378:	9f 4f       	sbci	r25, 0xFF	; 255
    537a:	16 c0       	rjmp	.+44     	; 0x53a8 <__floatsisf+0x6c>
    537c:	88 23       	and	r24, r24
    537e:	11 f0       	breq	.+4      	; 0x5384 <__floatsisf+0x48>
    5380:	96 e9       	ldi	r25, 0x96	; 150
    5382:	11 c0       	rjmp	.+34     	; 0x53a6 <__floatsisf+0x6a>
    5384:	77 23       	and	r23, r23
    5386:	21 f0       	breq	.+8      	; 0x5390 <__floatsisf+0x54>
    5388:	9e e8       	ldi	r25, 0x8E	; 142
    538a:	87 2f       	mov	r24, r23
    538c:	76 2f       	mov	r23, r22
    538e:	05 c0       	rjmp	.+10     	; 0x539a <__floatsisf+0x5e>
    5390:	66 23       	and	r22, r22
    5392:	71 f0       	breq	.+28     	; 0x53b0 <__floatsisf+0x74>
    5394:	96 e8       	ldi	r25, 0x86	; 134
    5396:	86 2f       	mov	r24, r22
    5398:	70 e0       	ldi	r23, 0x00	; 0
    539a:	60 e0       	ldi	r22, 0x00	; 0
    539c:	2a f0       	brmi	.+10     	; 0x53a8 <__floatsisf+0x6c>
    539e:	9a 95       	dec	r25
    53a0:	66 0f       	add	r22, r22
    53a2:	77 1f       	adc	r23, r23
    53a4:	88 1f       	adc	r24, r24
    53a6:	da f7       	brpl	.-10     	; 0x539e <__floatsisf+0x62>
    53a8:	88 0f       	add	r24, r24
    53aa:	96 95       	lsr	r25
    53ac:	87 95       	ror	r24
    53ae:	97 f9       	bld	r25, 7
    53b0:	08 95       	ret

000053b2 <__fp_arccos>:
    53b2:	df 93       	push	r29
    53b4:	cf 93       	push	r28
    53b6:	1f 93       	push	r17
    53b8:	0f 93       	push	r16
    53ba:	8b 01       	movw	r16, r22
    53bc:	ec 01       	movw	r28, r24
    53be:	eb e4       	ldi	r30, 0x4B	; 75
    53c0:	f1 e0       	ldi	r31, 0x01	; 1
    53c2:	0e 94 26 2a 	call	0x544c	; 0x544c <__fp_powser>
    53c6:	0e 94 6f 2a 	call	0x54de	; 0x54de <__fp_round>
    53ca:	98 01       	movw	r18, r16
    53cc:	ae 01       	movw	r20, r28
    53ce:	8b 01       	movw	r16, r22
    53d0:	ec 01       	movw	r28, r24
    53d2:	60 e0       	ldi	r22, 0x00	; 0
    53d4:	70 e0       	ldi	r23, 0x00	; 0
    53d6:	80 e8       	ldi	r24, 0x80	; 128
    53d8:	9f e3       	ldi	r25, 0x3F	; 63
    53da:	0e 94 2b 28 	call	0x5056	; 0x5056 <__subsf3>
    53de:	0e 94 24 2b 	call	0x5648	; 0x5648 <sqrt>
    53e2:	98 01       	movw	r18, r16
    53e4:	ae 01       	movw	r20, r28
    53e6:	0f 91       	pop	r16
    53e8:	1f 91       	pop	r17
    53ea:	cf 91       	pop	r28
    53ec:	df 91       	pop	r29
    53ee:	0c 94 c4 2a 	jmp	0x5588	; 0x5588 <__mulsf3x>

000053f2 <__fp_cmp>:
    53f2:	99 0f       	add	r25, r25
    53f4:	00 08       	sbc	r0, r0
    53f6:	55 0f       	add	r21, r21
    53f8:	aa 0b       	sbc	r26, r26
    53fa:	e0 e8       	ldi	r30, 0x80	; 128
    53fc:	fe ef       	ldi	r31, 0xFE	; 254
    53fe:	16 16       	cp	r1, r22
    5400:	17 06       	cpc	r1, r23
    5402:	e8 07       	cpc	r30, r24
    5404:	f9 07       	cpc	r31, r25
    5406:	c0 f0       	brcs	.+48     	; 0x5438 <__fp_cmp+0x46>
    5408:	12 16       	cp	r1, r18
    540a:	13 06       	cpc	r1, r19
    540c:	e4 07       	cpc	r30, r20
    540e:	f5 07       	cpc	r31, r21
    5410:	98 f0       	brcs	.+38     	; 0x5438 <__fp_cmp+0x46>
    5412:	62 1b       	sub	r22, r18
    5414:	73 0b       	sbc	r23, r19
    5416:	84 0b       	sbc	r24, r20
    5418:	95 0b       	sbc	r25, r21
    541a:	39 f4       	brne	.+14     	; 0x542a <__fp_cmp+0x38>
    541c:	0a 26       	eor	r0, r26
    541e:	61 f0       	breq	.+24     	; 0x5438 <__fp_cmp+0x46>
    5420:	23 2b       	or	r18, r19
    5422:	24 2b       	or	r18, r20
    5424:	25 2b       	or	r18, r21
    5426:	21 f4       	brne	.+8      	; 0x5430 <__fp_cmp+0x3e>
    5428:	08 95       	ret
    542a:	0a 26       	eor	r0, r26
    542c:	09 f4       	brne	.+2      	; 0x5430 <__fp_cmp+0x3e>
    542e:	a1 40       	sbci	r26, 0x01	; 1
    5430:	a6 95       	lsr	r26
    5432:	8f ef       	ldi	r24, 0xFF	; 255
    5434:	81 1d       	adc	r24, r1
    5436:	81 1d       	adc	r24, r1
    5438:	08 95       	ret

0000543a <__fp_inf>:
    543a:	97 f9       	bld	r25, 7
    543c:	9f 67       	ori	r25, 0x7F	; 127
    543e:	80 e8       	ldi	r24, 0x80	; 128
    5440:	70 e0       	ldi	r23, 0x00	; 0
    5442:	60 e0       	ldi	r22, 0x00	; 0
    5444:	08 95       	ret

00005446 <__fp_nan>:
    5446:	9f ef       	ldi	r25, 0xFF	; 255
    5448:	80 ec       	ldi	r24, 0xC0	; 192
    544a:	08 95       	ret

0000544c <__fp_powser>:
    544c:	df 93       	push	r29
    544e:	cf 93       	push	r28
    5450:	1f 93       	push	r17
    5452:	0f 93       	push	r16
    5454:	ff 92       	push	r15
    5456:	ef 92       	push	r14
    5458:	df 92       	push	r13
    545a:	7b 01       	movw	r14, r22
    545c:	8c 01       	movw	r16, r24
    545e:	68 94       	set
    5460:	06 c0       	rjmp	.+12     	; 0x546e <__fp_powser+0x22>
    5462:	da 2e       	mov	r13, r26
    5464:	ef 01       	movw	r28, r30
    5466:	0e 94 c4 2a 	call	0x5588	; 0x5588 <__mulsf3x>
    546a:	fe 01       	movw	r30, r28
    546c:	e8 94       	clt
    546e:	a5 91       	lpm	r26, Z+
    5470:	25 91       	lpm	r18, Z+
    5472:	35 91       	lpm	r19, Z+
    5474:	45 91       	lpm	r20, Z+
    5476:	55 91       	lpm	r21, Z+
    5478:	a6 f3       	brts	.-24     	; 0x5462 <__fp_powser+0x16>
    547a:	ef 01       	movw	r28, r30
    547c:	0e 94 43 28 	call	0x5086	; 0x5086 <__addsf3x>
    5480:	fe 01       	movw	r30, r28
    5482:	97 01       	movw	r18, r14
    5484:	a8 01       	movw	r20, r16
    5486:	da 94       	dec	r13
    5488:	69 f7       	brne	.-38     	; 0x5464 <__fp_powser+0x18>
    548a:	df 90       	pop	r13
    548c:	ef 90       	pop	r14
    548e:	ff 90       	pop	r15
    5490:	0f 91       	pop	r16
    5492:	1f 91       	pop	r17
    5494:	cf 91       	pop	r28
    5496:	df 91       	pop	r29
    5498:	08 95       	ret

0000549a <__fp_powsodd>:
    549a:	9f 93       	push	r25
    549c:	8f 93       	push	r24
    549e:	7f 93       	push	r23
    54a0:	6f 93       	push	r22
    54a2:	ff 93       	push	r31
    54a4:	ef 93       	push	r30
    54a6:	9b 01       	movw	r18, r22
    54a8:	ac 01       	movw	r20, r24
    54aa:	0e 94 b1 2a 	call	0x5562	; 0x5562 <__mulsf3>
    54ae:	ef 91       	pop	r30
    54b0:	ff 91       	pop	r31
    54b2:	0e 94 26 2a 	call	0x544c	; 0x544c <__fp_powser>
    54b6:	2f 91       	pop	r18
    54b8:	3f 91       	pop	r19
    54ba:	4f 91       	pop	r20
    54bc:	5f 91       	pop	r21
    54be:	0c 94 b1 2a 	jmp	0x5562	; 0x5562 <__mulsf3>

000054c2 <__fp_pscA>:
    54c2:	00 24       	eor	r0, r0
    54c4:	0a 94       	dec	r0
    54c6:	16 16       	cp	r1, r22
    54c8:	17 06       	cpc	r1, r23
    54ca:	18 06       	cpc	r1, r24
    54cc:	09 06       	cpc	r0, r25
    54ce:	08 95       	ret

000054d0 <__fp_pscB>:
    54d0:	00 24       	eor	r0, r0
    54d2:	0a 94       	dec	r0
    54d4:	12 16       	cp	r1, r18
    54d6:	13 06       	cpc	r1, r19
    54d8:	14 06       	cpc	r1, r20
    54da:	05 06       	cpc	r0, r21
    54dc:	08 95       	ret

000054de <__fp_round>:
    54de:	09 2e       	mov	r0, r25
    54e0:	03 94       	inc	r0
    54e2:	00 0c       	add	r0, r0
    54e4:	11 f4       	brne	.+4      	; 0x54ea <__fp_round+0xc>
    54e6:	88 23       	and	r24, r24
    54e8:	52 f0       	brmi	.+20     	; 0x54fe <__fp_round+0x20>
    54ea:	bb 0f       	add	r27, r27
    54ec:	40 f4       	brcc	.+16     	; 0x54fe <__fp_round+0x20>
    54ee:	bf 2b       	or	r27, r31
    54f0:	11 f4       	brne	.+4      	; 0x54f6 <__fp_round+0x18>
    54f2:	60 ff       	sbrs	r22, 0
    54f4:	04 c0       	rjmp	.+8      	; 0x54fe <__fp_round+0x20>
    54f6:	6f 5f       	subi	r22, 0xFF	; 255
    54f8:	7f 4f       	sbci	r23, 0xFF	; 255
    54fa:	8f 4f       	sbci	r24, 0xFF	; 255
    54fc:	9f 4f       	sbci	r25, 0xFF	; 255
    54fe:	08 95       	ret

00005500 <__fp_split3>:
    5500:	57 fd       	sbrc	r21, 7
    5502:	90 58       	subi	r25, 0x80	; 128
    5504:	44 0f       	add	r20, r20
    5506:	55 1f       	adc	r21, r21
    5508:	59 f0       	breq	.+22     	; 0x5520 <__fp_splitA+0x10>
    550a:	5f 3f       	cpi	r21, 0xFF	; 255
    550c:	71 f0       	breq	.+28     	; 0x552a <__fp_splitA+0x1a>
    550e:	47 95       	ror	r20

00005510 <__fp_splitA>:
    5510:	88 0f       	add	r24, r24
    5512:	97 fb       	bst	r25, 7
    5514:	99 1f       	adc	r25, r25
    5516:	61 f0       	breq	.+24     	; 0x5530 <__fp_splitA+0x20>
    5518:	9f 3f       	cpi	r25, 0xFF	; 255
    551a:	79 f0       	breq	.+30     	; 0x553a <__fp_splitA+0x2a>
    551c:	87 95       	ror	r24
    551e:	08 95       	ret
    5520:	12 16       	cp	r1, r18
    5522:	13 06       	cpc	r1, r19
    5524:	14 06       	cpc	r1, r20
    5526:	55 1f       	adc	r21, r21
    5528:	f2 cf       	rjmp	.-28     	; 0x550e <__fp_split3+0xe>
    552a:	46 95       	lsr	r20
    552c:	f1 df       	rcall	.-30     	; 0x5510 <__fp_splitA>
    552e:	08 c0       	rjmp	.+16     	; 0x5540 <__fp_splitA+0x30>
    5530:	16 16       	cp	r1, r22
    5532:	17 06       	cpc	r1, r23
    5534:	18 06       	cpc	r1, r24
    5536:	99 1f       	adc	r25, r25
    5538:	f1 cf       	rjmp	.-30     	; 0x551c <__fp_splitA+0xc>
    553a:	86 95       	lsr	r24
    553c:	71 05       	cpc	r23, r1
    553e:	61 05       	cpc	r22, r1
    5540:	08 94       	sec
    5542:	08 95       	ret

00005544 <__fp_zero>:
    5544:	e8 94       	clt

00005546 <__fp_szero>:
    5546:	bb 27       	eor	r27, r27
    5548:	66 27       	eor	r22, r22
    554a:	77 27       	eor	r23, r23
    554c:	cb 01       	movw	r24, r22
    554e:	97 f9       	bld	r25, 7
    5550:	08 95       	ret

00005552 <inverse>:
    5552:	9b 01       	movw	r18, r22
    5554:	ac 01       	movw	r20, r24
    5556:	60 e0       	ldi	r22, 0x00	; 0
    5558:	70 e0       	ldi	r23, 0x00	; 0
    555a:	80 e8       	ldi	r24, 0x80	; 128
    555c:	9f e3       	ldi	r25, 0x3F	; 63
    555e:	0c 94 2a 29 	jmp	0x5254	; 0x5254 <__divsf3>

00005562 <__mulsf3>:
    5562:	0e 94 c4 2a 	call	0x5588	; 0x5588 <__mulsf3x>
    5566:	0c 94 6f 2a 	jmp	0x54de	; 0x54de <__fp_round>
    556a:	0e 94 61 2a 	call	0x54c2	; 0x54c2 <__fp_pscA>
    556e:	38 f0       	brcs	.+14     	; 0x557e <__mulsf3+0x1c>
    5570:	0e 94 68 2a 	call	0x54d0	; 0x54d0 <__fp_pscB>
    5574:	20 f0       	brcs	.+8      	; 0x557e <__mulsf3+0x1c>
    5576:	95 23       	and	r25, r21
    5578:	11 f0       	breq	.+4      	; 0x557e <__mulsf3+0x1c>
    557a:	0c 94 1d 2a 	jmp	0x543a	; 0x543a <__fp_inf>
    557e:	0c 94 23 2a 	jmp	0x5446	; 0x5446 <__fp_nan>
    5582:	11 24       	eor	r1, r1
    5584:	0c 94 a3 2a 	jmp	0x5546	; 0x5546 <__fp_szero>

00005588 <__mulsf3x>:
    5588:	0e 94 80 2a 	call	0x5500	; 0x5500 <__fp_split3>
    558c:	70 f3       	brcs	.-36     	; 0x556a <__mulsf3+0x8>

0000558e <__mulsf3_pse>:
    558e:	95 9f       	mul	r25, r21
    5590:	c1 f3       	breq	.-16     	; 0x5582 <__mulsf3+0x20>
    5592:	95 0f       	add	r25, r21
    5594:	50 e0       	ldi	r21, 0x00	; 0
    5596:	55 1f       	adc	r21, r21
    5598:	62 9f       	mul	r22, r18
    559a:	f0 01       	movw	r30, r0
    559c:	72 9f       	mul	r23, r18
    559e:	bb 27       	eor	r27, r27
    55a0:	f0 0d       	add	r31, r0
    55a2:	b1 1d       	adc	r27, r1
    55a4:	63 9f       	mul	r22, r19
    55a6:	aa 27       	eor	r26, r26
    55a8:	f0 0d       	add	r31, r0
    55aa:	b1 1d       	adc	r27, r1
    55ac:	aa 1f       	adc	r26, r26
    55ae:	64 9f       	mul	r22, r20
    55b0:	66 27       	eor	r22, r22
    55b2:	b0 0d       	add	r27, r0
    55b4:	a1 1d       	adc	r26, r1
    55b6:	66 1f       	adc	r22, r22
    55b8:	82 9f       	mul	r24, r18
    55ba:	22 27       	eor	r18, r18
    55bc:	b0 0d       	add	r27, r0
    55be:	a1 1d       	adc	r26, r1
    55c0:	62 1f       	adc	r22, r18
    55c2:	73 9f       	mul	r23, r19
    55c4:	b0 0d       	add	r27, r0
    55c6:	a1 1d       	adc	r26, r1
    55c8:	62 1f       	adc	r22, r18
    55ca:	83 9f       	mul	r24, r19
    55cc:	a0 0d       	add	r26, r0
    55ce:	61 1d       	adc	r22, r1
    55d0:	22 1f       	adc	r18, r18
    55d2:	74 9f       	mul	r23, r20
    55d4:	33 27       	eor	r19, r19
    55d6:	a0 0d       	add	r26, r0
    55d8:	61 1d       	adc	r22, r1
    55da:	23 1f       	adc	r18, r19
    55dc:	84 9f       	mul	r24, r20
    55de:	60 0d       	add	r22, r0
    55e0:	21 1d       	adc	r18, r1
    55e2:	82 2f       	mov	r24, r18
    55e4:	76 2f       	mov	r23, r22
    55e6:	6a 2f       	mov	r22, r26
    55e8:	11 24       	eor	r1, r1
    55ea:	9f 57       	subi	r25, 0x7F	; 127
    55ec:	50 40       	sbci	r21, 0x00	; 0
    55ee:	9a f0       	brmi	.+38     	; 0x5616 <__mulsf3_pse+0x88>
    55f0:	f1 f0       	breq	.+60     	; 0x562e <__mulsf3_pse+0xa0>
    55f2:	88 23       	and	r24, r24
    55f4:	4a f0       	brmi	.+18     	; 0x5608 <__mulsf3_pse+0x7a>
    55f6:	ee 0f       	add	r30, r30
    55f8:	ff 1f       	adc	r31, r31
    55fa:	bb 1f       	adc	r27, r27
    55fc:	66 1f       	adc	r22, r22
    55fe:	77 1f       	adc	r23, r23
    5600:	88 1f       	adc	r24, r24
    5602:	91 50       	subi	r25, 0x01	; 1
    5604:	50 40       	sbci	r21, 0x00	; 0
    5606:	a9 f7       	brne	.-22     	; 0x55f2 <__mulsf3_pse+0x64>
    5608:	9e 3f       	cpi	r25, 0xFE	; 254
    560a:	51 05       	cpc	r21, r1
    560c:	80 f0       	brcs	.+32     	; 0x562e <__mulsf3_pse+0xa0>
    560e:	0c 94 1d 2a 	jmp	0x543a	; 0x543a <__fp_inf>
    5612:	0c 94 a3 2a 	jmp	0x5546	; 0x5546 <__fp_szero>
    5616:	5f 3f       	cpi	r21, 0xFF	; 255
    5618:	e4 f3       	brlt	.-8      	; 0x5612 <__mulsf3_pse+0x84>
    561a:	98 3e       	cpi	r25, 0xE8	; 232
    561c:	d4 f3       	brlt	.-12     	; 0x5612 <__mulsf3_pse+0x84>
    561e:	86 95       	lsr	r24
    5620:	77 95       	ror	r23
    5622:	67 95       	ror	r22
    5624:	b7 95       	ror	r27
    5626:	f7 95       	ror	r31
    5628:	e7 95       	ror	r30
    562a:	9f 5f       	subi	r25, 0xFF	; 255
    562c:	c1 f7       	brne	.-16     	; 0x561e <__mulsf3_pse+0x90>
    562e:	fe 2b       	or	r31, r30
    5630:	88 0f       	add	r24, r24
    5632:	91 1d       	adc	r25, r1
    5634:	96 95       	lsr	r25
    5636:	87 95       	ror	r24
    5638:	97 f9       	bld	r25, 7
    563a:	08 95       	ret
    563c:	19 f4       	brne	.+6      	; 0x5644 <__mulsf3_pse+0xb6>
    563e:	16 f4       	brtc	.+4      	; 0x5644 <__mulsf3_pse+0xb6>
    5640:	0c 94 23 2a 	jmp	0x5446	; 0x5446 <__fp_nan>
    5644:	0c 94 68 2b 	jmp	0x56d0	; 0x56d0 <__fp_mpack>

00005648 <sqrt>:
    5648:	0e 94 88 2a 	call	0x5510	; 0x5510 <__fp_splitA>
    564c:	b8 f3       	brcs	.-18     	; 0x563c <__mulsf3_pse+0xae>
    564e:	99 23       	and	r25, r25
    5650:	c9 f3       	breq	.-14     	; 0x5644 <__mulsf3_pse+0xb6>
    5652:	b6 f3       	brts	.-20     	; 0x5640 <__mulsf3_pse+0xb2>
    5654:	9f 57       	subi	r25, 0x7F	; 127
    5656:	55 0b       	sbc	r21, r21
    5658:	87 ff       	sbrs	r24, 7
    565a:	0e 94 76 2b 	call	0x56ec	; 0x56ec <__fp_norm2>
    565e:	00 24       	eor	r0, r0
    5660:	a0 e6       	ldi	r26, 0x60	; 96
    5662:	40 ea       	ldi	r20, 0xA0	; 160
    5664:	90 01       	movw	r18, r0
    5666:	80 58       	subi	r24, 0x80	; 128
    5668:	56 95       	lsr	r21
    566a:	97 95       	ror	r25
    566c:	28 f4       	brcc	.+10     	; 0x5678 <sqrt+0x30>
    566e:	80 5c       	subi	r24, 0xC0	; 192
    5670:	66 0f       	add	r22, r22
    5672:	77 1f       	adc	r23, r23
    5674:	88 1f       	adc	r24, r24
    5676:	20 f0       	brcs	.+8      	; 0x5680 <sqrt+0x38>
    5678:	26 17       	cp	r18, r22
    567a:	37 07       	cpc	r19, r23
    567c:	48 07       	cpc	r20, r24
    567e:	30 f4       	brcc	.+12     	; 0x568c <sqrt+0x44>
    5680:	62 1b       	sub	r22, r18
    5682:	73 0b       	sbc	r23, r19
    5684:	84 0b       	sbc	r24, r20
    5686:	20 29       	or	r18, r0
    5688:	31 29       	or	r19, r1
    568a:	4a 2b       	or	r20, r26
    568c:	a6 95       	lsr	r26
    568e:	17 94       	ror	r1
    5690:	07 94       	ror	r0
    5692:	20 25       	eor	r18, r0
    5694:	31 25       	eor	r19, r1
    5696:	4a 27       	eor	r20, r26
    5698:	58 f7       	brcc	.-42     	; 0x5670 <sqrt+0x28>
    569a:	66 0f       	add	r22, r22
    569c:	77 1f       	adc	r23, r23
    569e:	88 1f       	adc	r24, r24
    56a0:	20 f0       	brcs	.+8      	; 0x56aa <sqrt+0x62>
    56a2:	26 17       	cp	r18, r22
    56a4:	37 07       	cpc	r19, r23
    56a6:	48 07       	cpc	r20, r24
    56a8:	30 f4       	brcc	.+12     	; 0x56b6 <sqrt+0x6e>
    56aa:	62 0b       	sbc	r22, r18
    56ac:	73 0b       	sbc	r23, r19
    56ae:	84 0b       	sbc	r24, r20
    56b0:	20 0d       	add	r18, r0
    56b2:	31 1d       	adc	r19, r1
    56b4:	41 1d       	adc	r20, r1
    56b6:	a0 95       	com	r26
    56b8:	81 f7       	brne	.-32     	; 0x569a <sqrt+0x52>
    56ba:	b9 01       	movw	r22, r18
    56bc:	84 2f       	mov	r24, r20
    56be:	91 58       	subi	r25, 0x81	; 129
    56c0:	88 0f       	add	r24, r24
    56c2:	96 95       	lsr	r25
    56c4:	87 95       	ror	r24
    56c6:	08 95       	ret

000056c8 <square>:
    56c8:	9b 01       	movw	r18, r22
    56ca:	ac 01       	movw	r20, r24
    56cc:	0c 94 b1 2a 	jmp	0x5562	; 0x5562 <__mulsf3>

000056d0 <__fp_mpack>:
    56d0:	9f 3f       	cpi	r25, 0xFF	; 255
    56d2:	31 f0       	breq	.+12     	; 0x56e0 <__fp_mpack_finite+0xc>

000056d4 <__fp_mpack_finite>:
    56d4:	91 50       	subi	r25, 0x01	; 1
    56d6:	20 f4       	brcc	.+8      	; 0x56e0 <__fp_mpack_finite+0xc>
    56d8:	87 95       	ror	r24
    56da:	77 95       	ror	r23
    56dc:	67 95       	ror	r22
    56de:	b7 95       	ror	r27
    56e0:	88 0f       	add	r24, r24
    56e2:	91 1d       	adc	r25, r1
    56e4:	96 95       	lsr	r25
    56e6:	87 95       	ror	r24
    56e8:	97 f9       	bld	r25, 7
    56ea:	08 95       	ret

000056ec <__fp_norm2>:
    56ec:	91 50       	subi	r25, 0x01	; 1
    56ee:	50 40       	sbci	r21, 0x00	; 0
    56f0:	66 0f       	add	r22, r22
    56f2:	77 1f       	adc	r23, r23
    56f4:	88 1f       	adc	r24, r24
    56f6:	d2 f7       	brpl	.-12     	; 0x56ec <__fp_norm2>
    56f8:	08 95       	ret

000056fa <dtostrf>:
    56fa:	ef 92       	push	r14
    56fc:	0f 93       	push	r16
    56fe:	1f 93       	push	r17
    5700:	cf 93       	push	r28
    5702:	df 93       	push	r29
    5704:	e8 01       	movw	r28, r16
    5706:	47 fd       	sbrc	r20, 7
    5708:	02 c0       	rjmp	.+4      	; 0x570e <dtostrf+0x14>
    570a:	34 e0       	ldi	r19, 0x04	; 4
    570c:	01 c0       	rjmp	.+2      	; 0x5710 <dtostrf+0x16>
    570e:	34 e1       	ldi	r19, 0x14	; 20
    5710:	04 2e       	mov	r0, r20
    5712:	00 0c       	add	r0, r0
    5714:	55 0b       	sbc	r21, r21
    5716:	57 ff       	sbrs	r21, 7
    5718:	03 c0       	rjmp	.+6      	; 0x5720 <dtostrf+0x26>
    571a:	51 95       	neg	r21
    571c:	41 95       	neg	r20
    571e:	51 09       	sbc	r21, r1
    5720:	e3 2e       	mov	r14, r19
    5722:	02 2f       	mov	r16, r18
    5724:	24 2f       	mov	r18, r20
    5726:	ae 01       	movw	r20, r28
    5728:	0e 94 c1 2d 	call	0x5b82	; 0x5b82 <dtoa_prf>
    572c:	ce 01       	movw	r24, r28
    572e:	df 91       	pop	r29
    5730:	cf 91       	pop	r28
    5732:	1f 91       	pop	r17
    5734:	0f 91       	pop	r16
    5736:	ef 90       	pop	r14
    5738:	08 95       	ret

0000573a <memcmp>:
    573a:	fb 01       	movw	r30, r22
    573c:	dc 01       	movw	r26, r24
    573e:	04 c0       	rjmp	.+8      	; 0x5748 <memcmp+0xe>
    5740:	8d 91       	ld	r24, X+
    5742:	01 90       	ld	r0, Z+
    5744:	80 19       	sub	r24, r0
    5746:	21 f4       	brne	.+8      	; 0x5750 <memcmp+0x16>
    5748:	41 50       	subi	r20, 0x01	; 1
    574a:	50 40       	sbci	r21, 0x00	; 0
    574c:	c8 f7       	brcc	.-14     	; 0x5740 <memcmp+0x6>
    574e:	88 1b       	sub	r24, r24
    5750:	99 0b       	sbc	r25, r25
    5752:	08 95       	ret

00005754 <memcpy>:
    5754:	fb 01       	movw	r30, r22
    5756:	dc 01       	movw	r26, r24
    5758:	02 c0       	rjmp	.+4      	; 0x575e <memcpy+0xa>
    575a:	01 90       	ld	r0, Z+
    575c:	0d 92       	st	X+, r0
    575e:	41 50       	subi	r20, 0x01	; 1
    5760:	50 40       	sbci	r21, 0x00	; 0
    5762:	d8 f7       	brcc	.-10     	; 0x575a <memcpy+0x6>
    5764:	08 95       	ret

00005766 <strcat>:
    5766:	fb 01       	movw	r30, r22
    5768:	dc 01       	movw	r26, r24
    576a:	0d 90       	ld	r0, X+
    576c:	00 20       	and	r0, r0
    576e:	e9 f7       	brne	.-6      	; 0x576a <strcat+0x4>
    5770:	11 97       	sbiw	r26, 0x01	; 1
    5772:	01 90       	ld	r0, Z+
    5774:	0d 92       	st	X+, r0
    5776:	00 20       	and	r0, r0
    5778:	e1 f7       	brne	.-8      	; 0x5772 <strcat+0xc>
    577a:	08 95       	ret

0000577c <sprintf>:
    577c:	ae e0       	ldi	r26, 0x0E	; 14
    577e:	b0 e0       	ldi	r27, 0x00	; 0
    5780:	e4 ec       	ldi	r30, 0xC4	; 196
    5782:	fb e2       	ldi	r31, 0x2B	; 43
    5784:	0c 94 b1 30 	jmp	0x6162	; 0x6162 <__prologue_saves__+0x1c>
    5788:	0d 89       	ldd	r16, Y+21	; 0x15
    578a:	1e 89       	ldd	r17, Y+22	; 0x16
    578c:	86 e0       	ldi	r24, 0x06	; 6
    578e:	8c 83       	std	Y+4, r24	; 0x04
    5790:	1a 83       	std	Y+2, r17	; 0x02
    5792:	09 83       	std	Y+1, r16	; 0x01
    5794:	8f ef       	ldi	r24, 0xFF	; 255
    5796:	9f e7       	ldi	r25, 0x7F	; 127
    5798:	9e 83       	std	Y+6, r25	; 0x06
    579a:	8d 83       	std	Y+5, r24	; 0x05
    579c:	ae 01       	movw	r20, r28
    579e:	47 5e       	subi	r20, 0xE7	; 231
    57a0:	5f 4f       	sbci	r21, 0xFF	; 255
    57a2:	6f 89       	ldd	r22, Y+23	; 0x17
    57a4:	78 8d       	ldd	r23, Y+24	; 0x18
    57a6:	ce 01       	movw	r24, r28
    57a8:	01 96       	adiw	r24, 0x01	; 1
    57aa:	0e 94 e0 2b 	call	0x57c0	; 0x57c0 <vfprintf>
    57ae:	ef 81       	ldd	r30, Y+7	; 0x07
    57b0:	f8 85       	ldd	r31, Y+8	; 0x08
    57b2:	e0 0f       	add	r30, r16
    57b4:	f1 1f       	adc	r31, r17
    57b6:	10 82       	st	Z, r1
    57b8:	2e 96       	adiw	r28, 0x0e	; 14
    57ba:	e4 e0       	ldi	r30, 0x04	; 4
    57bc:	0c 94 cd 30 	jmp	0x619a	; 0x619a <__epilogue_restores__+0x1c>

000057c0 <vfprintf>:
    57c0:	ab e0       	ldi	r26, 0x0B	; 11
    57c2:	b0 e0       	ldi	r27, 0x00	; 0
    57c4:	e6 ee       	ldi	r30, 0xE6	; 230
    57c6:	fb e2       	ldi	r31, 0x2B	; 43
    57c8:	0c 94 a3 30 	jmp	0x6146	; 0x6146 <__prologue_saves__>
    57cc:	6c 01       	movw	r12, r24
    57ce:	7b 01       	movw	r14, r22
    57d0:	8a 01       	movw	r16, r20
    57d2:	fc 01       	movw	r30, r24
    57d4:	17 82       	std	Z+7, r1	; 0x07
    57d6:	16 82       	std	Z+6, r1	; 0x06
    57d8:	83 81       	ldd	r24, Z+3	; 0x03
    57da:	81 ff       	sbrs	r24, 1
    57dc:	cc c1       	rjmp	.+920    	; 0x5b76 <vfprintf+0x3b6>
    57de:	ce 01       	movw	r24, r28
    57e0:	01 96       	adiw	r24, 0x01	; 1
    57e2:	3c 01       	movw	r6, r24
    57e4:	f6 01       	movw	r30, r12
    57e6:	93 81       	ldd	r25, Z+3	; 0x03
    57e8:	f7 01       	movw	r30, r14
    57ea:	93 fd       	sbrc	r25, 3
    57ec:	85 91       	lpm	r24, Z+
    57ee:	93 ff       	sbrs	r25, 3
    57f0:	81 91       	ld	r24, Z+
    57f2:	7f 01       	movw	r14, r30
    57f4:	88 23       	and	r24, r24
    57f6:	09 f4       	brne	.+2      	; 0x57fa <vfprintf+0x3a>
    57f8:	ba c1       	rjmp	.+884    	; 0x5b6e <vfprintf+0x3ae>
    57fa:	85 32       	cpi	r24, 0x25	; 37
    57fc:	39 f4       	brne	.+14     	; 0x580c <vfprintf+0x4c>
    57fe:	93 fd       	sbrc	r25, 3
    5800:	85 91       	lpm	r24, Z+
    5802:	93 ff       	sbrs	r25, 3
    5804:	81 91       	ld	r24, Z+
    5806:	7f 01       	movw	r14, r30
    5808:	85 32       	cpi	r24, 0x25	; 37
    580a:	29 f4       	brne	.+10     	; 0x5816 <vfprintf+0x56>
    580c:	b6 01       	movw	r22, r12
    580e:	90 e0       	ldi	r25, 0x00	; 0
    5810:	0e 94 09 30 	call	0x6012	; 0x6012 <fputc>
    5814:	e7 cf       	rjmp	.-50     	; 0x57e4 <vfprintf+0x24>
    5816:	91 2c       	mov	r9, r1
    5818:	21 2c       	mov	r2, r1
    581a:	31 2c       	mov	r3, r1
    581c:	ff e1       	ldi	r31, 0x1F	; 31
    581e:	f3 15       	cp	r31, r3
    5820:	d8 f0       	brcs	.+54     	; 0x5858 <vfprintf+0x98>
    5822:	8b 32       	cpi	r24, 0x2B	; 43
    5824:	79 f0       	breq	.+30     	; 0x5844 <vfprintf+0x84>
    5826:	38 f4       	brcc	.+14     	; 0x5836 <vfprintf+0x76>
    5828:	80 32       	cpi	r24, 0x20	; 32
    582a:	79 f0       	breq	.+30     	; 0x584a <vfprintf+0x8a>
    582c:	83 32       	cpi	r24, 0x23	; 35
    582e:	a1 f4       	brne	.+40     	; 0x5858 <vfprintf+0x98>
    5830:	23 2d       	mov	r18, r3
    5832:	20 61       	ori	r18, 0x10	; 16
    5834:	1d c0       	rjmp	.+58     	; 0x5870 <vfprintf+0xb0>
    5836:	8d 32       	cpi	r24, 0x2D	; 45
    5838:	61 f0       	breq	.+24     	; 0x5852 <vfprintf+0x92>
    583a:	80 33       	cpi	r24, 0x30	; 48
    583c:	69 f4       	brne	.+26     	; 0x5858 <vfprintf+0x98>
    583e:	23 2d       	mov	r18, r3
    5840:	21 60       	ori	r18, 0x01	; 1
    5842:	16 c0       	rjmp	.+44     	; 0x5870 <vfprintf+0xb0>
    5844:	83 2d       	mov	r24, r3
    5846:	82 60       	ori	r24, 0x02	; 2
    5848:	38 2e       	mov	r3, r24
    584a:	e3 2d       	mov	r30, r3
    584c:	e4 60       	ori	r30, 0x04	; 4
    584e:	3e 2e       	mov	r3, r30
    5850:	2a c0       	rjmp	.+84     	; 0x58a6 <vfprintf+0xe6>
    5852:	f3 2d       	mov	r31, r3
    5854:	f8 60       	ori	r31, 0x08	; 8
    5856:	1d c0       	rjmp	.+58     	; 0x5892 <vfprintf+0xd2>
    5858:	37 fc       	sbrc	r3, 7
    585a:	2d c0       	rjmp	.+90     	; 0x58b6 <vfprintf+0xf6>
    585c:	20 ed       	ldi	r18, 0xD0	; 208
    585e:	28 0f       	add	r18, r24
    5860:	2a 30       	cpi	r18, 0x0A	; 10
    5862:	40 f0       	brcs	.+16     	; 0x5874 <vfprintf+0xb4>
    5864:	8e 32       	cpi	r24, 0x2E	; 46
    5866:	b9 f4       	brne	.+46     	; 0x5896 <vfprintf+0xd6>
    5868:	36 fc       	sbrc	r3, 6
    586a:	81 c1       	rjmp	.+770    	; 0x5b6e <vfprintf+0x3ae>
    586c:	23 2d       	mov	r18, r3
    586e:	20 64       	ori	r18, 0x40	; 64
    5870:	32 2e       	mov	r3, r18
    5872:	19 c0       	rjmp	.+50     	; 0x58a6 <vfprintf+0xe6>
    5874:	36 fe       	sbrs	r3, 6
    5876:	06 c0       	rjmp	.+12     	; 0x5884 <vfprintf+0xc4>
    5878:	8a e0       	ldi	r24, 0x0A	; 10
    587a:	98 9e       	mul	r9, r24
    587c:	20 0d       	add	r18, r0
    587e:	11 24       	eor	r1, r1
    5880:	92 2e       	mov	r9, r18
    5882:	11 c0       	rjmp	.+34     	; 0x58a6 <vfprintf+0xe6>
    5884:	ea e0       	ldi	r30, 0x0A	; 10
    5886:	2e 9e       	mul	r2, r30
    5888:	20 0d       	add	r18, r0
    588a:	11 24       	eor	r1, r1
    588c:	22 2e       	mov	r2, r18
    588e:	f3 2d       	mov	r31, r3
    5890:	f0 62       	ori	r31, 0x20	; 32
    5892:	3f 2e       	mov	r3, r31
    5894:	08 c0       	rjmp	.+16     	; 0x58a6 <vfprintf+0xe6>
    5896:	8c 36       	cpi	r24, 0x6C	; 108
    5898:	21 f4       	brne	.+8      	; 0x58a2 <vfprintf+0xe2>
    589a:	83 2d       	mov	r24, r3
    589c:	80 68       	ori	r24, 0x80	; 128
    589e:	38 2e       	mov	r3, r24
    58a0:	02 c0       	rjmp	.+4      	; 0x58a6 <vfprintf+0xe6>
    58a2:	88 36       	cpi	r24, 0x68	; 104
    58a4:	41 f4       	brne	.+16     	; 0x58b6 <vfprintf+0xf6>
    58a6:	f7 01       	movw	r30, r14
    58a8:	93 fd       	sbrc	r25, 3
    58aa:	85 91       	lpm	r24, Z+
    58ac:	93 ff       	sbrs	r25, 3
    58ae:	81 91       	ld	r24, Z+
    58b0:	7f 01       	movw	r14, r30
    58b2:	81 11       	cpse	r24, r1
    58b4:	b3 cf       	rjmp	.-154    	; 0x581c <vfprintf+0x5c>
    58b6:	98 2f       	mov	r25, r24
    58b8:	9f 7d       	andi	r25, 0xDF	; 223
    58ba:	95 54       	subi	r25, 0x45	; 69
    58bc:	93 30       	cpi	r25, 0x03	; 3
    58be:	28 f4       	brcc	.+10     	; 0x58ca <vfprintf+0x10a>
    58c0:	0c 5f       	subi	r16, 0xFC	; 252
    58c2:	1f 4f       	sbci	r17, 0xFF	; 255
    58c4:	9f e3       	ldi	r25, 0x3F	; 63
    58c6:	99 83       	std	Y+1, r25	; 0x01
    58c8:	0d c0       	rjmp	.+26     	; 0x58e4 <vfprintf+0x124>
    58ca:	83 36       	cpi	r24, 0x63	; 99
    58cc:	31 f0       	breq	.+12     	; 0x58da <vfprintf+0x11a>
    58ce:	83 37       	cpi	r24, 0x73	; 115
    58d0:	71 f0       	breq	.+28     	; 0x58ee <vfprintf+0x12e>
    58d2:	83 35       	cpi	r24, 0x53	; 83
    58d4:	09 f0       	breq	.+2      	; 0x58d8 <vfprintf+0x118>
    58d6:	59 c0       	rjmp	.+178    	; 0x598a <vfprintf+0x1ca>
    58d8:	21 c0       	rjmp	.+66     	; 0x591c <vfprintf+0x15c>
    58da:	f8 01       	movw	r30, r16
    58dc:	80 81       	ld	r24, Z
    58de:	89 83       	std	Y+1, r24	; 0x01
    58e0:	0e 5f       	subi	r16, 0xFE	; 254
    58e2:	1f 4f       	sbci	r17, 0xFF	; 255
    58e4:	88 24       	eor	r8, r8
    58e6:	83 94       	inc	r8
    58e8:	91 2c       	mov	r9, r1
    58ea:	53 01       	movw	r10, r6
    58ec:	13 c0       	rjmp	.+38     	; 0x5914 <vfprintf+0x154>
    58ee:	28 01       	movw	r4, r16
    58f0:	f2 e0       	ldi	r31, 0x02	; 2
    58f2:	4f 0e       	add	r4, r31
    58f4:	51 1c       	adc	r5, r1
    58f6:	f8 01       	movw	r30, r16
    58f8:	a0 80       	ld	r10, Z
    58fa:	b1 80       	ldd	r11, Z+1	; 0x01
    58fc:	36 fe       	sbrs	r3, 6
    58fe:	03 c0       	rjmp	.+6      	; 0x5906 <vfprintf+0x146>
    5900:	69 2d       	mov	r22, r9
    5902:	70 e0       	ldi	r23, 0x00	; 0
    5904:	02 c0       	rjmp	.+4      	; 0x590a <vfprintf+0x14a>
    5906:	6f ef       	ldi	r22, 0xFF	; 255
    5908:	7f ef       	ldi	r23, 0xFF	; 255
    590a:	c5 01       	movw	r24, r10
    590c:	0e 94 fe 2f 	call	0x5ffc	; 0x5ffc <strnlen>
    5910:	4c 01       	movw	r8, r24
    5912:	82 01       	movw	r16, r4
    5914:	f3 2d       	mov	r31, r3
    5916:	ff 77       	andi	r31, 0x7F	; 127
    5918:	3f 2e       	mov	r3, r31
    591a:	16 c0       	rjmp	.+44     	; 0x5948 <vfprintf+0x188>
    591c:	28 01       	movw	r4, r16
    591e:	22 e0       	ldi	r18, 0x02	; 2
    5920:	42 0e       	add	r4, r18
    5922:	51 1c       	adc	r5, r1
    5924:	f8 01       	movw	r30, r16
    5926:	a0 80       	ld	r10, Z
    5928:	b1 80       	ldd	r11, Z+1	; 0x01
    592a:	36 fe       	sbrs	r3, 6
    592c:	03 c0       	rjmp	.+6      	; 0x5934 <vfprintf+0x174>
    592e:	69 2d       	mov	r22, r9
    5930:	70 e0       	ldi	r23, 0x00	; 0
    5932:	02 c0       	rjmp	.+4      	; 0x5938 <vfprintf+0x178>
    5934:	6f ef       	ldi	r22, 0xFF	; 255
    5936:	7f ef       	ldi	r23, 0xFF	; 255
    5938:	c5 01       	movw	r24, r10
    593a:	0e 94 f3 2f 	call	0x5fe6	; 0x5fe6 <strnlen_P>
    593e:	4c 01       	movw	r8, r24
    5940:	f3 2d       	mov	r31, r3
    5942:	f0 68       	ori	r31, 0x80	; 128
    5944:	3f 2e       	mov	r3, r31
    5946:	82 01       	movw	r16, r4
    5948:	33 fc       	sbrc	r3, 3
    594a:	1b c0       	rjmp	.+54     	; 0x5982 <vfprintf+0x1c2>
    594c:	82 2d       	mov	r24, r2
    594e:	90 e0       	ldi	r25, 0x00	; 0
    5950:	88 16       	cp	r8, r24
    5952:	99 06       	cpc	r9, r25
    5954:	b0 f4       	brcc	.+44     	; 0x5982 <vfprintf+0x1c2>
    5956:	b6 01       	movw	r22, r12
    5958:	80 e2       	ldi	r24, 0x20	; 32
    595a:	90 e0       	ldi	r25, 0x00	; 0
    595c:	0e 94 09 30 	call	0x6012	; 0x6012 <fputc>
    5960:	2a 94       	dec	r2
    5962:	f4 cf       	rjmp	.-24     	; 0x594c <vfprintf+0x18c>
    5964:	f5 01       	movw	r30, r10
    5966:	37 fc       	sbrc	r3, 7
    5968:	85 91       	lpm	r24, Z+
    596a:	37 fe       	sbrs	r3, 7
    596c:	81 91       	ld	r24, Z+
    596e:	5f 01       	movw	r10, r30
    5970:	b6 01       	movw	r22, r12
    5972:	90 e0       	ldi	r25, 0x00	; 0
    5974:	0e 94 09 30 	call	0x6012	; 0x6012 <fputc>
    5978:	21 10       	cpse	r2, r1
    597a:	2a 94       	dec	r2
    597c:	21 e0       	ldi	r18, 0x01	; 1
    597e:	82 1a       	sub	r8, r18
    5980:	91 08       	sbc	r9, r1
    5982:	81 14       	cp	r8, r1
    5984:	91 04       	cpc	r9, r1
    5986:	71 f7       	brne	.-36     	; 0x5964 <vfprintf+0x1a4>
    5988:	e8 c0       	rjmp	.+464    	; 0x5b5a <vfprintf+0x39a>
    598a:	84 36       	cpi	r24, 0x64	; 100
    598c:	11 f0       	breq	.+4      	; 0x5992 <vfprintf+0x1d2>
    598e:	89 36       	cpi	r24, 0x69	; 105
    5990:	41 f5       	brne	.+80     	; 0x59e2 <vfprintf+0x222>
    5992:	f8 01       	movw	r30, r16
    5994:	37 fe       	sbrs	r3, 7
    5996:	07 c0       	rjmp	.+14     	; 0x59a6 <vfprintf+0x1e6>
    5998:	60 81       	ld	r22, Z
    599a:	71 81       	ldd	r23, Z+1	; 0x01
    599c:	82 81       	ldd	r24, Z+2	; 0x02
    599e:	93 81       	ldd	r25, Z+3	; 0x03
    59a0:	0c 5f       	subi	r16, 0xFC	; 252
    59a2:	1f 4f       	sbci	r17, 0xFF	; 255
    59a4:	08 c0       	rjmp	.+16     	; 0x59b6 <vfprintf+0x1f6>
    59a6:	60 81       	ld	r22, Z
    59a8:	71 81       	ldd	r23, Z+1	; 0x01
    59aa:	07 2e       	mov	r0, r23
    59ac:	00 0c       	add	r0, r0
    59ae:	88 0b       	sbc	r24, r24
    59b0:	99 0b       	sbc	r25, r25
    59b2:	0e 5f       	subi	r16, 0xFE	; 254
    59b4:	1f 4f       	sbci	r17, 0xFF	; 255
    59b6:	f3 2d       	mov	r31, r3
    59b8:	ff 76       	andi	r31, 0x6F	; 111
    59ba:	3f 2e       	mov	r3, r31
    59bc:	97 ff       	sbrs	r25, 7
    59be:	09 c0       	rjmp	.+18     	; 0x59d2 <vfprintf+0x212>
    59c0:	90 95       	com	r25
    59c2:	80 95       	com	r24
    59c4:	70 95       	com	r23
    59c6:	61 95       	neg	r22
    59c8:	7f 4f       	sbci	r23, 0xFF	; 255
    59ca:	8f 4f       	sbci	r24, 0xFF	; 255
    59cc:	9f 4f       	sbci	r25, 0xFF	; 255
    59ce:	f0 68       	ori	r31, 0x80	; 128
    59d0:	3f 2e       	mov	r3, r31
    59d2:	2a e0       	ldi	r18, 0x0A	; 10
    59d4:	30 e0       	ldi	r19, 0x00	; 0
    59d6:	a3 01       	movw	r20, r6
    59d8:	0e 94 45 30 	call	0x608a	; 0x608a <__ultoa_invert>
    59dc:	88 2e       	mov	r8, r24
    59de:	86 18       	sub	r8, r6
    59e0:	45 c0       	rjmp	.+138    	; 0x5a6c <vfprintf+0x2ac>
    59e2:	85 37       	cpi	r24, 0x75	; 117
    59e4:	31 f4       	brne	.+12     	; 0x59f2 <vfprintf+0x232>
    59e6:	23 2d       	mov	r18, r3
    59e8:	2f 7e       	andi	r18, 0xEF	; 239
    59ea:	b2 2e       	mov	r11, r18
    59ec:	2a e0       	ldi	r18, 0x0A	; 10
    59ee:	30 e0       	ldi	r19, 0x00	; 0
    59f0:	25 c0       	rjmp	.+74     	; 0x5a3c <vfprintf+0x27c>
    59f2:	93 2d       	mov	r25, r3
    59f4:	99 7f       	andi	r25, 0xF9	; 249
    59f6:	b9 2e       	mov	r11, r25
    59f8:	8f 36       	cpi	r24, 0x6F	; 111
    59fa:	c1 f0       	breq	.+48     	; 0x5a2c <vfprintf+0x26c>
    59fc:	18 f4       	brcc	.+6      	; 0x5a04 <vfprintf+0x244>
    59fe:	88 35       	cpi	r24, 0x58	; 88
    5a00:	79 f0       	breq	.+30     	; 0x5a20 <vfprintf+0x260>
    5a02:	b5 c0       	rjmp	.+362    	; 0x5b6e <vfprintf+0x3ae>
    5a04:	80 37       	cpi	r24, 0x70	; 112
    5a06:	19 f0       	breq	.+6      	; 0x5a0e <vfprintf+0x24e>
    5a08:	88 37       	cpi	r24, 0x78	; 120
    5a0a:	21 f0       	breq	.+8      	; 0x5a14 <vfprintf+0x254>
    5a0c:	b0 c0       	rjmp	.+352    	; 0x5b6e <vfprintf+0x3ae>
    5a0e:	e9 2f       	mov	r30, r25
    5a10:	e0 61       	ori	r30, 0x10	; 16
    5a12:	be 2e       	mov	r11, r30
    5a14:	b4 fe       	sbrs	r11, 4
    5a16:	0d c0       	rjmp	.+26     	; 0x5a32 <vfprintf+0x272>
    5a18:	fb 2d       	mov	r31, r11
    5a1a:	f4 60       	ori	r31, 0x04	; 4
    5a1c:	bf 2e       	mov	r11, r31
    5a1e:	09 c0       	rjmp	.+18     	; 0x5a32 <vfprintf+0x272>
    5a20:	34 fe       	sbrs	r3, 4
    5a22:	0a c0       	rjmp	.+20     	; 0x5a38 <vfprintf+0x278>
    5a24:	29 2f       	mov	r18, r25
    5a26:	26 60       	ori	r18, 0x06	; 6
    5a28:	b2 2e       	mov	r11, r18
    5a2a:	06 c0       	rjmp	.+12     	; 0x5a38 <vfprintf+0x278>
    5a2c:	28 e0       	ldi	r18, 0x08	; 8
    5a2e:	30 e0       	ldi	r19, 0x00	; 0
    5a30:	05 c0       	rjmp	.+10     	; 0x5a3c <vfprintf+0x27c>
    5a32:	20 e1       	ldi	r18, 0x10	; 16
    5a34:	30 e0       	ldi	r19, 0x00	; 0
    5a36:	02 c0       	rjmp	.+4      	; 0x5a3c <vfprintf+0x27c>
    5a38:	20 e1       	ldi	r18, 0x10	; 16
    5a3a:	32 e0       	ldi	r19, 0x02	; 2
    5a3c:	f8 01       	movw	r30, r16
    5a3e:	b7 fe       	sbrs	r11, 7
    5a40:	07 c0       	rjmp	.+14     	; 0x5a50 <vfprintf+0x290>
    5a42:	60 81       	ld	r22, Z
    5a44:	71 81       	ldd	r23, Z+1	; 0x01
    5a46:	82 81       	ldd	r24, Z+2	; 0x02
    5a48:	93 81       	ldd	r25, Z+3	; 0x03
    5a4a:	0c 5f       	subi	r16, 0xFC	; 252
    5a4c:	1f 4f       	sbci	r17, 0xFF	; 255
    5a4e:	06 c0       	rjmp	.+12     	; 0x5a5c <vfprintf+0x29c>
    5a50:	60 81       	ld	r22, Z
    5a52:	71 81       	ldd	r23, Z+1	; 0x01
    5a54:	80 e0       	ldi	r24, 0x00	; 0
    5a56:	90 e0       	ldi	r25, 0x00	; 0
    5a58:	0e 5f       	subi	r16, 0xFE	; 254
    5a5a:	1f 4f       	sbci	r17, 0xFF	; 255
    5a5c:	a3 01       	movw	r20, r6
    5a5e:	0e 94 45 30 	call	0x608a	; 0x608a <__ultoa_invert>
    5a62:	88 2e       	mov	r8, r24
    5a64:	86 18       	sub	r8, r6
    5a66:	fb 2d       	mov	r31, r11
    5a68:	ff 77       	andi	r31, 0x7F	; 127
    5a6a:	3f 2e       	mov	r3, r31
    5a6c:	36 fe       	sbrs	r3, 6
    5a6e:	0d c0       	rjmp	.+26     	; 0x5a8a <vfprintf+0x2ca>
    5a70:	23 2d       	mov	r18, r3
    5a72:	2e 7f       	andi	r18, 0xFE	; 254
    5a74:	a2 2e       	mov	r10, r18
    5a76:	89 14       	cp	r8, r9
    5a78:	58 f4       	brcc	.+22     	; 0x5a90 <vfprintf+0x2d0>
    5a7a:	34 fe       	sbrs	r3, 4
    5a7c:	0b c0       	rjmp	.+22     	; 0x5a94 <vfprintf+0x2d4>
    5a7e:	32 fc       	sbrc	r3, 2
    5a80:	09 c0       	rjmp	.+18     	; 0x5a94 <vfprintf+0x2d4>
    5a82:	83 2d       	mov	r24, r3
    5a84:	8e 7e       	andi	r24, 0xEE	; 238
    5a86:	a8 2e       	mov	r10, r24
    5a88:	05 c0       	rjmp	.+10     	; 0x5a94 <vfprintf+0x2d4>
    5a8a:	b8 2c       	mov	r11, r8
    5a8c:	a3 2c       	mov	r10, r3
    5a8e:	03 c0       	rjmp	.+6      	; 0x5a96 <vfprintf+0x2d6>
    5a90:	b8 2c       	mov	r11, r8
    5a92:	01 c0       	rjmp	.+2      	; 0x5a96 <vfprintf+0x2d6>
    5a94:	b9 2c       	mov	r11, r9
    5a96:	a4 fe       	sbrs	r10, 4
    5a98:	0f c0       	rjmp	.+30     	; 0x5ab8 <vfprintf+0x2f8>
    5a9a:	fe 01       	movw	r30, r28
    5a9c:	e8 0d       	add	r30, r8
    5a9e:	f1 1d       	adc	r31, r1
    5aa0:	80 81       	ld	r24, Z
    5aa2:	80 33       	cpi	r24, 0x30	; 48
    5aa4:	21 f4       	brne	.+8      	; 0x5aae <vfprintf+0x2ee>
    5aa6:	9a 2d       	mov	r25, r10
    5aa8:	99 7e       	andi	r25, 0xE9	; 233
    5aaa:	a9 2e       	mov	r10, r25
    5aac:	09 c0       	rjmp	.+18     	; 0x5ac0 <vfprintf+0x300>
    5aae:	a2 fe       	sbrs	r10, 2
    5ab0:	06 c0       	rjmp	.+12     	; 0x5abe <vfprintf+0x2fe>
    5ab2:	b3 94       	inc	r11
    5ab4:	b3 94       	inc	r11
    5ab6:	04 c0       	rjmp	.+8      	; 0x5ac0 <vfprintf+0x300>
    5ab8:	8a 2d       	mov	r24, r10
    5aba:	86 78       	andi	r24, 0x86	; 134
    5abc:	09 f0       	breq	.+2      	; 0x5ac0 <vfprintf+0x300>
    5abe:	b3 94       	inc	r11
    5ac0:	a3 fc       	sbrc	r10, 3
    5ac2:	11 c0       	rjmp	.+34     	; 0x5ae6 <vfprintf+0x326>
    5ac4:	a0 fe       	sbrs	r10, 0
    5ac6:	06 c0       	rjmp	.+12     	; 0x5ad4 <vfprintf+0x314>
    5ac8:	b2 14       	cp	r11, r2
    5aca:	88 f4       	brcc	.+34     	; 0x5aee <vfprintf+0x32e>
    5acc:	28 0c       	add	r2, r8
    5ace:	92 2c       	mov	r9, r2
    5ad0:	9b 18       	sub	r9, r11
    5ad2:	0e c0       	rjmp	.+28     	; 0x5af0 <vfprintf+0x330>
    5ad4:	b2 14       	cp	r11, r2
    5ad6:	60 f4       	brcc	.+24     	; 0x5af0 <vfprintf+0x330>
    5ad8:	b6 01       	movw	r22, r12
    5ada:	80 e2       	ldi	r24, 0x20	; 32
    5adc:	90 e0       	ldi	r25, 0x00	; 0
    5ade:	0e 94 09 30 	call	0x6012	; 0x6012 <fputc>
    5ae2:	b3 94       	inc	r11
    5ae4:	f7 cf       	rjmp	.-18     	; 0x5ad4 <vfprintf+0x314>
    5ae6:	b2 14       	cp	r11, r2
    5ae8:	18 f4       	brcc	.+6      	; 0x5af0 <vfprintf+0x330>
    5aea:	2b 18       	sub	r2, r11
    5aec:	02 c0       	rjmp	.+4      	; 0x5af2 <vfprintf+0x332>
    5aee:	98 2c       	mov	r9, r8
    5af0:	21 2c       	mov	r2, r1
    5af2:	a4 fe       	sbrs	r10, 4
    5af4:	10 c0       	rjmp	.+32     	; 0x5b16 <vfprintf+0x356>
    5af6:	b6 01       	movw	r22, r12
    5af8:	80 e3       	ldi	r24, 0x30	; 48
    5afa:	90 e0       	ldi	r25, 0x00	; 0
    5afc:	0e 94 09 30 	call	0x6012	; 0x6012 <fputc>
    5b00:	a2 fe       	sbrs	r10, 2
    5b02:	17 c0       	rjmp	.+46     	; 0x5b32 <vfprintf+0x372>
    5b04:	a1 fc       	sbrc	r10, 1
    5b06:	03 c0       	rjmp	.+6      	; 0x5b0e <vfprintf+0x34e>
    5b08:	88 e7       	ldi	r24, 0x78	; 120
    5b0a:	90 e0       	ldi	r25, 0x00	; 0
    5b0c:	02 c0       	rjmp	.+4      	; 0x5b12 <vfprintf+0x352>
    5b0e:	88 e5       	ldi	r24, 0x58	; 88
    5b10:	90 e0       	ldi	r25, 0x00	; 0
    5b12:	b6 01       	movw	r22, r12
    5b14:	0c c0       	rjmp	.+24     	; 0x5b2e <vfprintf+0x36e>
    5b16:	8a 2d       	mov	r24, r10
    5b18:	86 78       	andi	r24, 0x86	; 134
    5b1a:	59 f0       	breq	.+22     	; 0x5b32 <vfprintf+0x372>
    5b1c:	a1 fe       	sbrs	r10, 1
    5b1e:	02 c0       	rjmp	.+4      	; 0x5b24 <vfprintf+0x364>
    5b20:	8b e2       	ldi	r24, 0x2B	; 43
    5b22:	01 c0       	rjmp	.+2      	; 0x5b26 <vfprintf+0x366>
    5b24:	80 e2       	ldi	r24, 0x20	; 32
    5b26:	a7 fc       	sbrc	r10, 7
    5b28:	8d e2       	ldi	r24, 0x2D	; 45
    5b2a:	b6 01       	movw	r22, r12
    5b2c:	90 e0       	ldi	r25, 0x00	; 0
    5b2e:	0e 94 09 30 	call	0x6012	; 0x6012 <fputc>
    5b32:	89 14       	cp	r8, r9
    5b34:	38 f4       	brcc	.+14     	; 0x5b44 <vfprintf+0x384>
    5b36:	b6 01       	movw	r22, r12
    5b38:	80 e3       	ldi	r24, 0x30	; 48
    5b3a:	90 e0       	ldi	r25, 0x00	; 0
    5b3c:	0e 94 09 30 	call	0x6012	; 0x6012 <fputc>
    5b40:	9a 94       	dec	r9
    5b42:	f7 cf       	rjmp	.-18     	; 0x5b32 <vfprintf+0x372>
    5b44:	8a 94       	dec	r8
    5b46:	f3 01       	movw	r30, r6
    5b48:	e8 0d       	add	r30, r8
    5b4a:	f1 1d       	adc	r31, r1
    5b4c:	80 81       	ld	r24, Z
    5b4e:	b6 01       	movw	r22, r12
    5b50:	90 e0       	ldi	r25, 0x00	; 0
    5b52:	0e 94 09 30 	call	0x6012	; 0x6012 <fputc>
    5b56:	81 10       	cpse	r8, r1
    5b58:	f5 cf       	rjmp	.-22     	; 0x5b44 <vfprintf+0x384>
    5b5a:	22 20       	and	r2, r2
    5b5c:	09 f4       	brne	.+2      	; 0x5b60 <vfprintf+0x3a0>
    5b5e:	42 ce       	rjmp	.-892    	; 0x57e4 <vfprintf+0x24>
    5b60:	b6 01       	movw	r22, r12
    5b62:	80 e2       	ldi	r24, 0x20	; 32
    5b64:	90 e0       	ldi	r25, 0x00	; 0
    5b66:	0e 94 09 30 	call	0x6012	; 0x6012 <fputc>
    5b6a:	2a 94       	dec	r2
    5b6c:	f6 cf       	rjmp	.-20     	; 0x5b5a <vfprintf+0x39a>
    5b6e:	f6 01       	movw	r30, r12
    5b70:	86 81       	ldd	r24, Z+6	; 0x06
    5b72:	97 81       	ldd	r25, Z+7	; 0x07
    5b74:	02 c0       	rjmp	.+4      	; 0x5b7a <vfprintf+0x3ba>
    5b76:	8f ef       	ldi	r24, 0xFF	; 255
    5b78:	9f ef       	ldi	r25, 0xFF	; 255
    5b7a:	2b 96       	adiw	r28, 0x0b	; 11
    5b7c:	e2 e1       	ldi	r30, 0x12	; 18
    5b7e:	0c 94 bf 30 	jmp	0x617e	; 0x617e <__epilogue_restores__>

00005b82 <dtoa_prf>:
    5b82:	a9 e0       	ldi	r26, 0x09	; 9
    5b84:	b0 e0       	ldi	r27, 0x00	; 0
    5b86:	e7 ec       	ldi	r30, 0xC7	; 199
    5b88:	fd e2       	ldi	r31, 0x2D	; 45
    5b8a:	0c 94 a9 30 	jmp	0x6152	; 0x6152 <__prologue_saves__+0xc>
    5b8e:	6a 01       	movw	r12, r20
    5b90:	12 2f       	mov	r17, r18
    5b92:	b0 2e       	mov	r11, r16
    5b94:	2b e3       	ldi	r18, 0x3B	; 59
    5b96:	20 17       	cp	r18, r16
    5b98:	20 f0       	brcs	.+8      	; 0x5ba2 <dtoa_prf+0x20>
    5b9a:	ff 24       	eor	r15, r15
    5b9c:	f3 94       	inc	r15
    5b9e:	f0 0e       	add	r15, r16
    5ba0:	02 c0       	rjmp	.+4      	; 0x5ba6 <dtoa_prf+0x24>
    5ba2:	2c e3       	ldi	r18, 0x3C	; 60
    5ba4:	f2 2e       	mov	r15, r18
    5ba6:	0f 2d       	mov	r16, r15
    5ba8:	27 e0       	ldi	r18, 0x07	; 7
    5baa:	ae 01       	movw	r20, r28
    5bac:	4f 5f       	subi	r20, 0xFF	; 255
    5bae:	5f 4f       	sbci	r21, 0xFF	; 255
    5bb0:	0e 94 1b 2f 	call	0x5e36	; 0x5e36 <__ftoa_engine>
    5bb4:	bc 01       	movw	r22, r24
    5bb6:	49 81       	ldd	r20, Y+1	; 0x01
    5bb8:	84 2f       	mov	r24, r20
    5bba:	89 70       	andi	r24, 0x09	; 9
    5bbc:	81 30       	cpi	r24, 0x01	; 1
    5bbe:	31 f0       	breq	.+12     	; 0x5bcc <dtoa_prf+0x4a>
    5bc0:	e1 fc       	sbrc	r14, 1
    5bc2:	06 c0       	rjmp	.+12     	; 0x5bd0 <dtoa_prf+0x4e>
    5bc4:	e0 fe       	sbrs	r14, 0
    5bc6:	06 c0       	rjmp	.+12     	; 0x5bd4 <dtoa_prf+0x52>
    5bc8:	90 e2       	ldi	r25, 0x20	; 32
    5bca:	05 c0       	rjmp	.+10     	; 0x5bd6 <dtoa_prf+0x54>
    5bcc:	9d e2       	ldi	r25, 0x2D	; 45
    5bce:	03 c0       	rjmp	.+6      	; 0x5bd6 <dtoa_prf+0x54>
    5bd0:	9b e2       	ldi	r25, 0x2B	; 43
    5bd2:	01 c0       	rjmp	.+2      	; 0x5bd6 <dtoa_prf+0x54>
    5bd4:	90 e0       	ldi	r25, 0x00	; 0
    5bd6:	5e 2d       	mov	r21, r14
    5bd8:	50 71       	andi	r21, 0x10	; 16
    5bda:	43 ff       	sbrs	r20, 3
    5bdc:	3c c0       	rjmp	.+120    	; 0x5c56 <dtoa_prf+0xd4>
    5bde:	91 11       	cpse	r25, r1
    5be0:	02 c0       	rjmp	.+4      	; 0x5be6 <dtoa_prf+0x64>
    5be2:	83 e0       	ldi	r24, 0x03	; 3
    5be4:	01 c0       	rjmp	.+2      	; 0x5be8 <dtoa_prf+0x66>
    5be6:	84 e0       	ldi	r24, 0x04	; 4
    5be8:	81 17       	cp	r24, r17
    5bea:	18 f4       	brcc	.+6      	; 0x5bf2 <dtoa_prf+0x70>
    5bec:	21 2f       	mov	r18, r17
    5bee:	28 1b       	sub	r18, r24
    5bf0:	01 c0       	rjmp	.+2      	; 0x5bf4 <dtoa_prf+0x72>
    5bf2:	20 e0       	ldi	r18, 0x00	; 0
    5bf4:	51 11       	cpse	r21, r1
    5bf6:	0b c0       	rjmp	.+22     	; 0x5c0e <dtoa_prf+0x8c>
    5bf8:	f6 01       	movw	r30, r12
    5bfa:	82 2f       	mov	r24, r18
    5bfc:	30 e2       	ldi	r19, 0x20	; 32
    5bfe:	88 23       	and	r24, r24
    5c00:	19 f0       	breq	.+6      	; 0x5c08 <dtoa_prf+0x86>
    5c02:	31 93       	st	Z+, r19
    5c04:	81 50       	subi	r24, 0x01	; 1
    5c06:	fb cf       	rjmp	.-10     	; 0x5bfe <dtoa_prf+0x7c>
    5c08:	c2 0e       	add	r12, r18
    5c0a:	d1 1c       	adc	r13, r1
    5c0c:	20 e0       	ldi	r18, 0x00	; 0
    5c0e:	99 23       	and	r25, r25
    5c10:	29 f0       	breq	.+10     	; 0x5c1c <dtoa_prf+0x9a>
    5c12:	d6 01       	movw	r26, r12
    5c14:	9c 93       	st	X, r25
    5c16:	f6 01       	movw	r30, r12
    5c18:	31 96       	adiw	r30, 0x01	; 1
    5c1a:	6f 01       	movw	r12, r30
    5c1c:	c6 01       	movw	r24, r12
    5c1e:	03 96       	adiw	r24, 0x03	; 3
    5c20:	e2 fe       	sbrs	r14, 2
    5c22:	0a c0       	rjmp	.+20     	; 0x5c38 <dtoa_prf+0xb6>
    5c24:	3e e4       	ldi	r19, 0x4E	; 78
    5c26:	d6 01       	movw	r26, r12
    5c28:	3c 93       	st	X, r19
    5c2a:	41 e4       	ldi	r20, 0x41	; 65
    5c2c:	11 96       	adiw	r26, 0x01	; 1
    5c2e:	4c 93       	st	X, r20
    5c30:	11 97       	sbiw	r26, 0x01	; 1
    5c32:	12 96       	adiw	r26, 0x02	; 2
    5c34:	3c 93       	st	X, r19
    5c36:	06 c0       	rjmp	.+12     	; 0x5c44 <dtoa_prf+0xc2>
    5c38:	3e e6       	ldi	r19, 0x6E	; 110
    5c3a:	f6 01       	movw	r30, r12
    5c3c:	30 83       	st	Z, r19
    5c3e:	41 e6       	ldi	r20, 0x61	; 97
    5c40:	41 83       	std	Z+1, r20	; 0x01
    5c42:	32 83       	std	Z+2, r19	; 0x02
    5c44:	fc 01       	movw	r30, r24
    5c46:	32 2f       	mov	r19, r18
    5c48:	40 e2       	ldi	r20, 0x20	; 32
    5c4a:	33 23       	and	r19, r19
    5c4c:	09 f4       	brne	.+2      	; 0x5c50 <dtoa_prf+0xce>
    5c4e:	42 c0       	rjmp	.+132    	; 0x5cd4 <dtoa_prf+0x152>
    5c50:	41 93       	st	Z+, r20
    5c52:	31 50       	subi	r19, 0x01	; 1
    5c54:	fa cf       	rjmp	.-12     	; 0x5c4a <dtoa_prf+0xc8>
    5c56:	42 ff       	sbrs	r20, 2
    5c58:	44 c0       	rjmp	.+136    	; 0x5ce2 <dtoa_prf+0x160>
    5c5a:	91 11       	cpse	r25, r1
    5c5c:	02 c0       	rjmp	.+4      	; 0x5c62 <dtoa_prf+0xe0>
    5c5e:	83 e0       	ldi	r24, 0x03	; 3
    5c60:	01 c0       	rjmp	.+2      	; 0x5c64 <dtoa_prf+0xe2>
    5c62:	84 e0       	ldi	r24, 0x04	; 4
    5c64:	81 17       	cp	r24, r17
    5c66:	18 f4       	brcc	.+6      	; 0x5c6e <dtoa_prf+0xec>
    5c68:	21 2f       	mov	r18, r17
    5c6a:	28 1b       	sub	r18, r24
    5c6c:	01 c0       	rjmp	.+2      	; 0x5c70 <dtoa_prf+0xee>
    5c6e:	20 e0       	ldi	r18, 0x00	; 0
    5c70:	51 11       	cpse	r21, r1
    5c72:	0b c0       	rjmp	.+22     	; 0x5c8a <dtoa_prf+0x108>
    5c74:	f6 01       	movw	r30, r12
    5c76:	82 2f       	mov	r24, r18
    5c78:	30 e2       	ldi	r19, 0x20	; 32
    5c7a:	88 23       	and	r24, r24
    5c7c:	19 f0       	breq	.+6      	; 0x5c84 <dtoa_prf+0x102>
    5c7e:	31 93       	st	Z+, r19
    5c80:	81 50       	subi	r24, 0x01	; 1
    5c82:	fb cf       	rjmp	.-10     	; 0x5c7a <dtoa_prf+0xf8>
    5c84:	c2 0e       	add	r12, r18
    5c86:	d1 1c       	adc	r13, r1
    5c88:	20 e0       	ldi	r18, 0x00	; 0
    5c8a:	99 23       	and	r25, r25
    5c8c:	29 f0       	breq	.+10     	; 0x5c98 <dtoa_prf+0x116>
    5c8e:	d6 01       	movw	r26, r12
    5c90:	9c 93       	st	X, r25
    5c92:	f6 01       	movw	r30, r12
    5c94:	31 96       	adiw	r30, 0x01	; 1
    5c96:	6f 01       	movw	r12, r30
    5c98:	c6 01       	movw	r24, r12
    5c9a:	03 96       	adiw	r24, 0x03	; 3
    5c9c:	e2 fe       	sbrs	r14, 2
    5c9e:	0b c0       	rjmp	.+22     	; 0x5cb6 <dtoa_prf+0x134>
    5ca0:	39 e4       	ldi	r19, 0x49	; 73
    5ca2:	d6 01       	movw	r26, r12
    5ca4:	3c 93       	st	X, r19
    5ca6:	3e e4       	ldi	r19, 0x4E	; 78
    5ca8:	11 96       	adiw	r26, 0x01	; 1
    5caa:	3c 93       	st	X, r19
    5cac:	11 97       	sbiw	r26, 0x01	; 1
    5cae:	36 e4       	ldi	r19, 0x46	; 70
    5cb0:	12 96       	adiw	r26, 0x02	; 2
    5cb2:	3c 93       	st	X, r19
    5cb4:	07 c0       	rjmp	.+14     	; 0x5cc4 <dtoa_prf+0x142>
    5cb6:	39 e6       	ldi	r19, 0x69	; 105
    5cb8:	f6 01       	movw	r30, r12
    5cba:	30 83       	st	Z, r19
    5cbc:	3e e6       	ldi	r19, 0x6E	; 110
    5cbe:	31 83       	std	Z+1, r19	; 0x01
    5cc0:	36 e6       	ldi	r19, 0x66	; 102
    5cc2:	32 83       	std	Z+2, r19	; 0x02
    5cc4:	fc 01       	movw	r30, r24
    5cc6:	32 2f       	mov	r19, r18
    5cc8:	40 e2       	ldi	r20, 0x20	; 32
    5cca:	33 23       	and	r19, r19
    5ccc:	19 f0       	breq	.+6      	; 0x5cd4 <dtoa_prf+0x152>
    5cce:	41 93       	st	Z+, r20
    5cd0:	31 50       	subi	r19, 0x01	; 1
    5cd2:	fb cf       	rjmp	.-10     	; 0x5cca <dtoa_prf+0x148>
    5cd4:	fc 01       	movw	r30, r24
    5cd6:	e2 0f       	add	r30, r18
    5cd8:	f1 1d       	adc	r31, r1
    5cda:	10 82       	st	Z, r1
    5cdc:	8e ef       	ldi	r24, 0xFE	; 254
    5cde:	9f ef       	ldi	r25, 0xFF	; 255
    5ce0:	a6 c0       	rjmp	.+332    	; 0x5e2e <dtoa_prf+0x2ac>
    5ce2:	21 e0       	ldi	r18, 0x01	; 1
    5ce4:	30 e0       	ldi	r19, 0x00	; 0
    5ce6:	91 11       	cpse	r25, r1
    5ce8:	02 c0       	rjmp	.+4      	; 0x5cee <dtoa_prf+0x16c>
    5cea:	20 e0       	ldi	r18, 0x00	; 0
    5cec:	30 e0       	ldi	r19, 0x00	; 0
    5cee:	16 16       	cp	r1, r22
    5cf0:	17 06       	cpc	r1, r23
    5cf2:	1c f4       	brge	.+6      	; 0x5cfa <dtoa_prf+0x178>
    5cf4:	fb 01       	movw	r30, r22
    5cf6:	31 96       	adiw	r30, 0x01	; 1
    5cf8:	02 c0       	rjmp	.+4      	; 0x5cfe <dtoa_prf+0x17c>
    5cfa:	e1 e0       	ldi	r30, 0x01	; 1
    5cfc:	f0 e0       	ldi	r31, 0x00	; 0
    5cfe:	2e 0f       	add	r18, r30
    5d00:	3f 1f       	adc	r19, r31
    5d02:	bb 20       	and	r11, r11
    5d04:	21 f0       	breq	.+8      	; 0x5d0e <dtoa_prf+0x18c>
    5d06:	eb 2d       	mov	r30, r11
    5d08:	f0 e0       	ldi	r31, 0x00	; 0
    5d0a:	31 96       	adiw	r30, 0x01	; 1
    5d0c:	02 c0       	rjmp	.+4      	; 0x5d12 <dtoa_prf+0x190>
    5d0e:	e0 e0       	ldi	r30, 0x00	; 0
    5d10:	f0 e0       	ldi	r31, 0x00	; 0
    5d12:	2e 0f       	add	r18, r30
    5d14:	3f 1f       	adc	r19, r31
    5d16:	e1 2f       	mov	r30, r17
    5d18:	f0 e0       	ldi	r31, 0x00	; 0
    5d1a:	2e 17       	cp	r18, r30
    5d1c:	3f 07       	cpc	r19, r31
    5d1e:	1c f4       	brge	.+6      	; 0x5d26 <dtoa_prf+0x1a4>
    5d20:	12 1b       	sub	r17, r18
    5d22:	21 2f       	mov	r18, r17
    5d24:	01 c0       	rjmp	.+2      	; 0x5d28 <dtoa_prf+0x1a6>
    5d26:	20 e0       	ldi	r18, 0x00	; 0
    5d28:	8e 2d       	mov	r24, r14
    5d2a:	88 71       	andi	r24, 0x18	; 24
    5d2c:	59 f4       	brne	.+22     	; 0x5d44 <dtoa_prf+0x1c2>
    5d2e:	f6 01       	movw	r30, r12
    5d30:	82 2f       	mov	r24, r18
    5d32:	30 e2       	ldi	r19, 0x20	; 32
    5d34:	88 23       	and	r24, r24
    5d36:	19 f0       	breq	.+6      	; 0x5d3e <dtoa_prf+0x1bc>
    5d38:	31 93       	st	Z+, r19
    5d3a:	81 50       	subi	r24, 0x01	; 1
    5d3c:	fb cf       	rjmp	.-10     	; 0x5d34 <dtoa_prf+0x1b2>
    5d3e:	c2 0e       	add	r12, r18
    5d40:	d1 1c       	adc	r13, r1
    5d42:	20 e0       	ldi	r18, 0x00	; 0
    5d44:	99 23       	and	r25, r25
    5d46:	29 f0       	breq	.+10     	; 0x5d52 <dtoa_prf+0x1d0>
    5d48:	d6 01       	movw	r26, r12
    5d4a:	9c 93       	st	X, r25
    5d4c:	f6 01       	movw	r30, r12
    5d4e:	31 96       	adiw	r30, 0x01	; 1
    5d50:	6f 01       	movw	r12, r30
    5d52:	51 11       	cpse	r21, r1
    5d54:	0b c0       	rjmp	.+22     	; 0x5d6c <dtoa_prf+0x1ea>
    5d56:	f6 01       	movw	r30, r12
    5d58:	82 2f       	mov	r24, r18
    5d5a:	90 e3       	ldi	r25, 0x30	; 48
    5d5c:	88 23       	and	r24, r24
    5d5e:	19 f0       	breq	.+6      	; 0x5d66 <dtoa_prf+0x1e4>
    5d60:	91 93       	st	Z+, r25
    5d62:	81 50       	subi	r24, 0x01	; 1
    5d64:	fb cf       	rjmp	.-10     	; 0x5d5c <dtoa_prf+0x1da>
    5d66:	c2 0e       	add	r12, r18
    5d68:	d1 1c       	adc	r13, r1
    5d6a:	20 e0       	ldi	r18, 0x00	; 0
    5d6c:	0f 2d       	mov	r16, r15
    5d6e:	06 0f       	add	r16, r22
    5d70:	9a 81       	ldd	r25, Y+2	; 0x02
    5d72:	34 2f       	mov	r19, r20
    5d74:	30 71       	andi	r19, 0x10	; 16
    5d76:	44 ff       	sbrs	r20, 4
    5d78:	03 c0       	rjmp	.+6      	; 0x5d80 <dtoa_prf+0x1fe>
    5d7a:	91 33       	cpi	r25, 0x31	; 49
    5d7c:	09 f4       	brne	.+2      	; 0x5d80 <dtoa_prf+0x1fe>
    5d7e:	01 50       	subi	r16, 0x01	; 1
    5d80:	10 16       	cp	r1, r16
    5d82:	24 f4       	brge	.+8      	; 0x5d8c <dtoa_prf+0x20a>
    5d84:	09 30       	cpi	r16, 0x09	; 9
    5d86:	18 f0       	brcs	.+6      	; 0x5d8e <dtoa_prf+0x20c>
    5d88:	08 e0       	ldi	r16, 0x08	; 8
    5d8a:	01 c0       	rjmp	.+2      	; 0x5d8e <dtoa_prf+0x20c>
    5d8c:	01 e0       	ldi	r16, 0x01	; 1
    5d8e:	ab 01       	movw	r20, r22
    5d90:	77 ff       	sbrs	r23, 7
    5d92:	02 c0       	rjmp	.+4      	; 0x5d98 <dtoa_prf+0x216>
    5d94:	40 e0       	ldi	r20, 0x00	; 0
    5d96:	50 e0       	ldi	r21, 0x00	; 0
    5d98:	fb 01       	movw	r30, r22
    5d9a:	e4 1b       	sub	r30, r20
    5d9c:	f5 0b       	sbc	r31, r21
    5d9e:	a1 e0       	ldi	r26, 0x01	; 1
    5da0:	b0 e0       	ldi	r27, 0x00	; 0
    5da2:	ac 0f       	add	r26, r28
    5da4:	bd 1f       	adc	r27, r29
    5da6:	ea 0f       	add	r30, r26
    5da8:	fb 1f       	adc	r31, r27
    5daa:	8e e2       	ldi	r24, 0x2E	; 46
    5dac:	a8 2e       	mov	r10, r24
    5dae:	4b 01       	movw	r8, r22
    5db0:	80 1a       	sub	r8, r16
    5db2:	91 08       	sbc	r9, r1
    5db4:	0b 2d       	mov	r16, r11
    5db6:	10 e0       	ldi	r17, 0x00	; 0
    5db8:	11 95       	neg	r17
    5dba:	01 95       	neg	r16
    5dbc:	11 09       	sbc	r17, r1
    5dbe:	4f 3f       	cpi	r20, 0xFF	; 255
    5dc0:	bf ef       	ldi	r27, 0xFF	; 255
    5dc2:	5b 07       	cpc	r21, r27
    5dc4:	21 f4       	brne	.+8      	; 0x5dce <dtoa_prf+0x24c>
    5dc6:	d6 01       	movw	r26, r12
    5dc8:	ac 92       	st	X, r10
    5dca:	11 96       	adiw	r26, 0x01	; 1
    5dcc:	6d 01       	movw	r12, r26
    5dce:	64 17       	cp	r22, r20
    5dd0:	75 07       	cpc	r23, r21
    5dd2:	2c f0       	brlt	.+10     	; 0x5dde <dtoa_prf+0x25c>
    5dd4:	84 16       	cp	r8, r20
    5dd6:	95 06       	cpc	r9, r21
    5dd8:	14 f4       	brge	.+4      	; 0x5dde <dtoa_prf+0x25c>
    5dda:	81 81       	ldd	r24, Z+1	; 0x01
    5ddc:	01 c0       	rjmp	.+2      	; 0x5de0 <dtoa_prf+0x25e>
    5dde:	80 e3       	ldi	r24, 0x30	; 48
    5de0:	41 50       	subi	r20, 0x01	; 1
    5de2:	51 09       	sbc	r21, r1
    5de4:	31 96       	adiw	r30, 0x01	; 1
    5de6:	d6 01       	movw	r26, r12
    5de8:	11 96       	adiw	r26, 0x01	; 1
    5dea:	7d 01       	movw	r14, r26
    5dec:	40 17       	cp	r20, r16
    5dee:	51 07       	cpc	r21, r17
    5df0:	24 f0       	brlt	.+8      	; 0x5dfa <dtoa_prf+0x278>
    5df2:	d6 01       	movw	r26, r12
    5df4:	8c 93       	st	X, r24
    5df6:	67 01       	movw	r12, r14
    5df8:	e2 cf       	rjmp	.-60     	; 0x5dbe <dtoa_prf+0x23c>
    5dfa:	64 17       	cp	r22, r20
    5dfc:	75 07       	cpc	r23, r21
    5dfe:	39 f4       	brne	.+14     	; 0x5e0e <dtoa_prf+0x28c>
    5e00:	96 33       	cpi	r25, 0x36	; 54
    5e02:	20 f4       	brcc	.+8      	; 0x5e0c <dtoa_prf+0x28a>
    5e04:	95 33       	cpi	r25, 0x35	; 53
    5e06:	19 f4       	brne	.+6      	; 0x5e0e <dtoa_prf+0x28c>
    5e08:	31 11       	cpse	r19, r1
    5e0a:	01 c0       	rjmp	.+2      	; 0x5e0e <dtoa_prf+0x28c>
    5e0c:	81 e3       	ldi	r24, 0x31	; 49
    5e0e:	f6 01       	movw	r30, r12
    5e10:	80 83       	st	Z, r24
    5e12:	f7 01       	movw	r30, r14
    5e14:	82 2f       	mov	r24, r18
    5e16:	90 e2       	ldi	r25, 0x20	; 32
    5e18:	88 23       	and	r24, r24
    5e1a:	19 f0       	breq	.+6      	; 0x5e22 <dtoa_prf+0x2a0>
    5e1c:	91 93       	st	Z+, r25
    5e1e:	81 50       	subi	r24, 0x01	; 1
    5e20:	fb cf       	rjmp	.-10     	; 0x5e18 <dtoa_prf+0x296>
    5e22:	f7 01       	movw	r30, r14
    5e24:	e2 0f       	add	r30, r18
    5e26:	f1 1d       	adc	r31, r1
    5e28:	10 82       	st	Z, r1
    5e2a:	80 e0       	ldi	r24, 0x00	; 0
    5e2c:	90 e0       	ldi	r25, 0x00	; 0
    5e2e:	29 96       	adiw	r28, 0x09	; 9
    5e30:	ec e0       	ldi	r30, 0x0C	; 12
    5e32:	0c 94 c5 30 	jmp	0x618a	; 0x618a <__epilogue_restores__+0xc>

00005e36 <__ftoa_engine>:
    5e36:	28 30       	cpi	r18, 0x08	; 8
    5e38:	08 f0       	brcs	.+2      	; 0x5e3c <__ftoa_engine+0x6>
    5e3a:	27 e0       	ldi	r18, 0x07	; 7
    5e3c:	33 27       	eor	r19, r19
    5e3e:	da 01       	movw	r26, r20
    5e40:	99 0f       	add	r25, r25
    5e42:	31 1d       	adc	r19, r1
    5e44:	87 fd       	sbrc	r24, 7
    5e46:	91 60       	ori	r25, 0x01	; 1
    5e48:	00 96       	adiw	r24, 0x00	; 0
    5e4a:	61 05       	cpc	r22, r1
    5e4c:	71 05       	cpc	r23, r1
    5e4e:	39 f4       	brne	.+14     	; 0x5e5e <__ftoa_engine+0x28>
    5e50:	32 60       	ori	r19, 0x02	; 2
    5e52:	2e 5f       	subi	r18, 0xFE	; 254
    5e54:	3d 93       	st	X+, r19
    5e56:	30 e3       	ldi	r19, 0x30	; 48
    5e58:	2a 95       	dec	r18
    5e5a:	e1 f7       	brne	.-8      	; 0x5e54 <__ftoa_engine+0x1e>
    5e5c:	08 95       	ret
    5e5e:	9f 3f       	cpi	r25, 0xFF	; 255
    5e60:	30 f0       	brcs	.+12     	; 0x5e6e <__ftoa_engine+0x38>
    5e62:	80 38       	cpi	r24, 0x80	; 128
    5e64:	71 05       	cpc	r23, r1
    5e66:	61 05       	cpc	r22, r1
    5e68:	09 f0       	breq	.+2      	; 0x5e6c <__ftoa_engine+0x36>
    5e6a:	3c 5f       	subi	r19, 0xFC	; 252
    5e6c:	3c 5f       	subi	r19, 0xFC	; 252
    5e6e:	3d 93       	st	X+, r19
    5e70:	91 30       	cpi	r25, 0x01	; 1
    5e72:	08 f0       	brcs	.+2      	; 0x5e76 <__ftoa_engine+0x40>
    5e74:	80 68       	ori	r24, 0x80	; 128
    5e76:	91 1d       	adc	r25, r1
    5e78:	df 93       	push	r29
    5e7a:	cf 93       	push	r28
    5e7c:	1f 93       	push	r17
    5e7e:	0f 93       	push	r16
    5e80:	ff 92       	push	r15
    5e82:	ef 92       	push	r14
    5e84:	19 2f       	mov	r17, r25
    5e86:	98 7f       	andi	r25, 0xF8	; 248
    5e88:	96 95       	lsr	r25
    5e8a:	e9 2f       	mov	r30, r25
    5e8c:	96 95       	lsr	r25
    5e8e:	96 95       	lsr	r25
    5e90:	e9 0f       	add	r30, r25
    5e92:	ff 27       	eor	r31, r31
    5e94:	e2 53       	subi	r30, 0x32	; 50
    5e96:	fe 4f       	sbci	r31, 0xFE	; 254
    5e98:	99 27       	eor	r25, r25
    5e9a:	33 27       	eor	r19, r19
    5e9c:	ee 24       	eor	r14, r14
    5e9e:	ff 24       	eor	r15, r15
    5ea0:	a7 01       	movw	r20, r14
    5ea2:	e7 01       	movw	r28, r14
    5ea4:	05 90       	lpm	r0, Z+
    5ea6:	08 94       	sec
    5ea8:	07 94       	ror	r0
    5eaa:	28 f4       	brcc	.+10     	; 0x5eb6 <__ftoa_engine+0x80>
    5eac:	36 0f       	add	r19, r22
    5eae:	e7 1e       	adc	r14, r23
    5eb0:	f8 1e       	adc	r15, r24
    5eb2:	49 1f       	adc	r20, r25
    5eb4:	51 1d       	adc	r21, r1
    5eb6:	66 0f       	add	r22, r22
    5eb8:	77 1f       	adc	r23, r23
    5eba:	88 1f       	adc	r24, r24
    5ebc:	99 1f       	adc	r25, r25
    5ebe:	06 94       	lsr	r0
    5ec0:	a1 f7       	brne	.-24     	; 0x5eaa <__ftoa_engine+0x74>
    5ec2:	05 90       	lpm	r0, Z+
    5ec4:	07 94       	ror	r0
    5ec6:	28 f4       	brcc	.+10     	; 0x5ed2 <__ftoa_engine+0x9c>
    5ec8:	e7 0e       	add	r14, r23
    5eca:	f8 1e       	adc	r15, r24
    5ecc:	49 1f       	adc	r20, r25
    5ece:	56 1f       	adc	r21, r22
    5ed0:	c1 1d       	adc	r28, r1
    5ed2:	77 0f       	add	r23, r23
    5ed4:	88 1f       	adc	r24, r24
    5ed6:	99 1f       	adc	r25, r25
    5ed8:	66 1f       	adc	r22, r22
    5eda:	06 94       	lsr	r0
    5edc:	a1 f7       	brne	.-24     	; 0x5ec6 <__ftoa_engine+0x90>
    5ede:	05 90       	lpm	r0, Z+
    5ee0:	07 94       	ror	r0
    5ee2:	28 f4       	brcc	.+10     	; 0x5eee <__ftoa_engine+0xb8>
    5ee4:	f8 0e       	add	r15, r24
    5ee6:	49 1f       	adc	r20, r25
    5ee8:	56 1f       	adc	r21, r22
    5eea:	c7 1f       	adc	r28, r23
    5eec:	d1 1d       	adc	r29, r1
    5eee:	88 0f       	add	r24, r24
    5ef0:	99 1f       	adc	r25, r25
    5ef2:	66 1f       	adc	r22, r22
    5ef4:	77 1f       	adc	r23, r23
    5ef6:	06 94       	lsr	r0
    5ef8:	a1 f7       	brne	.-24     	; 0x5ee2 <__ftoa_engine+0xac>
    5efa:	05 90       	lpm	r0, Z+
    5efc:	07 94       	ror	r0
    5efe:	20 f4       	brcc	.+8      	; 0x5f08 <__ftoa_engine+0xd2>
    5f00:	49 0f       	add	r20, r25
    5f02:	56 1f       	adc	r21, r22
    5f04:	c7 1f       	adc	r28, r23
    5f06:	d8 1f       	adc	r29, r24
    5f08:	99 0f       	add	r25, r25
    5f0a:	66 1f       	adc	r22, r22
    5f0c:	77 1f       	adc	r23, r23
    5f0e:	88 1f       	adc	r24, r24
    5f10:	06 94       	lsr	r0
    5f12:	a9 f7       	brne	.-22     	; 0x5efe <__ftoa_engine+0xc8>
    5f14:	84 91       	lpm	r24, Z
    5f16:	10 95       	com	r17
    5f18:	17 70       	andi	r17, 0x07	; 7
    5f1a:	41 f0       	breq	.+16     	; 0x5f2c <__ftoa_engine+0xf6>
    5f1c:	d6 95       	lsr	r29
    5f1e:	c7 95       	ror	r28
    5f20:	57 95       	ror	r21
    5f22:	47 95       	ror	r20
    5f24:	f7 94       	ror	r15
    5f26:	e7 94       	ror	r14
    5f28:	1a 95       	dec	r17
    5f2a:	c1 f7       	brne	.-16     	; 0x5f1c <__ftoa_engine+0xe6>
    5f2c:	e4 e7       	ldi	r30, 0x74	; 116
    5f2e:	f1 e0       	ldi	r31, 0x01	; 1
    5f30:	68 94       	set
    5f32:	15 90       	lpm	r1, Z+
    5f34:	15 91       	lpm	r17, Z+
    5f36:	35 91       	lpm	r19, Z+
    5f38:	65 91       	lpm	r22, Z+
    5f3a:	95 91       	lpm	r25, Z+
    5f3c:	05 90       	lpm	r0, Z+
    5f3e:	7f e2       	ldi	r23, 0x2F	; 47
    5f40:	73 95       	inc	r23
    5f42:	e1 18       	sub	r14, r1
    5f44:	f1 0a       	sbc	r15, r17
    5f46:	43 0b       	sbc	r20, r19
    5f48:	56 0b       	sbc	r21, r22
    5f4a:	c9 0b       	sbc	r28, r25
    5f4c:	d0 09       	sbc	r29, r0
    5f4e:	c0 f7       	brcc	.-16     	; 0x5f40 <__ftoa_engine+0x10a>
    5f50:	e1 0c       	add	r14, r1
    5f52:	f1 1e       	adc	r15, r17
    5f54:	43 1f       	adc	r20, r19
    5f56:	56 1f       	adc	r21, r22
    5f58:	c9 1f       	adc	r28, r25
    5f5a:	d0 1d       	adc	r29, r0
    5f5c:	7e f4       	brtc	.+30     	; 0x5f7c <__ftoa_engine+0x146>
    5f5e:	70 33       	cpi	r23, 0x30	; 48
    5f60:	11 f4       	brne	.+4      	; 0x5f66 <__ftoa_engine+0x130>
    5f62:	8a 95       	dec	r24
    5f64:	e6 cf       	rjmp	.-52     	; 0x5f32 <__ftoa_engine+0xfc>
    5f66:	e8 94       	clt
    5f68:	01 50       	subi	r16, 0x01	; 1
    5f6a:	30 f0       	brcs	.+12     	; 0x5f78 <__ftoa_engine+0x142>
    5f6c:	08 0f       	add	r16, r24
    5f6e:	0a f4       	brpl	.+2      	; 0x5f72 <__ftoa_engine+0x13c>
    5f70:	00 27       	eor	r16, r16
    5f72:	02 17       	cp	r16, r18
    5f74:	08 f4       	brcc	.+2      	; 0x5f78 <__ftoa_engine+0x142>
    5f76:	20 2f       	mov	r18, r16
    5f78:	23 95       	inc	r18
    5f7a:	02 2f       	mov	r16, r18
    5f7c:	7a 33       	cpi	r23, 0x3A	; 58
    5f7e:	28 f0       	brcs	.+10     	; 0x5f8a <__ftoa_engine+0x154>
    5f80:	79 e3       	ldi	r23, 0x39	; 57
    5f82:	7d 93       	st	X+, r23
    5f84:	2a 95       	dec	r18
    5f86:	e9 f7       	brne	.-6      	; 0x5f82 <__ftoa_engine+0x14c>
    5f88:	10 c0       	rjmp	.+32     	; 0x5faa <__ftoa_engine+0x174>
    5f8a:	7d 93       	st	X+, r23
    5f8c:	2a 95       	dec	r18
    5f8e:	89 f6       	brne	.-94     	; 0x5f32 <__ftoa_engine+0xfc>
    5f90:	06 94       	lsr	r0
    5f92:	97 95       	ror	r25
    5f94:	67 95       	ror	r22
    5f96:	37 95       	ror	r19
    5f98:	17 95       	ror	r17
    5f9a:	17 94       	ror	r1
    5f9c:	e1 18       	sub	r14, r1
    5f9e:	f1 0a       	sbc	r15, r17
    5fa0:	43 0b       	sbc	r20, r19
    5fa2:	56 0b       	sbc	r21, r22
    5fa4:	c9 0b       	sbc	r28, r25
    5fa6:	d0 09       	sbc	r29, r0
    5fa8:	98 f0       	brcs	.+38     	; 0x5fd0 <__ftoa_engine+0x19a>
    5faa:	23 95       	inc	r18
    5fac:	7e 91       	ld	r23, -X
    5fae:	73 95       	inc	r23
    5fb0:	7a 33       	cpi	r23, 0x3A	; 58
    5fb2:	08 f0       	brcs	.+2      	; 0x5fb6 <__ftoa_engine+0x180>
    5fb4:	70 e3       	ldi	r23, 0x30	; 48
    5fb6:	7c 93       	st	X, r23
    5fb8:	20 13       	cpse	r18, r16
    5fba:	b8 f7       	brcc	.-18     	; 0x5faa <__ftoa_engine+0x174>
    5fbc:	7e 91       	ld	r23, -X
    5fbe:	70 61       	ori	r23, 0x10	; 16
    5fc0:	7d 93       	st	X+, r23
    5fc2:	30 f0       	brcs	.+12     	; 0x5fd0 <__ftoa_engine+0x19a>
    5fc4:	83 95       	inc	r24
    5fc6:	71 e3       	ldi	r23, 0x31	; 49
    5fc8:	7d 93       	st	X+, r23
    5fca:	70 e3       	ldi	r23, 0x30	; 48
    5fcc:	2a 95       	dec	r18
    5fce:	e1 f7       	brne	.-8      	; 0x5fc8 <__ftoa_engine+0x192>
    5fd0:	11 24       	eor	r1, r1
    5fd2:	ef 90       	pop	r14
    5fd4:	ff 90       	pop	r15
    5fd6:	0f 91       	pop	r16
    5fd8:	1f 91       	pop	r17
    5fda:	cf 91       	pop	r28
    5fdc:	df 91       	pop	r29
    5fde:	99 27       	eor	r25, r25
    5fe0:	87 fd       	sbrc	r24, 7
    5fe2:	90 95       	com	r25
    5fe4:	08 95       	ret

00005fe6 <strnlen_P>:
    5fe6:	fc 01       	movw	r30, r24
    5fe8:	05 90       	lpm	r0, Z+
    5fea:	61 50       	subi	r22, 0x01	; 1
    5fec:	70 40       	sbci	r23, 0x00	; 0
    5fee:	01 10       	cpse	r0, r1
    5ff0:	d8 f7       	brcc	.-10     	; 0x5fe8 <strnlen_P+0x2>
    5ff2:	80 95       	com	r24
    5ff4:	90 95       	com	r25
    5ff6:	8e 0f       	add	r24, r30
    5ff8:	9f 1f       	adc	r25, r31
    5ffa:	08 95       	ret

00005ffc <strnlen>:
    5ffc:	fc 01       	movw	r30, r24
    5ffe:	61 50       	subi	r22, 0x01	; 1
    6000:	70 40       	sbci	r23, 0x00	; 0
    6002:	01 90       	ld	r0, Z+
    6004:	01 10       	cpse	r0, r1
    6006:	d8 f7       	brcc	.-10     	; 0x5ffe <strnlen+0x2>
    6008:	80 95       	com	r24
    600a:	90 95       	com	r25
    600c:	8e 0f       	add	r24, r30
    600e:	9f 1f       	adc	r25, r31
    6010:	08 95       	ret

00006012 <fputc>:
    6012:	0f 93       	push	r16
    6014:	1f 93       	push	r17
    6016:	cf 93       	push	r28
    6018:	df 93       	push	r29
    601a:	fb 01       	movw	r30, r22
    601c:	23 81       	ldd	r18, Z+3	; 0x03
    601e:	21 fd       	sbrc	r18, 1
    6020:	03 c0       	rjmp	.+6      	; 0x6028 <fputc+0x16>
    6022:	8f ef       	ldi	r24, 0xFF	; 255
    6024:	9f ef       	ldi	r25, 0xFF	; 255
    6026:	2c c0       	rjmp	.+88     	; 0x6080 <fputc+0x6e>
    6028:	22 ff       	sbrs	r18, 2
    602a:	16 c0       	rjmp	.+44     	; 0x6058 <fputc+0x46>
    602c:	46 81       	ldd	r20, Z+6	; 0x06
    602e:	57 81       	ldd	r21, Z+7	; 0x07
    6030:	24 81       	ldd	r18, Z+4	; 0x04
    6032:	35 81       	ldd	r19, Z+5	; 0x05
    6034:	42 17       	cp	r20, r18
    6036:	53 07       	cpc	r21, r19
    6038:	44 f4       	brge	.+16     	; 0x604a <fputc+0x38>
    603a:	a0 81       	ld	r26, Z
    603c:	b1 81       	ldd	r27, Z+1	; 0x01
    603e:	9d 01       	movw	r18, r26
    6040:	2f 5f       	subi	r18, 0xFF	; 255
    6042:	3f 4f       	sbci	r19, 0xFF	; 255
    6044:	31 83       	std	Z+1, r19	; 0x01
    6046:	20 83       	st	Z, r18
    6048:	8c 93       	st	X, r24
    604a:	26 81       	ldd	r18, Z+6	; 0x06
    604c:	37 81       	ldd	r19, Z+7	; 0x07
    604e:	2f 5f       	subi	r18, 0xFF	; 255
    6050:	3f 4f       	sbci	r19, 0xFF	; 255
    6052:	37 83       	std	Z+7, r19	; 0x07
    6054:	26 83       	std	Z+6, r18	; 0x06
    6056:	14 c0       	rjmp	.+40     	; 0x6080 <fputc+0x6e>
    6058:	8b 01       	movw	r16, r22
    605a:	ec 01       	movw	r28, r24
    605c:	fb 01       	movw	r30, r22
    605e:	00 84       	ldd	r0, Z+8	; 0x08
    6060:	f1 85       	ldd	r31, Z+9	; 0x09
    6062:	e0 2d       	mov	r30, r0
    6064:	09 95       	icall
    6066:	89 2b       	or	r24, r25
    6068:	e1 f6       	brne	.-72     	; 0x6022 <fputc+0x10>
    606a:	d8 01       	movw	r26, r16
    606c:	16 96       	adiw	r26, 0x06	; 6
    606e:	8d 91       	ld	r24, X+
    6070:	9c 91       	ld	r25, X
    6072:	17 97       	sbiw	r26, 0x07	; 7
    6074:	01 96       	adiw	r24, 0x01	; 1
    6076:	17 96       	adiw	r26, 0x07	; 7
    6078:	9c 93       	st	X, r25
    607a:	8e 93       	st	-X, r24
    607c:	16 97       	sbiw	r26, 0x06	; 6
    607e:	ce 01       	movw	r24, r28
    6080:	df 91       	pop	r29
    6082:	cf 91       	pop	r28
    6084:	1f 91       	pop	r17
    6086:	0f 91       	pop	r16
    6088:	08 95       	ret

0000608a <__ultoa_invert>:
    608a:	fa 01       	movw	r30, r20
    608c:	aa 27       	eor	r26, r26
    608e:	28 30       	cpi	r18, 0x08	; 8
    6090:	51 f1       	breq	.+84     	; 0x60e6 <__ultoa_invert+0x5c>
    6092:	20 31       	cpi	r18, 0x10	; 16
    6094:	81 f1       	breq	.+96     	; 0x60f6 <__ultoa_invert+0x6c>
    6096:	e8 94       	clt
    6098:	6f 93       	push	r22
    609a:	6e 7f       	andi	r22, 0xFE	; 254
    609c:	6e 5f       	subi	r22, 0xFE	; 254
    609e:	7f 4f       	sbci	r23, 0xFF	; 255
    60a0:	8f 4f       	sbci	r24, 0xFF	; 255
    60a2:	9f 4f       	sbci	r25, 0xFF	; 255
    60a4:	af 4f       	sbci	r26, 0xFF	; 255
    60a6:	b1 e0       	ldi	r27, 0x01	; 1
    60a8:	3e d0       	rcall	.+124    	; 0x6126 <__ultoa_invert+0x9c>
    60aa:	b4 e0       	ldi	r27, 0x04	; 4
    60ac:	3c d0       	rcall	.+120    	; 0x6126 <__ultoa_invert+0x9c>
    60ae:	67 0f       	add	r22, r23
    60b0:	78 1f       	adc	r23, r24
    60b2:	89 1f       	adc	r24, r25
    60b4:	9a 1f       	adc	r25, r26
    60b6:	a1 1d       	adc	r26, r1
    60b8:	68 0f       	add	r22, r24
    60ba:	79 1f       	adc	r23, r25
    60bc:	8a 1f       	adc	r24, r26
    60be:	91 1d       	adc	r25, r1
    60c0:	a1 1d       	adc	r26, r1
    60c2:	6a 0f       	add	r22, r26
    60c4:	71 1d       	adc	r23, r1
    60c6:	81 1d       	adc	r24, r1
    60c8:	91 1d       	adc	r25, r1
    60ca:	a1 1d       	adc	r26, r1
    60cc:	20 d0       	rcall	.+64     	; 0x610e <__ultoa_invert+0x84>
    60ce:	09 f4       	brne	.+2      	; 0x60d2 <__ultoa_invert+0x48>
    60d0:	68 94       	set
    60d2:	3f 91       	pop	r19
    60d4:	2a e0       	ldi	r18, 0x0A	; 10
    60d6:	26 9f       	mul	r18, r22
    60d8:	11 24       	eor	r1, r1
    60da:	30 19       	sub	r19, r0
    60dc:	30 5d       	subi	r19, 0xD0	; 208
    60de:	31 93       	st	Z+, r19
    60e0:	de f6       	brtc	.-74     	; 0x6098 <__ultoa_invert+0xe>
    60e2:	cf 01       	movw	r24, r30
    60e4:	08 95       	ret
    60e6:	46 2f       	mov	r20, r22
    60e8:	47 70       	andi	r20, 0x07	; 7
    60ea:	40 5d       	subi	r20, 0xD0	; 208
    60ec:	41 93       	st	Z+, r20
    60ee:	b3 e0       	ldi	r27, 0x03	; 3
    60f0:	0f d0       	rcall	.+30     	; 0x6110 <__ultoa_invert+0x86>
    60f2:	c9 f7       	brne	.-14     	; 0x60e6 <__ultoa_invert+0x5c>
    60f4:	f6 cf       	rjmp	.-20     	; 0x60e2 <__ultoa_invert+0x58>
    60f6:	46 2f       	mov	r20, r22
    60f8:	4f 70       	andi	r20, 0x0F	; 15
    60fa:	40 5d       	subi	r20, 0xD0	; 208
    60fc:	4a 33       	cpi	r20, 0x3A	; 58
    60fe:	18 f0       	brcs	.+6      	; 0x6106 <__ultoa_invert+0x7c>
    6100:	49 5d       	subi	r20, 0xD9	; 217
    6102:	31 fd       	sbrc	r19, 1
    6104:	40 52       	subi	r20, 0x20	; 32
    6106:	41 93       	st	Z+, r20
    6108:	02 d0       	rcall	.+4      	; 0x610e <__ultoa_invert+0x84>
    610a:	a9 f7       	brne	.-22     	; 0x60f6 <__ultoa_invert+0x6c>
    610c:	ea cf       	rjmp	.-44     	; 0x60e2 <__ultoa_invert+0x58>
    610e:	b4 e0       	ldi	r27, 0x04	; 4
    6110:	a6 95       	lsr	r26
    6112:	97 95       	ror	r25
    6114:	87 95       	ror	r24
    6116:	77 95       	ror	r23
    6118:	67 95       	ror	r22
    611a:	ba 95       	dec	r27
    611c:	c9 f7       	brne	.-14     	; 0x6110 <__ultoa_invert+0x86>
    611e:	00 97       	sbiw	r24, 0x00	; 0
    6120:	61 05       	cpc	r22, r1
    6122:	71 05       	cpc	r23, r1
    6124:	08 95       	ret
    6126:	9b 01       	movw	r18, r22
    6128:	ac 01       	movw	r20, r24
    612a:	0a 2e       	mov	r0, r26
    612c:	06 94       	lsr	r0
    612e:	57 95       	ror	r21
    6130:	47 95       	ror	r20
    6132:	37 95       	ror	r19
    6134:	27 95       	ror	r18
    6136:	ba 95       	dec	r27
    6138:	c9 f7       	brne	.-14     	; 0x612c <__ultoa_invert+0xa2>
    613a:	62 0f       	add	r22, r18
    613c:	73 1f       	adc	r23, r19
    613e:	84 1f       	adc	r24, r20
    6140:	95 1f       	adc	r25, r21
    6142:	a0 1d       	adc	r26, r0
    6144:	08 95       	ret

00006146 <__prologue_saves__>:
    6146:	2f 92       	push	r2
    6148:	3f 92       	push	r3
    614a:	4f 92       	push	r4
    614c:	5f 92       	push	r5
    614e:	6f 92       	push	r6
    6150:	7f 92       	push	r7
    6152:	8f 92       	push	r8
    6154:	9f 92       	push	r9
    6156:	af 92       	push	r10
    6158:	bf 92       	push	r11
    615a:	cf 92       	push	r12
    615c:	df 92       	push	r13
    615e:	ef 92       	push	r14
    6160:	ff 92       	push	r15
    6162:	0f 93       	push	r16
    6164:	1f 93       	push	r17
    6166:	cf 93       	push	r28
    6168:	df 93       	push	r29
    616a:	cd b7       	in	r28, 0x3d	; 61
    616c:	de b7       	in	r29, 0x3e	; 62
    616e:	ca 1b       	sub	r28, r26
    6170:	db 0b       	sbc	r29, r27
    6172:	0f b6       	in	r0, 0x3f	; 63
    6174:	f8 94       	cli
    6176:	de bf       	out	0x3e, r29	; 62
    6178:	0f be       	out	0x3f, r0	; 63
    617a:	cd bf       	out	0x3d, r28	; 61
    617c:	09 94       	ijmp

0000617e <__epilogue_restores__>:
    617e:	2a 88       	ldd	r2, Y+18	; 0x12
    6180:	39 88       	ldd	r3, Y+17	; 0x11
    6182:	48 88       	ldd	r4, Y+16	; 0x10
    6184:	5f 84       	ldd	r5, Y+15	; 0x0f
    6186:	6e 84       	ldd	r6, Y+14	; 0x0e
    6188:	7d 84       	ldd	r7, Y+13	; 0x0d
    618a:	8c 84       	ldd	r8, Y+12	; 0x0c
    618c:	9b 84       	ldd	r9, Y+11	; 0x0b
    618e:	aa 84       	ldd	r10, Y+10	; 0x0a
    6190:	b9 84       	ldd	r11, Y+9	; 0x09
    6192:	c8 84       	ldd	r12, Y+8	; 0x08
    6194:	df 80       	ldd	r13, Y+7	; 0x07
    6196:	ee 80       	ldd	r14, Y+6	; 0x06
    6198:	fd 80       	ldd	r15, Y+5	; 0x05
    619a:	0c 81       	ldd	r16, Y+4	; 0x04
    619c:	1b 81       	ldd	r17, Y+3	; 0x03
    619e:	aa 81       	ldd	r26, Y+2	; 0x02
    61a0:	b9 81       	ldd	r27, Y+1	; 0x01
    61a2:	ce 0f       	add	r28, r30
    61a4:	d1 1d       	adc	r29, r1
    61a6:	0f b6       	in	r0, 0x3f	; 63
    61a8:	f8 94       	cli
    61aa:	de bf       	out	0x3e, r29	; 62
    61ac:	0f be       	out	0x3f, r0	; 63
    61ae:	cd bf       	out	0x3d, r28	; 61
    61b0:	ed 01       	movw	r28, r26
    61b2:	08 95       	ret

000061b4 <_exit>:
    61b4:	f8 94       	cli

000061b6 <__stop_program>:
    61b6:	ff cf       	rjmp	.-2      	; 0x61b6 <__stop_program>
